Qb:_glClearStencil
eue:_UInt16_System_IConvertible_ToChar_m2096055221_AdjustorThunk
yze:_Array_TrueForAll_TisRuntimeObject_m1084992726_gshared
Hxg:__ZN6il2cpp2vm5Array13GetByteLengthEP11Il2CppArray
NUf:_KeyBuilder_get_Rng_m3373220441
LBa:__Z30GetIntermediateRendererManagerv
pha:__Z21SourceMipLevelForBlitiiii
mRa:__Z23SetSpriteMeshIndexCountP14SharedMeshDataj
yre:_TimeSpan_get_Hours_m550761902
CUc:_UnmanagedMemoryStream_Write_m930787521
Mp:__ZN11UnityEngine9Animation28GenericAnimationBindingCacheD2Ev
aMe:_X509Store_LoadCrl_m1881903843
jRa:__ZNSt3__26vectorI13dynamic_arrayI8Vector2fLj4EENS_9allocatorIS3_EEEC2INS_11__wrap_iterIPS3_EEEET_SB_RKS5_PNS_9enable_ifIXaasr21__is_forward_iteratorISB_EE5valuesr16is_constructibleIS3_NS_15iterator_traitsISB_E9referenceEEE5valueEvE4typeE
hHb:__Z18RestoreRenderStateR20CameraRenderOldStateR17ShaderPassContext
Dhb:__Z18Transfer_BlittableI18StreamedBinaryReadILb1EELb1E5RectTIfEEvRK29SerializationCommandArgumentsR31RuntimeSerializationCommandInfo
vdb:__Z18Transfer_BlittableI24GenerateTypeTreeTransferLb0E11ColorRGBA32EvRK29SerializationCommandArgumentsR31RuntimeSerializationCommandInfo
omb:__Z25scripting_class_from_name17ScriptingImagePtrPKcS1_
_Ae:_Array_InternalArray__IndexOf_TisKeyValuePair_2_t3699644050_m1021241249_gshared
mig:__ZN14dense_hash_mapI10KeyWrapperINSt3__24pairIPK12PropertyInfoP11Il2CppClassEEEj17ReflectionMapHashIS8_ENS9_14EqualsComparerINS1_8equal_toIS8_EEEENS1_9allocatorINS2_IKS9_jEEEEE15set_deleted_keyERSH_
Pnb:__Z29scripting_class_enum_basetype17ScriptingClassPtr
S4a:__ZNK20LocalFileSystemPosix6ParentERK13FileEntryDataRN4core12basic_stringIcNS3_20StringStorageDefaultIcEEEE
vWc:_MonoType_IsPrimitiveImpl_m2401722705
jHd:_SHA1CryptoServiceProvider__ctor_m4195188793
A4e:_CSSMeasureFunc_BeginInvoke_m3802154595
$ua:__ZN17PersistentManager22CheckInstanceIDsLoadedEPii
gOa:__ZN9Texture2D25CreateScaledAndPaddedDataEPP17SharedTextureDataS2_
Vea:__ZN7ApiGLES17CopyBufferSubDataEjjlll
vDe:_Array_InternalArray__ICollection_CopyTo_TisUInt64_t4134040092_m691431926_gshared
Zxd:_IPAddress_ToString_m1181734207
pWb:__ZN5Unity9rapidjson15GenericDocumentINS0_4UTF8IcEE13JSONAllocatorS4_E11ParseStreamILj1ES3_NS0_25GenericInsituStringStreamIS3_EEEERS5_RT1_
ozb:__ZN25CameraStackRenderingState20GetOrCreateBuiltinRTE24BuiltinRenderTextureTypeii17DepthBufferFormat19RenderTextureFormatj22RenderTextureReadWrite14VRTextureUsagei
gy:__ZN11AudioModule26SetDefaultMicrophoneDriverEPv
sYc:_Kernel_modInverse_m652700340
DSa:__ZNK14Texture2DArray26CanReuploadDataToGfxDeviceEv
DDb:__ZN17PrePassRenderLoop14RenderBasePassEP13RenderTextureRK14LightingLayersR13dynamic_arrayI16RenderObjectDataLj4EERbR10MinMaxAABB
GP:__ZNK15dense_hashtableINSt3__24pairIKN9ShaderLab7Program23ShaderKeywordSetAndHashEPKNS2_10SubProgramEEES4_NS3_24ShaderKeywordHashFunctorEN14dense_hash_mapIS4_S8_SA_NS0_8equal_toIS4_EE13stl_allocatorIS9_L18MemLabelIdentifier67ELi16EEE9SelectKeyESD_SG_E23find_position_with_hashERS5_j
A$d:_CompareInfo_Finalize_m404687489
ape:_UTF8Decoder_GetChars_m1236346907
sJa:__ZN7Texture13SetFilterModeEi
Irb:__ZNSt3__26vectorINS_4pairIiN17InstancingBatcher12PropertyTypeEEE13stl_allocatorIS4_L18MemLabelIdentifier1ELi16EEE21__push_back_slow_pathIKS4_EEvRT_
gzg:__ZN6il2cpp8metadata13GenericMethod9GetMethodEPK19Il2CppGenericMethod
Yo:__ZNSt3__26vectorIN4core12basic_stringIcNS1_20StringStorageDefaultIcEEEENS_9allocatorIS5_EEE7reserveEj
mcc:_Default_SelectProperty_m1220817815
ukd:_RemotingConfiguration_IsRemotelyActivatedClientType_m4117048589
O8:__ZN13GfxDeviceGLES11SetViewportERK5RectTIiE
fd:_emscripten_glDepthRange
_6c:_SslStreamBase_BeginNegotiateHandshake_m4180435790
wJb:__ZNSt3__26vectorINS_4pairIN4core12basic_stringIcNS2_20StringStorageDefaultIcEEEES6_EE13stl_allocatorIS7_L18MemLabelIdentifier38ELi16EEE12__move_rangeEPS7_SC_SC_
Y1:__Z14resize_trimmedINSt3__26vectorIN9ShaderLab20SerializedSubProgram12UAVParameterENS0_9allocatorIS4_EEEEEvRT_j
JWb:__ZN5Unity9rapidjson13GenericReaderINS0_4UTF8IcEES3_13JSONAllocatorE11ParseObjectILj1ENS0_25GenericInsituStringStreamIS3_EENS0_15GenericDocumentIS3_S4_S4_EEEEvRT0_RT1_
r7c:_SslStreamBase_EndWrite_m4073224031
dN:__ZNSt3__218__insertion_sort_3IRNS_6__lessI14ObjectLoadDataS2_EEPS2_EEvT0_S6_T_
ula:__ZL23ProgramUniformMatrix2fvPK7ApiGLESjiihPKv
Lga:__ZN4crndL20crnd_default_reallocEPvjPjbS0_
QMg:__ZNSt3__212basic_stringIcNS_11char_traitsIcEENS_9allocatorIcEEEC2ERKS5_
o0b:__ZN8JSONRead8TransferIdEEvRT_PKc17TransferMetaFlagsb
cSa:__ZN18SpriteAtlasManager19AddRequestingSpriteE4PPtrI6SpriteE
mGb:__ZN23ScriptableRenderContextC2Ev
uOe:_List_1_CheckIndex_m581273900_gshared
cib:__Z18Transfer_BlittableI18StreamedBinaryReadILb1EELb1EdEvRK29SerializationCommandArgumentsR31RuntimeSerializationCommandInfo
Xnb:__Z26BuildSerializationCacheFor17ScriptingClassPtrRb
Vma:__ZN7ApiGLES15BlitFramebufferEN2gl6HandleILNS0_10ObjectTypeE9EEENS0_15FramebufferReadES3_S3_iiiiiiiiNS0_15FramebufferTypeE
lO:__ZNK16TypeTreeIterator7GetNodeEv
Ttc:_Array_SetValue_m3998268557
$0b:__ZN8JSONRead8TransferI8Vector4fEEvRT_PKc17TransferMetaFlagsb
L3c:_Context_EndSwitchingSecurityParameters_m4148956166
ZId:_ToBase64Transform_InternalTransformFinalBlock_m360524956
D8f:__ZN6il2cpp6icalls8mscorlib6SystemL8IsStaticEPK12PropertyInfo
mpb:__Z9InitInputv
Jdg:__ZN6il2cpp2gc19AppendOnlyGCHashMapINSt3__24pairIPK10MethodInfoP11Il2CppClassEEP22Il2CppReflectionMethod17ReflectionMapHashIS9_ENS2_8equal_toIS9_EEE3AddERKS9_SB_
X5a:__ZN16MemoryFileSystem6DeleteER13FileEntryDatab
$hf:__Z81RuntimeInvoker_Void_t1185182177_RuntimeObject_Int64_t3736567304_Int32_t2950945753PFvvEPK10MethodInfoPvPS4_
oPe:_List_1_set_Item_m1979164443_gshared
Hha:__ZL21BlitScaleStbImageImplRK14ImageReferenceRS_NS_10ColorSpaceE
Bwc:_Boolean_System_IConvertible_ToUInt16_m3465173538_AdjustorThunk
m9a:__Z29Transfer_Blittable_ArrayFieldI14SafeBinaryReadyEvRT_R9ArrayInfoRK23StaticTransferFieldInfo
YYe:_Match__ctor_m2425511580
_og:__ZN6il2cpp2vm9Exception27RaiseNullReferenceExceptionEv
Pxa:__ZNK25MultiBlocksMemoryFileData5CloneEv
MEg:_GC_add_ext_descriptor
_bg:__ZNK15dense_hashtableINSt3__24pairIK10KeyWrapperINS1_IPK14Il2CppAssemblyP11Il2CppClassEEEjEES9_17ReflectionMapHashIS8_EN14dense_hash_mapIS9_jSD_NS9_14EqualsComparerINS0_8equal_toIS8_EEEENS0_9allocatorISB_EEE9SelectKeyESI_SK_E23find_position_with_hashERSA_j
j9c:_CryptoConfig_CreateFromName_m1538277313
NOg:dynCall_iiiiiiiiiiii
zja:__ZN6prcoreL17RemapGenericFloatI16TexFormatRGFloat17TexFormatRGBAHalfEEvPKNS_9InnerInfoE
Qr:__ZN12AudioManager22CreateFMODSoundFromWWWEP10IWWWStream15FMOD_SOUND_TYPE17FMOD_SOUND_FORMATjjbbP10SampleClip
RQb:__ZNK32RendererMaterialAnimationBinding15GenerateBindingERKN4core12basic_stringIcNS0_20StringStorageDefaultIcEEEEbRN11UnityEngine9Animation14GenericBindingE
ymc:_TargetException__ctor_m4172127019
zJ:__ZN8Remapper23GetOrGenerateInstanceIDERK26SerializedObjectIdentifier
_ef:__Z85RuntimeInvoker_Void_t1185182177_Int32_t2950945753_Int32_t2950945753_Int32_t2950945753PFvvEPK10MethodInfoPvPS4_
W9b:_CustomInfo__ctor_m426096741
xRa:__ZN6Sprite8TransferI24GenerateTypeTreeTransferEEvRT_
Djd:_SoapTypeAttribute_get_IsInteropXmlType_m629667929
pdc:_ConstructorBuilder_get_IsCompilerContext_m3364441562
JLa:__ZNK18DelayedCallManager22GetTypeVirtualInternalEv
ARa:__ZN7SubMesh8TransferI24GenerateTypeTreeTransferEEvRT_
Fgf:__Z46RuntimeInvoker_RuntimeObject_Int16_t2552820387PFvvEPK10MethodInfoPvPS4_
W7f:__ZN6il2cpp6icalls8mscorlib6SystemL16CheckMemberMatchI9FieldInfoNS_5utils10functional6FilterINSt3__212basic_stringIcNS8_11char_traitsIcEENS8_9allocatorIcEEEENS5_13VmStringUtils23CaseInsensitiveComparerEEEEEbPKT_PK11Il2CppClassSN_iRKT0_
FOc:_DirectoryInfo__ctor_m126519516
ULg:_poll
ZEc:_Enumerator_MoveNext_m635366482
Kqc:_X509Extension_Equals_m1222951829
ctg:__ZN6il2cpp8metadata15GenericMetadata15GetGenericClassEiPK17Il2CppGenericInst
N7a:__Z18Transfer_BlittableI14SafeBinaryReadLb0E10Matrix4x4fEvRK29SerializationCommandArgumentsR31RuntimeSerializationCommandInfo
mnb:__Z24GetFixedBehaviourManagerv
z7f:__ZN6il2cpp2vm10ThreadPool4WaitEP17Il2CppAsyncResultPPv
MLe:_X509Crl_VerifySignature_m1377612461
kKg:_vfprintf
lFc:_Stack_Clear_m2010200235
wof:__Z68RuntimeInvoker_Void_t1185182177_UInt16_t2177724958_SByte_t1669577662PFvvEPK10MethodInfoPvPS4_
Vve:_UInt64_System_IConvertible_ToChar_m2074245892
kxb:__ZN20DynamicPropertySheetD0Ev
Soc:_SafeHandle_Dispose_m4229010569
AJb:__ZN14SafeBinaryRead17RegisterConverterEPKcS1_PFbPvRS_E
IT:__ZN35RegisterRuntimeInitializeAndCleanup8RegisterEPFvPvES2_iS0_
gfc:_FieldBuilder_SetValue_m828035213
iEe:_Array_InternalArray__Insert_TisSingle_t1397266774_m3161726127_gshared
B7:__ZN8Material26ResetAllCachedMaterialDataEP6Shader
Qmd:_ObjectManager_AddFixup_m2154325362
Nce:_Comparer_1__cctor_m3761458313_gshared
aUd:_DateTimeOffset_CompareTo_m1350732322_AdjustorThunk
aa:invoke_diddi
E5e:_PersistentCall__ctor_m1217622171
Tud:_StrongName_get_TokenAlgorithm_m1794722022
Y6a:__Z18Transfer_BlittableI14SafeBinaryReadLb0EiEvRK29SerializationCommandArgumentsR31RuntimeSerializationCommandInfo
l6f:__ZN6il2cpp2vm13MetadataCache30GetPropertyDefinitionFromIndexEi
VUf:_SymmetricTransform_Transform_m1683494363
U8e:_Rect_Contains_m1232228501
c6b:__ZN22BaseUnityConnectClient17InitializeSessionERKN4core12basic_stringIcNS0_20StringStorageDefaultIcEEEES6_N19CloudServiceHandler13InitModeFlagsE
Npf:__Z74RuntimeInvoker_RuntimeObject_Int32_t2950945753_RuntimeObject_RuntimeObjectPFvvEPK10MethodInfoPvPS4_
RTg:_emscripten_glDeleteBuffers__wrapper
z$a:__ZN30RuntimeInitializeOnLoadManager8TransferI18StreamedBinaryReadILb0EEEEvRT_
mTd:_DateTimeOffset__ctor_m2084804982
bUb:__ZL34GetComponentsImplementationRecurseILb1ELi0ELi2EEbR10GameObjectbRK17CompareParametersRK39GetComponentsImplementation_ReturnValue
Lcf:__Z64RuntimeInvoker_RuntimeObject_Int32_t2950945753_Int16_t2552820387PFvvEPK10MethodInfoPvPS4_
wke:_EqualityComparer_1__cctor_m4244842342_gshared
Hwb:__ZNK6Camera18WorldToScreenPointERK8Vector3fPb
z9e:_SendMouseEvents_DoSendMouseEvents_m2140870850
cma:__Z18IsCompressedFormat14GraphicsFormat
Kkc:_MonoMethod_GetBaseDefinition_m2844667474
Nre:__Z33il2cpp_codegen_check_add_overflowxx
BI:__ZNSt3__227__insertion_sort_incompleteIRPFbRKN18AwakeFromLoadQueue4ItemES4_EPS2_EEbT0_S9_T_
FLg:_strrchr
YNc:_InvalidOperationException__ctor_m1685032583
l4f:__ZN14dense_hash_mapI10KeyWrapperIN6il2cpp5utils13dynamic_arrayIPK10Il2CppTypeLj4EEEEPFvvENS1_8metadata19Il2CppSignatureHashENS8_14EqualsComparerINSB_22Il2CppSignatureCompareEEENSt3__29allocatorINSG_4pairIKS8_SA_EEEEE15set_deleted_keyERSJ_
tse:_TimeSpan_op_Subtraction_m3592306516
ZOa:__ZN26EnlightenSystemInformation8TransferI14SafeBinaryReadEEvRT_
E_a:__ZN24GenerateTypeTreeTransfer8TransferINSt3__26vectorIN15ResourceManager10DependencyE13stl_allocatorIS4_L18MemLabelIdentifier52ELi16EEEEEEvRT_PKc17TransferMetaFlags
r7b:__ZN11UnityEngine15PlatformWrapper20SetPlayerPrefsUInt64ERKN4core12basic_stringIcNS1_20StringStorageDefaultIcEEEEy
NVa:__ZN12MeshRendererD0Ev
fz:__ZN12AudioManager35GetCurrentSpatializerDefinitionNameEv
Sg:_utime
p0e:_BalancingGroup_Compile_m2575117193
fbg:__ZNSt3__26vectorIN6il2cpp2vm17TypeNameParseInfoENS_9allocatorIS3_EEE8allocateEj
TYe:_Mark_get_Index_m3048692661_AdjustorThunk
ym:FUNCTION_TABLE_viiiiif
Cm:FUNCTION_TABLE_viiiiii
NLc:_Int32_System_IConvertible_ToType_m3009233912_AdjustorThunk
nTd:_DateTimeOffset__ctor_m74032857
mte:_Type_type_is_assignable_from_m76737532
HDb:__ZN15LightmapSTCacheC2ER13BatchRendererR15RenderLoopStats
r$a:__ZNSt3__26vectorIN4core12basic_stringIcNS1_20StringStorageDefaultIcEEEE13stl_allocatorIS5_L18MemLabelIdentifier13ELi16EEE8__appendEj
oE:__ZN19CloudServiceHandler20StartEventDispatcherERKN11UnityEngine15CloudWebService18CloudServiceConfigERNS1_23WebRequestRestHeaderMapE
oee:_Enumerator_get_CurrentValue_m3103267885_gshared
f0d:_CultureInfo_get_Parent_m672689885
YRg:_glGetShaderInfoLog__wrapper
zmd:_ObjectReader_ReadObjectGraph_m340866276
vh:_emscripten_glGetTexParameteriv
r3b:__ZN11UnityEngine7Connect15DeviceInfoEvent7GFXInfoD2Ev
t2:__ZN9ShaderLab20SerializedSubProgram14ConstantBufferaSERKS1_
yNb:__Z13RegisterClassI4MeshEvv
Pf:emscriptenWebGLGetBufferBinding
tt:__ZN12AudioManager8TransferI19StreamedBinaryWriteILb0EEEEvRT_
f7c:_SslStreamBase_get_KeyExchangeStrength_m217695965
Uib:__ZN18StreamedBinaryReadILb1EE21TransferSTLStyleArrayI13dynamic_arrayI11ColorRGBA32Lj4EEEEvRT_17TransferMetaFlags
XMg:__ZNSt3__212basic_stringIcNS_11char_traitsIcEENS_9allocatorIcEEE21__grow_by_and_replaceEjjjjjjPKc
FIe:_TlsStream_Flush_m3793197834
A4a:__ZN22LocalFileSystemHandler9MakeLocalER13FileEntryDatab
CAg:__ZN6il2cpp2vm8Profiler10AllocationEP12Il2CppObjectP11Il2CppClass
I$:__Z13FormatOrderedPKcz
_8f:__ZN6il2cpp2vm8basepathEPKc
x$d:_CompareInfo_internal_compare_m2522722857
y2c:_TlsServerFinished__ctor_m1445633918
dBa:__ZN13dynamic_arrayI17SortingLayerEntryLj4EE6insertEPS0_jRKS0_
yzg:__ZN6il2cpp2vm6String21InitializeEmptyStringEP11Il2CppClass
sDb:__ZN25DeferredRenderLoopScratchD0Ev
iaf:_UnityException__ctor_m1456865679
D1:__ZN15dense_hashtableINSt3__24pairIKiN4core17string_with_labelILi1EEEEEi18SInt32HashFunctionN14dense_hash_mapIiS5_S7_NS0_8equal_toIiEE13stl_allocatorIS6_L18MemLabelIdentifier1ELi16EEE9SelectKeyESA_SD_E9copy_fromERKSG_j
Ncc:_CustomAttributeNamedArgument_GetHashCode_m2317130892
$Za:__ZN15ResourceManagerD0Ev
TP:__ZN22CreateGpuProgramOutputD2Ev
lHd:_SHA1CryptoServiceProvider_Finalize_m1793183797
Py:__ZN14AudioBehaviourC2E10MemLabelId18ObjectCreationMode
L3a:__ZN12HandlerChain4OpenER13FileEntryData14FilePermission16FileAutoBehavior
Ndg:__ZN15dense_hashtableINSt3__24pairIK10KeyWrapperINS1_IPK10MethodInfoP11Il2CppClassEEEjEES9_17ReflectionMapHashIS8_EN14dense_hash_mapIS9_jSD_NS9_14EqualsComparerINS0_8equal_toIS8_EEEENS0_9allocatorISB_EEE9SelectKeyESI_SK_E6insertERKSB_
N1a:__ZN18AssetBundleManager55CollectPreloadObjectsFromAssetBundleLoadAssetOperationsER13dynamic_arrayIiLj4EE
Rtc:_Array_SetValue_m394135409
xM:__ZN14FileCacherReadD2Ev
Z0a:__ZN13RendererScene23UpdatePreviousFrameDataEii
Nme:_Latin1Encoding_GetString_m254210343
qVb:__Z50Register_UnityEngine_CullingGroup_FinalizerFailurev
_Jd:_SecurityPermission_IsSubsetOf_m545000671
Oyb:__ZN28LightProbeProxyVolumeContextC2E10MemLabelId
PMg:__ZNKSt3__221__basic_string_commonILb1EE20__throw_out_of_rangeEv
lag:_UpdatedEventHandler_Invoke_m1320302085
gr:__ZN9AudioClip23VirtualRedirectTransferER18StreamedBinaryReadILb0EE
Lqa:__ZN18GlslGpuProgramGLESC2ERK13dynamic_arrayIhLj1EER22CreateGpuProgramOutput
iw:__ZN5audio5mixer22UpdateAudioMixerMemoryERKNS0_18AudioMixerConstantERNS0_16AudioMixerMemoryEfPN4FMOD6SystemEf
Xi:_glCopyTexSubImage2D
naf:_UnitySynchronizationContext_ExecuteTasks_m1310741010
TFd:_RIPEMD160Managed_CompressFinal_m497690796
QIb:__ZN18ScreenManagerWebGL13SetShowCursorEb
Nsb:__ZN13DrawImmediateC2ER9GfxDevice
vKg:_frexp
J7a:__Z18Transfer_BlittableI14SafeBinaryReadLb0E5RectTIfEEvRK29SerializationCommandArgumentsR31RuntimeSerializationCommandInfo
hNc:_NumberFormatter_NumberToString_m2562899600
pKg:_fmt_u
pga:__ZN18AsyncUploadManager19AsyncResourceUploadER9GfxDeviceii9TextureID
Bda:__ZN14GfxContextGLES14GetFramebufferEv
gUg:_emscripten_glGenVertexArrays__wrapper
ag:_glGetShaderiv
kia:__ZN6prcoreL21CreateRemapAnyBlitterE13TextureFormatS0_
G$c:_RSAManaged_ExportParameters_m1754454264
cTb:__ZN17AnimationCurveTplIfE16StripInvalidKeysEv
Owc:_Boolean_Equals_m535526264_AdjustorThunk
bkg:_il2cpp_method_has_attribute
sNb:__Z13RegisterClassI17GlobalGameManagerEvv
LR:__ZN8Renderer24SetupNewRendererForSceneEv
hte:_Type_internal_from_name_m1721940673
Ghd:_RemotingServices_GetMethodBaseFromName_m3194612939
j$b:__Z35Transfer_Blittable_FixedBufferFieldI8JSONReadtEvRK29SerializationCommandArgumentsR31RuntimeSerializationCommandInfo
WQa:__ZNK6Sprite22GetTypeVirtualInternalEv
L9b:__ZN13RuntimeStaticINSt3__26vectorI23UnityVRDeviceDefinition13stl_allocatorIS2_L18MemLabelIdentifier90ELi16EEEELb0EE13StaticDestroyEPv
xm:FUNCTION_TABLE_iiiiiiiiiiiiii
veb:__Z29Transfer_Blittable_ArrayFieldI24GenerateTypeTreeTransfer5RectTIiEEvRT_R9ArrayInfoRK23StaticTransferFieldInfo
CGa:__ZN16ReflectionProbes8ScheduleEN18ReflectionProbeJob7JobTypeEP15ReflectionProbei
C2c:_ClientSessionInfo_KeepAlive_m1020179566
Fva:__Z18IsDirectoryCreatedRKN4core12basic_stringIcNS_20StringStorageDefaultIcEEEE
NJd:_String_FormatHelper_m3913915042
rcc:_ConstructorInfo__cctor_m1016079270
w1f:__ZN15dense_hashtableINSt3__24pairIK10KeyWrapperIPKcEP11Il2CppClassEES5_N6il2cpp5utils11StringUtils12StringHasherIS4_EEN14dense_hash_mapIS5_S8_SE_NS5_14EqualsComparerINSB_13VmStringUtils21CaseSensitiveComparerEEENS0_9allocatorIS9_EEE9SelectKeyESJ_SL_E15set_deleted_keyERKS9_
Qrc:_AttrListImpl_get_Names_m977594476
qmc:_Pointer_Box_m389276611
WXd:_StackTrace_get_FrameCount_m344690939
pUc:_UnexceptionalStreamWriter_Write_m363195622
gpe:_Thread_GetCompressedStack_m2923422412
wBc:_SynchronizedArrayListWrapper_CopyTo_m4207791406
Lzd:_X509BasicConstraintsExtension_ToString_m1809935297
_7:__ZN9GfxDevice20SetMaxBufferedFramesEi
Krb:__ZN17InstancingBatcher22FindCBUpperBoundKonstsEv
ZOg:dynCall_vdd
TUc:_MethodAccessException__ctor_m3542088436
VKb:__Z23ConvertIntegerToTypePtrIsEbPvR14SafeBinaryRead
Qje:_EqualityComparer_1_System_Collections_IEqualityComparer_GetHashCode_m2230215241_gshared
zDc:_Hashtable_Contains_m2145146412
IPf:__ZL64UnmarshalledAttribute_t1517743549_CustomAttributesCacheGeneratorP21CustomAttributesCache
sia:__ZN6prcoreL29inner_stretch_rgb565_bilinearEPKNS_9InnerInfoE
ZJc:_Int32_FindCurrency_m3541026887
vFd:_Interval_CompareTo_m3282557545
FCb:__ZNK14RenderSettings19GetFlatAmbientColorEv
Mha:__ZN6prcoreL10inner_flipILj4EEEvPhS1_j
JYa:__ZN18StreamedBinaryReadILb0EE21TransferSTLStyleArrayI10vector_mapIPKN5Unity4TypeE7Hash128NSt3__24lessIS6_EENS8_9allocatorINS8_4pairIS6_S7_EEEEEEEvRT_17TransferMetaFlags
ycd:_RijndaelManagedTransform_TransformBlock_m1610137419
LSa:__ZN14Texture2DArray17UploadToGfxDeviceEv
av:__Z14FMODMemoryFreePvjPKc
KAb:__Z14SetSHConstantsR13BatchRendererR17ShaderPassContextRK20SphericalHarmonicsL2b
myc:_Char_System_IConvertible_ToDecimal_m3534906463
N9e:_StackTraceUtility_SetProjectFolder_m830524047
R2c:_ClientSessionInfo_Finalize_m2165787049
C$f:__ZN6il2cpp2vmL15GetBitmapNoInitEP11Il2CppClassPjRjj
O1c:_ClientContext_Clear_m1774063253
ESd:_DateTime_AddSeconds_m332574389_AdjustorThunk
baf:_RequestAtlasCallback_Invoke_m378128467
uxc:_Byte_System_IConvertible_ToSByte_m1869482168
RYf:__ZL24UnresolvedVirtualCall_68P12Il2CppObjectS0_iS0_S0_S0_S0_S0_S0_PK10MethodInfo
Dl:_emscripten_glIsTexture
ik:_emscripten_glHint
iVf:_Check_SourceAndPredicate_m2332465641
bLd:_String_op_Inequality_m215368492
zhb:__Z35Transfer_Blittable_FixedBufferFieldI18StreamedBinaryReadILb1EEtEvRK29SerializationCommandArgumentsR31RuntimeSerializationCommandInfo
mve:_UInt32_System_IConvertible_ToInt64_m2261037378
Gl:_SDL_UpperBlit
yGa:__Z35GetTextureDecodeValuesWithIntensity16TextureUsageMode17TextureColorSpace10ColorSpacef
Kye:_Array_InternalArray__ICollection_Remove_TisChar_t3634460470_m4143749387_gshared
$sb:__ZN15dense_hashtableINSt3__24pairIK9TextureIDiEES2_14GfxGenericHashIS2_EN14GfxDoubleCacheIS2_iS6_NS0_8equal_toIS2_EEN31GfxDoubleCacheConcurrencyPolicy11LocklessGetE42GfxDoubleCacheDefaultEmptyDeletedGeneratorIS2_EE9SelectKeyES9_13stl_allocatorIS4_L18MemLabelIdentifier24ELi16EEE14squash_deletedEv
fig:__ZN15dense_hashtableINSt3__24pairIK10KeyWrapperINS1_IPK9EventInfoP11Il2CppClassEEEjEES9_17ReflectionMapHashIS8_EN14dense_hash_mapIS9_jSD_NS9_14EqualsComparerINS0_8equal_toIS8_EEEENS0_9allocatorISB_EEE9SelectKeyESI_SK_E15set_deleted_keyERKSB_
phb:__Z18Transfer_BlittableI18StreamedBinaryReadILb1EELb0E9BoundsIntEvRK29SerializationCommandArgumentsR31RuntimeSerializationCommandInfo
YRd:_GregorianCalendar__ctor_m979779718
e6c:_SslClientStream__ctor_m2402546929
unb:__ZN14SafeBinaryRead20OverrideRootTypeNameEPKc
dwd:_DictionaryNodeEnumerator_get_Entry_m2309234501
BM:__ZN14FileCacherRead16UnlockCacheBlockEj
NU:__ZN10InstancingL21OnGraphicsCapsChangedEv
gre:_WaitHandle_get_Handle_m3260446580
ac:_emscripten_glUniform1f
tEc:_SortedList__ctor_m1261191695
fc:_emscripten_glUniform1i
Tcb:__Z18Transfer_BlittableI24GenerateTypeTreeTransferLb1EN4math12int3_storageEEvRK29SerializationCommandArgumentsR31RuntimeSerializationCommandInfo
x3:__ZN9ShaderLab16SerializedTagMapaSERKS0_
BB:__ZN11UnityEngine15CloudWebService16SessionContainer20RestoreSessionHeaderERKN4core12basic_stringIcNS2_20StringStorageDefaultIcEEEES8_RNS0_13SessionHeaderE
WGg:__ZN6il2cpp2os12Cryptography23GetCryptographyProviderEv
Y7c:_SByte_System_IConvertible_ToByte_m2268214252_AdjustorThunk
Ghf:__Z151RuntimeInvoker_RuntimeObject_Int32_t2950945753_RuntimeObject_ObjectU5BU5DU26_t712384779_RuntimeObject_RuntimeObject_RuntimeObject_ObjectU26_t2146539884PFvvEPK10MethodInfoPvPS4_
PK:__ZN14MessageHandler3GetEv
Ojc:_MonoMethodInfo_GetCallingConvention_m3156036493
tc:_emscripten_glAttachShader
Z7:__ZN9GfxDevice13SetActiveTierE12GraphicsTier
P3:__ZNSt3__26vectorIN4core12basic_stringIcNS1_20StringStorageDefaultIcEEEENS_9allocatorIS5_EEE6assignIPS5_EENS_9enable_ifIXaasr21__is_forward_iteratorIT_EE5valuesr16is_constructibleIS5_NS_15iterator_traitsISC_E9referenceEEE5valueEvE4typeESC_SC_
q7a:__Z18Transfer_BlittableI14SafeBinaryReadLb0E11QuaternionfEvRK29SerializationCommandArgumentsR31RuntimeSerializationCommandInfo
Fkb:__Z18Transfer_BlittableI18StreamedBinaryReadILb0EELb1E12PropertyNameEvRK29SerializationCommandArgumentsR31RuntimeSerializationCommandInfo
eG:_tlsf_walk_heap
vhf:__Z49RuntimeInvoker_Void_t1185182177_OpCode_t123070264PFvvEPK10MethodInfoPvPS4_
yIc:_Convert_ToUInt32_m3592050311
Xa:invoke_vif
Ya:invoke_vid
fNg:__ZNSt3__212basic_stringIcNS_11char_traitsIcEENS_9allocatorIcEEE6insertEjPKc
Za:invoke_vii
gwb:__ZNK12ImageFilters8DoRenderER17ShaderPassContextP13RenderTextureS3_RKNSt3__26vectorI11ImageFilterNS4_9allocatorIS6_EEEE
sua:__ZN12TLSAllocatorI14StackAllocatorE16ThreadInitializeEP13BaseAllocator
Tif:__Z82RuntimeInvoker_Boolean_t97287965_SByte_t1669577662_RuntimeObject_SByte_t1669577662PFvvEPK10MethodInfoPvPS4_
y8:__ZN9GfxDevice32UpdateStereoViewProjectionMatrixE21MonoOrStereoscopicEye
cWc:_MonoType_GetConstructorImpl_m441167626
Aya:__ZN25SingleBlockMemoryFileDataD0Ev
zua:__ZNSt3__26vectorI14ConstantStringNS_9allocatorIS1_EEE6assignINS_11__wrap_iterIPS1_EEEENS_9enable_ifIXaasr21__is_forward_iteratorIT_EE5valuesr16is_constructibleIS1_NS_15iterator_traitsISA_E9referenceEEE5valueEvE4typeESA_SA_
wB:__ZN11UnityEngine15CloudWebService16SessionContainer21ConvertFromFolderTimeERKN4core12basic_stringIcNS2_20StringStorageDefaultIcEEEEPjPt
R8c:_CodeAccessPermission_Equals_m1555575992
b9a:__ZNSt3__26vectorI8GUIStyle13stl_allocatorIS1_L18MemLabelIdentifier1ELi16EEE7reserveEj
SVe:_ReadOnlyCollection_1_Contains_m3869904379_gshared
Xng:__ZN6il2cpp6icalls8mscorlib6System9Threading6Thread27GetSerializedCurrentCultureEP12Il2CppThread
m3c:_Context_set_ReadSequenceNumber_m2154909392
tcd:_RijndaelTransform_SubByte_m3037693507
gMb:__Z31CalculateHierarchyTransformType23TransformAccessReadOnly
NNb:__Z13RegisterClassI11TimeManagerEvv
Tu:__ZN4FMOD8ChannelI11setPositionEjj
PCg:_GC_set_fl_marks
B8:__ZN9GfxDevice17SetStereoViewportE15StereoscopicEyeRK5RectTIiE
d$:__ZN17BaseObjectManager13StaticDestroyEPv
Zce:_Comparer_1__cctor_m3891417387_gshared
Aoe:_UTF7Decoder_GetChars_m3413809261
yec:_EnumBuilder_GetEvent_m4074915332
Rg:_sysconf
Lt:__ZN4FMOD6Reverb13setPropertiesEPK22FMOD_REVERB_PROPERTIES
Txb:__ZN9DepthPass13PrepareSubsetEjRK10RenderNodeifRK17ShaderReplaceData
KNd:_String_IndexOf_m3406607758
C2:__ZN9ShaderLab20SerializedSubProgram16TextureParameter8TransferI14SafeBinaryReadEEvRT_
lCe:_Array_InternalArray__ICollection_Add_TisCustomAttributeNamedArgument_t287865710_m4157175270_gshared
Ro:__ZN4core20StringStorageDefaultIcE6assignEPKcj
rwe:_UInt64_System_IConvertible_ToUInt64_m2135047981_AdjustorThunk
LYc:_BigInteger_ModPow_m3776562770
oug:__ZN15dense_hashtableINSt3__24pairIK10KeyWrapperIP12Il2CppObjectEN6il2cpp2gc9CachedCCWEEES5_NS7_5utils11PointerHashIS3_EEN14dense_hash_mapIS5_S9_SD_NS5_14EqualsComparerINS0_8equal_toIS4_EEEENS0_9allocatorISA_EEE9SelectKeyESI_SK_E3endEv
l5c:_RecordProtocol_ProcessChangeCipherSpec_m15839975
Mzc:_ArrayList_IndexOf_m305368842
Kkg:__ZN15dense_hashtableINSt3__24pairIK10KeyWrapperINS1_IP11Il2CppClassjEEES4_EES6_N6il2cpp8metadata14ArrayClassHashEN14dense_hash_mapIS6_S4_SB_NS6_14EqualsComparerINSA_17ArrayClassCompareEEENS0_9allocatorIS8_EEE9SelectKeyESF_SH_E9copy_fromERKSK_j
UGb:__ZN6Camera6SetFarEf
rld:_FormatterConverter_ToBoolean_m1680758923
aja:__ZN6prcoreL12RemapGenericI17TexFormatABGR888817TexFormatARGB8888EEvPKNS_9InnerInfoE
uza:__ZN11GameManager17MainThreadCleanupEv
rCd:_X509Chain__ctor_m2674663382
smd:_SerializationCallbacks_GetSerializationCallbacks_m2939476649
gDc:_Hashtable__cctor_m4112166779
aub:__ZZ23InitPlayerLoopCallbacksvEN41PostLateUpdateUpdateResolutionRegistrator7ForwardEv
qmb:__Z25scripting_array_class_get17ScriptingClassPtrj
lZb:__ZL22Transfer_ManagedObjectI9JSONWriteLb1EEvRK29SerializationCommandArgumentsR31RuntimeSerializationCommandInfo
Qq:__ZNK10SampleClip22GetTypeVirtualInternalEv
K9:__ZN9GfxDevice20DestroyRenderSurfaceER12ObjectHandleI17RenderSurface_TagP17RenderSurfaceBaseE
gFc:_Stack__ctor_m2602729586
Qsa:__ZN9GfxDevice22UpdateComputeResourcesEjPK9TextureIDPK16TextureDimensionPKijPKjjPK15ComputeBufferIDS7_PK20ComputeBufferCounterjSC_S2_S5_S9_SF_
qN:__ZN12_GLOBAL__N_15qAsinEff
g6d:_InternalEnumerator_1_System_Collections_IEnumerator_get_Current_m2629988057_AdjustorThunk
tua:__ZN12TLSAllocatorI14StackAllocatorE13ThreadCleanupEv
wAg:__ZThn4_N6il2cpp2vm13ComObjectBase16MarshalInterfaceEP13Il2CppIStreamRK10Il2CppGuidPvjS7_j
TGc:_Convert_ToDouble_m996590115
cpb:__Z27FindActiveTransformWithPathPKc
Sue:_UInt16_ToString_m3020002356
IEc:_SortedList_Find_m3363512987
LH:__ZNK6Camera7GetNearEv
nfc:_GenericTypeParameterBuilder_GetConstructorImpl_m863833310
Xla:__ZN7ApiGLES11UnmapBufferEjN2gl12BufferTargetE
KAg:__ZN6il2cpp5utilsL24Utf32CharToSurrogatePairEjRA2_Ds
ENa:__Z25GetNextAllowedTextureSizeib13TextureFormat
Wob:__ZN20LocalFileSystemWebGL4CopyER13FileEntryDataS1_
dE:__ZN19CloudServiceHandler6RetainEv
LUe:_ReadOnlyCollection_1_System_Collections_IList_IndexOf_m198887188_gshared
Sne:_UTF32Encoding_GetBytes_m3180303867
_O:__ZN12BaseRenderer20FlattenToRenderQueueER15RenderNodeQueueRK20DeprecatedSourceData
W1a:__Z34scripting_liveness_calculation_endPv
kwg:__ZN6il2cpp2os6ThreadC2Ev
pUd:_DateTimeOffset_get_UtcDateTime_m1021718282_AdjustorThunk
Dvd:_HybridDictionary_get_Count_m1166314536
JGa:__ZN14RenderSettings23VirtualRedirectTransferER19StreamedBinaryWriteILb0EE
N_b:__Z18Transfer_BlittableI8JSONReadLb0E8Vector3fEvRK29SerializationCommandArgumentsR31RuntimeSerializationCommandInfo
nmg:__ZN6il2cpp2vm6Thread6DetachEP12Il2CppThread
bJe:_GeneralNames_get_DNSNames_m3788548987
R1b:__GLOBAL__sub_I_runtime_dynamics_2_cpp
MUc:_Math_Round_m3018379666
$wg:__ZN6il2cpp2os10ThreadImpl5SleepEjb
NUe:_ReadOnlyCollection_1_System_Collections_IList_Remove_m1965826685_gshared
qXd:_Delegate_CreateDelegate_m1051651521
ITg:_glBindSampler__wrapper
mza:__ZNSt3__26vectorIN20ArchiveStorageHeader12StorageBlockE13stl_allocatorIS2_L18MemLabelIdentifier55ELi16EEE8__appendEj
Ze:_emscripten_set_mouseup_callback
ejf:__Z165RuntimeInvoker_Void_t1185182177_UInt32U26_t3735378166_Int32_t2950945753_UInt32U26_t3735378166_Int32_t2950945753_Int32_t2950945753_Int32_t2950945753_Int32_t2950945753PFvvEPK10MethodInfoPvPS4_
POe:_List_1_System_Collections_IList_Remove_m3140917266_gshared
MCd:_X509ChainElementCollection_System_Collections_IEnumerable_GetEnumerator_m3829089536
UIb:__ZNK18ScreenManagerWebGL8GetWidthEv
Nq:__ZN10SampleClipD2Ev
p1a:__Z13GetGISettingsv
PD:__ZN11UnityEngine15CloudWebService20WebRequestRestClientC2Ev
gye:_Array_InternalArray__ICollection_Contains_TisRuntimeObject_m4067783231_gshared
hfd:_Context_ToString_m1073616138
ILg:_readlink
Ifg:__ZN15dense_hashtableINSt3__24pairIK10KeyWrapperINS1_IPK9EventInfoP11Il2CppClassEEEjEES9_17ReflectionMapHashIS8_EN14dense_hash_mapIS9_jSD_NS9_14EqualsComparerINS0_8equal_toIS8_EEEENS0_9allocatorISB_EEE9SelectKeyESI_SK_E12resize_deltaEjj
Jjc:_MonoCMethod_Invoke_m2700167622
$Dc:_KeyMarker__cctor_m2590194914
zde:_Enumerator_Reset_m627751027_AdjustorThunk
RWa:__ZNK6Sprite9GetBoundsE8Vector2fbb
KCa:__ZNK19RenderEventsContext21CleanupCommandBuffersEv
Eda:__ZN11ContextGLES6CreateEi
uRe:_List_1_set_Capacity_m3382070520_gshared
pWd:_Decimal_CompareTo_m3502307243_AdjustorThunk
tlb:__Z19TransferField_ArrayI18StreamedBinaryReadILb0EE27Converter_SimpleNativeClassI17AnimationCurveTplIfEEEvRK23StaticTransferFieldInfoR31RuntimeSerializationCommandInfoRT0_
Wta:__ZN14StackAllocator16FrameMaintenanceEb
fwa:__Z18ReadStringFromFilePN4core17string_with_labelILi1EEERKNS_12basic_stringIcNS_20StringStorageDefaultIcEEEE
QH:__ZNK10GameObject20QueryComponentByTypeEPKN5Unity4TypeE
jVc:_MonoCustomAttrs_IsUserCattrProvider_m2878058089
QMa:__ZN11TextureData5ResetEv
Xrc:_ActivationContext_Dispose_m2038725770
fK:__ZL30InitializeCoreScriptingClassesv
Xf:_glBlitFramebuffer
Qab:__Z35Transfer_Blittable_SingleValueFieldI14SafeBinaryReadhEvRT_R17GeneralMonoObjectRK23StaticTransferFieldInfo
VLa:__ZNK12CubemapArray22GetTypeVirtualInternalEv
Qm:FUNCTION_TABLE_vif
Rm:FUNCTION_TABLE_vid
Sm:FUNCTION_TABLE_vii
f2a:__Z40scripting_liveness_calculation_from_root18ScriptingObjectPtrPv
bJa:__ZN7Texture23VirtualRedirectTransferER24GenerateTypeTreeTransfer
rtg:__ZN6il2cpp8metadata15GenericMetadata20RegisterGenericClassEP18Il2CppGenericClass
lTg:_glDeleteFramebuffers__wrapper
Dff:__Z220RuntimeInvoker_Boolean_t97287965_RuntimeObject_Int32U26_t1369213839_Int32_t2950945753_Int32_t2950945753_Int32_t2950945753_RuntimeObject_SByte_t1669577662_Int32_t2950945753_ContractionU26_t961830454_ContextU26_t3937453398PFvvEPK10MethodInfoPvPS4_
m9f:__ZN6il2cpp2vm7Runtime17GetDelegateInvokeEP11Il2CppClass
Pyd:_WebHeaderCollection_ToString_m1263025316
nRb:__ZZN12MeshRenderer15InitializeClassEvEN29FunctorImpl_134kDidDeleteMesh4CallEPviR11MessageData
Rlc:_GetterAdapter_Invoke_m3767885970
ePd:_String_CreateString_m2818852475
$Oa:__ZN28EnlightenRendererInformation8TransferI14SafeBinaryReadEEvRT_
E7e:_MessageEvent__ctor_m1231650089
R0:__ZNK15Lz4Decompressor16DecompressMemoryEPKvPjPvS2_
mCa:__Z11IsCoroutine18ScriptingMethodPtrRK22CommonScriptingClasses
SMb:__ZN4core8hash_mapINS_12basic_stringIcNS_20StringStorageDefaultIcEEEE10vector_setI4PPtrI11SpriteAtlasENSt3__24lessIS8_EE13stl_allocatorIS8_L18MemLabelIdentifier81ELi16EEENS_4hashIS4_EENS9_8equal_toIS4_EEEixERKS4_
Ng:_glGetAttribLocation
WKa:__Z35UnityPropertySheet_MakeSortedColorsRKNSt3__23mapIN9ShaderLab16FastPropertyNameE10ColorRGBAfNS_4lessIS2_EENS_9allocatorINS_4pairIKS2_S3_EEEEEER10vector_mapIS2_S3_S5_NS6_INS7_IS2_S3_EEEEE
iab:__Z29Transfer_Blittable_ArrayFieldI14SafeBinaryRead8Vector4fEvRT_R9ArrayInfoRK23StaticTransferFieldInfo
ecc:_Default_check_arguments_m3882727959
g0e:_Reference_Compile_m4195878675
ldc:_ModuleBuilder_RegisterToken_m4166846047
Ttb:__ZZ23InitPlayerLoopCallbacksvEN51PostLateUpdateUpdateCustomRenderTexturesRegistrator7ForwardEv
TCg:_GC_print_finalization_stats
u6f:__ZN6il2cpp2vm13MetadataCache25GetStringLiteralFromIndexEi
wsc:_Hashtable_ToPrime_m33531354
Xte:_TypeInitializationException__ctor_m3546444694
jBe:_Array_InternalArray__IndexOf_TisInt32_t2950945753_m738632427_gshared
nD:__ZN11UnityEngine15CloudWebService23WebRequestUploadHandler17ConsumeUploadDataEj
oRc:_MemoryStream_set_Position_m3169779190
MFb:__ZN13RenderManager29SetCurrentCameraAndStackStateEP6CameraP25CameraStackRenderingState
hBa:__ZNSt3__26__treeINS_12__value_typeIjN4core12basic_stringIcNS2_20StringStorageDefaultIcEEEEEENS_19__map_value_compareIjS7_NS_4lessIjEELb1EEE13stl_allocatorIS7_L18MemLabelIdentifier7ELi16EEE7destroyEPNS_11__tree_nodeIS7_PvEE
_lg:__ZN15dense_hashtableINSt3__24pairIK10KeyWrapperINS1_IP11Il2CppClassjEEES4_EES6_N6il2cpp8metadata14ArrayClassHashEN14dense_hash_mapIS6_S4_SB_NS6_14EqualsComparerINSA_17ArrayClassCompareEEENS0_9allocatorIS8_EEE9SelectKeyESF_SH_E12resize_deltaEjj
kh:_JS_WebRequest_Release
WB:__ZN11UnityEngine15CloudWebService14DataErrorEventD0Ev
Ppg:__ZN6il2cpp6icalls8mscorlib6System4Type20internal_from_handleEi
Bed:_Context__ctor_m254302079
ntg:__ZN6il2cpp8metadata15GenericMetadata7InflateEPK19Il2CppGenericMethodPK20Il2CppGenericContext
qOa:__ZN19ShaderPropertySheet16SetArrayPropertyEN9ShaderLab16FastPropertyNameENS_12PropertyTypeEPKvj
_Ac:_SimpleEnumerator__cctor_m2844299657
EUc:_LocalDataStoreSlot__ctor_m4104083971
fWf:_AudioSource_ReadExtensionName_m725112169
mmf:__Z128RuntimeInvoker_Void_t1185182177_RuntimeObject_BooleanU26_t4125257963_SByte_t1669577662_Int32U26_t1369213839_Int32U26_t1369213839PFvvEPK10MethodInfoPvPS4_
vga:__ZN7Texture21GetMasterTextureLimitEv
BHb:__Z12CanAddScriptR10GameObject17ScriptingClassPtrPS1_S2_
Iig:__ZN6il2cpp2vm10Reflection12HasAttributeEP12Il2CppObjectP11Il2CppClass
hV:__ZN9ShaderLabL25StaticInitializeShaderLabEPv
OKe:_X509Certificate_VerifySignature_m3538124832
ijg:_il2cpp_class_get_methods
Wcb:__Z18Transfer_BlittableI24GenerateTypeTreeTransferLb0EN4math12int2_storageEEvRK29SerializationCommandArgumentsR31RuntimeSerializationCommandInfo
UBb:__ZN14qsort_internal30FindAndMovePivotToLastPositionIP21ForwardRenderPassDataiN23ForwardShaderRenderLoop18RenderObjectSorterILb1EEEEEvT_S6_T0_T1_
KMd:_Single_CompareTo_m2785801815_AdjustorThunk
swg:__ZN6il2cpp2os6Thread16GetCurrentThreadEv
zNb:__Z13RegisterClassI10MeshFilterEvv
nBa:__ZN10TagManager8TransferI19StreamedBinaryWriteILb0EEEEvRT_
A1a:__ZN11PreloadData23VirtualRedirectTransferER18StreamedBinaryReadILb0EE
w8e:_PropertyNameUtils_PropertyNameFromString_Injected_m1259736140
kyc:_Char_System_IConvertible_ToDateTime_m3564102661
UQa:__ZN6Sprite17MainThreadCleanupEv
PRg:_glBlendFuncSeparate__wrapper
yw:__ZN10AudioMixer14UpdateMuteSoloEv
AAa:__ZN9Transform35SetLocalPositionWithoutNotificationERKN4math7_float3Ey
Wlf:__Z69RuntimeInvoker_UInt64_t4134040092_Int32_t2950945753_SByte_t1669577662PFvvEPK10MethodInfoPvPS4_
li:_JS_Eval_ClearTimeout
fla:__ZN7ApiGLES16SetPatchVerticesEi
L0e:_CharacterClass_Compile_m3296067317
jyg:__ZN6il2cpp2gc16GarbageCollector16InvokeFinalizersEv
txc:_Byte_System_IConvertible_ToInt64_m285584218_AdjustorThunk
Y_f:__ZN6il2cpp2vm5Class20FromGenericParameterEPK22Il2CppGenericParameter
CE:__ZN19CloudServiceHandler11FlushEventsEv
v_:__ZN15GlobalCallbacksC2Ev
nCe:_Array_InternalArray__ICollection_Add_TisLabelData_t360167391_m1648183135_gshared
llf:__Z74RuntimeInvoker_DateTime_t3738529785_DateTime_t3738529785_Int32_t2950945753PFvvEPK10MethodInfoPvPS4_
aRc:_MonoIO_GetFileStat_m678141354
wbc:__Z15CastclassSealedP12Il2CppObjectP11Il2CppClass
eWd:_Decimal_IsZero_m4250358244_AdjustorThunk
qUc:_UnmanagedMemoryStream_get_CanRead_m3770815400
tGb:__ZN16ReflectionProbes40UpdateRealtimeReflectionProbesTimeslicedEv
WVd:_Decimal_u64_m3374804932
iEb:__Z34PrepareParametersCullShadowCastersRK11ActiveLightRK14ShadowCullDataR22SceneCullingParametersR13ShadowedLight
P_a:__ZNK30RuntimeInitializeOnLoadManager22GetTypeVirtualInternalEv
F3f:__ZN15dense_hashtableINSt3__24pairIK10KeyWrapperIN6il2cpp5utils13dynamic_arrayIPK10Il2CppTypeLj4EEEEPFvvEEESA_NS3_8metadata19Il2CppSignatureHashEN14dense_hash_mapISA_SD_SG_NSA_14EqualsComparerINSF_22Il2CppSignatureCompareEEENS0_9allocatorISE_EEE9SelectKeyESK_SM_E12resize_deltaEjj
vQb:__ZN16ReflectionProbes15InitializeClassEv
NFe:_Dictionary_2_Do_ICollectionCopyTo_TisKeyValuePair_2_t3699644050_m4159638770_gshared
nrg:__ZN6il2cpp2vm5Image9GetCorlibEv
xvg:__ZN6il2cpp2vm11MethodStack17GetStackFramesRawEv
EDg:_GC_reclaim_uninit
SW:__ZN13RuntimeStaticINSt3__23mapIN4core12basic_stringIcNS2_20StringStorageDefaultIcEEEES6_NS0_4lessIS6_EE13stl_allocatorINS0_4pairIKS6_S6_EEL18MemLabelIdentifier13ELi16EEEELb0EE13StaticDestroyEPv
Qbd:_MD5CryptoServiceProvider_ProcessFinalBlock_m2241588515
kj:_glIsVertexArray
grc:_SmallXmlParser_Read_m3485223434
OJc:_Int16_Parse_m2276856944
ea:invoke_fff
xLg:_mbsinit
IQg:b14
JQg:b15
Kia:__ZN6prcoreL12RemapGenericI17TexFormatARGB155517TexFormatRGBA8888EEvPKNS_9InnerInfoE
R0f:__ZN13Il2CppHashMapIPK19Il2CppGenericMethodPK26Il2CppGenericMethodIndicesN6il2cpp8metadata23Il2CppGenericMethodHashENS7_26Il2CppGenericMethodCompareENSt3__29allocatorINSA_4pairIK10KeyWrapperIS2_ES5_EEEEEC2EjRKS8_RKS9_
gic:_TypeBuilder_HasElementTypeImpl_m1871001960
PLd:_SecurityFrame__ctor_m2140076703_AdjustorThunk
Jma:__ZN7ApiGLES13CreateProgramEv
Gde:_Enumerator_VerifyState_m4003066746_gshared
Kga:__ZN4crnd12crn_unpackerD2Ev
xj:_emscripten_glTexImage2D
Oce:_Comparer_1_System_Collections_IComparer_Compare_m2537217645_gshared
VJ:__ZN18ScriptingArguments9AddStringEPKc
YDg:_setup_header
hzc:_Char_ToString_m3588025615
gOg:runPostSets
osd:_CryptoConvert_ToCapiKeyBlob_m3371450375
Sha:__ZL23stbir__resize_arbitraryPvPKviiiS_iiiffffPfiij14stbir_datatype12stbir_filterS4_10stbir_edgeS5_16stbir_colorspace
odb:__Z18Transfer_BlittableI24GenerateTypeTreeTransferLb1E8Vector4fEvRK29SerializationCommandArgumentsR31RuntimeSerializationCommandInfo
Ij:_pthread_detach
L6f:__ZN6il2cpp2vm19SocketPollingThread7RunLoopEv
gmb:__ZNSt3__213__stable_sortIRN10vector_mapI17ScriptingClassPtrPKN5Unity4TypeENS_4lessIS2_EENS_9allocatorINS_4pairIS2_S6_EEEEE13value_compareENS_11__wrap_iterIPSB_EEEEvT0_SJ_T_NS_15iterator_traitsISJ_E15difference_typeEPNSM_10value_typeEi
Zod:_SimpleCollator_FillSurrogateSortKeyRaw_m725998232
ayd:_IPAddress_Equals_m1823478787
sfd:_Context_CreateNewContext_m3053563976
q4:__ZN9ShaderLab25SerializedTextureProperty8TransferI24GenerateTypeTreeTransferEEvRT_
Agg:__ZN6il2cpp2gc19AppendOnlyGCHashMapINSt3__24pairIPK14Il2CppAssemblyP11Il2CppClassEEP24Il2CppReflectionAssembly17ReflectionMapHashIS9_ENS2_8equal_toIS9_EEEC2Ev
$fb:__Z18Transfer_BlittableI19StreamedBinaryWriteILb0EELb0EdEvRK29SerializationCommandArgumentsR31RuntimeSerializationCommandInfo
t4:__ZN11NamedObject8TransferI18StreamedBinaryReadILb0EEEEvRT_
y5e:_InvokableCall_remove_Delegate_m1376110510
yDc:_Hashtable_Clear_m3112193608
Coe:_UTF8Encoding_InternalGetByteCount_m771565606
L$b:__Z18Transfer_BlittableI8JSONReadLb1EyEvRK29SerializationCommandArgumentsR31RuntimeSerializationCommandInfo
kQe:_List_1_System_Collections_IList_Remove_m3654336679_gshared
TQf:__ZL51GUILayer_t2783472903_CustomAttributesCacheGeneratorP21CustomAttributesCache
dk:_emscripten_glMatrixMode
SLd:_SecurityFrame_get_Assembly_m2874566710
b2d:_Guid__ctor_m3562600567_AdjustorThunk
qB:__ZN11UnityEngine15CloudWebService14DataDispatcher16PrepareDataBlockERNS0_16SessionContainerE
qra:__ZN18GfxFramebufferGLES5ClearE13GfxClearFlagsRK10ColorRGBAffib
QBe:_MonoProperty_StaticGetterAdapterFrame_TisRuntimeObject_m4131530968_gshared
Kkb:__ZL26Transfer_SimpleNativeClassI18StreamedBinaryReadILb0EE10RectOffsetLb0EEvRK29SerializationCommandArgumentsR31RuntimeSerializationCommandInfo
V8d:_InternalEnumerator_1_get_Current_m2316281569_gshared
Cxb:__ZL12DepthPassJobPN21GfxDeviceAsyncCommand10ArgScratchEPKNS_3ArgE
E2:__ZNSt3__26vectorIN9ShaderLab20SerializedSubProgram16TextureParameterENS_9allocatorIS3_EEE6assignINS_11__wrap_iterIPS3_EEEENS_9enable_ifIXaasr21__is_forward_iteratorIT_EE5valuesr16is_constructibleIS3_NS_15iterator_traitsISC_E9referenceEEE5valueEvE4typeESC_SC_
eXb:__ZN5Unity9rapidjson6WriterI16TempBufferWriterNS0_4UTF8IcEES4_13JSONAllocatorE11WriteDoubleEd
iqe:_Thread_SetCachedCurrentUICulture_m1729523031
ZNb:__Z13RegisterClassI19LowerResBlitTextureEvv
N1c:_ClientContext_set_ClientHelloProtocol_m4189379912
bm:FUNCTION_TABLE_iiiiiiiiiiii
zDa:__ZN16GraphicsSettingsD0Ev
n:cttz_i8
BWf:_AudioListener_INTERNAL_CALL_ReadExtensionPropertyName_m330480156
iIc:_Convert_ToUInt16_m867476252
al:_emscripten_glViewport
jAg:__ZN6il2cpp6icalls8mscorlib6System15MonoCustomAttrs17IsDefinedInternalEP12Il2CppObjectP20Il2CppReflectionType
god:_MSCompatUnicodeTable_Category_m1834196420
eZa:__ZN14PlayerSettings23VirtualRedirectTransferER18StreamedBinaryReadILb0EE
KYd:_Double_CompareTo_m3151899116
dJg:__ZN6il2cpp2os5Event5ResetEv
PCb:__Z26CombineDepthNormalsTextureRK17RenderLoopContextR13dynamic_arrayI16RenderObjectDataLj4EE
_sg:__ZN6il2cpp8metadata15GenericMetadata17InflateParametersEPK13ParameterInfohPK20Il2CppGenericContextb
ABa:__ZN6Camera13AwakeFromLoadE17AwakeFromLoadMode
JIe:_TlsStream_Write_m188217214
Jpb:__Z25SetNeedToPerformRenderingb
ewe:_UInt64_System_IConvertible_ToInt32_m949522652_AdjustorThunk
ioe:_UTF7Encoding_Equals_m227704363
Rxb:__ZN14qsort_internal30FindAndMovePivotToLastPositionIP15RODataDepthPassi17ROSorterDepthPassEEvT_S4_T0_T1_
CFb:__ZN12CullingGroup10SendEventsEPK17CullingGroupEventj
f1d:_NumberFormatInfo_get_PerMilleSymbol_m1360140831
M9e:_SetupCoroutine_InvokeMember_m2661944898
aH:__ZThn32_NK8Renderer8GetLayerEv
_Jc:_Int32_ValidDigit_m1059003769
MVg:_emscripten_glTexParameterfv__wrapper
x7a:__Z18Transfer_BlittableI14SafeBinaryReadLb1E9BoundsIntEvRK29SerializationCommandArgumentsR31RuntimeSerializationCommandInfo
_jg:_il2cpp_method_get_param_count
vTb:__ZN10systeminfo19ISOToSystemLanguageERN4core12basic_stringIcNS0_20StringStorageDefaultIcEEEE
sfg:__ZNK15dense_hashtableINSt3__24pairIK10KeyWrapperINS1_IPK12PropertyInfoP11Il2CppClassEEEjEES9_17ReflectionMapHashIS8_EN14dense_hash_mapIS9_jSD_NS9_14EqualsComparerINS0_8equal_toIS8_EEEENS0_9allocatorISB_EEE9SelectKeyESI_SK_E3endEv
Twe:_UnauthorizedAccessException__ctor_m40101894
PYd:_Double_Parse_m4153729520
GOa:__ZN16LightmapSettings8TransferI14SafeBinaryReadEEvRT_
R7:__ZN17BufferManagerGLES13ReleaseBufferEP14DataBufferGLES
P0c:_CipherSuite_Write_m1172814058
BTc:_SynchronizedWriter_Write_m301917713
$T:__ZN9profiling6MarkerC2EPKc13ProfilerGroupNS0_5FlagsE
I$b:__Z18Transfer_BlittableI8JSONReadLb1EjEvRK29SerializationCommandArgumentsR31RuntimeSerializationCommandInfo
gte:_Type_internal_from_handle_m3156085815
wjf:__Z117RuntimeInvoker_Void_t1185182177_RuntimeObject_Int32_t2950945753_Int32_t2950945753_Int32_t2950945753_Int32_t2950945753PFvvEPK10MethodInfoPvPS4_
Kn:stackSave
MD:__ZN5Unity9rapidjson15GenericDocumentINS0_4UTF8IcEE13JSONAllocatorNS0_12CrtAllocatorEE6StringEPKcjb
_hf:__Z77RuntimeInvoker_Void_t1185182177_Int64_t3736567304_ResourceInfoU26_t1611441338PFvvEPK10MethodInfoPvPS4_
oWa:__ZN14SpriteRenderer23VirtualRedirectTransferER24GenerateTypeTreeTransfer
Ysg:__ZNK15dense_hashtableI10KeyWrapperIP18Il2CppGenericClassES3_N6il2cpp8metadata22Il2CppGenericClassHashEN14dense_hash_setIS3_S6_NS3_14EqualsComparerINS5_25Il2CppGenericClassCompareEEENSt3__29allocatorIS3_EEE8IdentityESA_SD_E12test_deletedERK30dense_hashtable_const_iteratorIS3_S3_S6_SF_SA_SD_E
CFc:_Console_Open_m3077673205
iLe:_X509StoreManager_get_CurrentUser_m4040993045
$Gb:__ZN6Camera9SetAspectEf
fBe:_Array_InternalArray__IndexOf_TisDateTime_t3738529785_m2463359116_gshared
wJe:_PKCS12_Decode_m163534693
cXg:_emscripten_glBindVertexArray__wrapper
t1e:_Parser_IsECMAScript_m674158805
qCe:_Array_InternalArray__ICollection_Add_TisMonoResource_t4103430009_m2699164149_gshared
IAa:__ZN9Transform37InitializeTransformHierarchyRecursiveER18TransformHierarchyRii
era:__ZN26SinglePassStereoSupportExt23SetupStereoMatrixParamsE21MonoOrStereoscopicEye24BuiltinShaderMatrixParamRK10Matrix4x4f
M8b:__ZNK25UnityWebRequestJavaScript16GetUploadedBytesEv
tz:__Z46AudioListener_CUSTOM_GetNumExtensionPropertiesP12Il2CppObject
uJa:__ZN19ShaderPropertySheet38CopyTextureWithAuxiliaryPropertiesFromERKN9ShaderLab16FastPropertyNameERKS_
sBe:_Array_InternalArray__IndexOf_TisMonoResource_t4103430009_m1351751258_gshared
Vba:__ZN13GfxDeviceGLES26SetRandomWriteTargetBufferEi15ComputeBufferID
XDg:_GC_split_block
Htb:__ZZ23InitPlayerLoopCallbacksvEN49EarlyUpdateResetFrameStatsAfterPresentRegistrator7ForwardEv
Ewe:_UInt64_ToString_m1529093114_AdjustorThunk
Voc:_TypeLibImportClassAttribute__ctor_m2302178978
Hpd:_Escape_t3294788190_marshal_pinvoke
rrg:__ZN6il2cpp2vmL36AddNestedTypesToNametoClassHashTableEP40Il2CppNameToTypeDefinitionIndexHashTablePKcRKNSt3__212basic_stringIcNS5_11char_traitsIcEENS5_9allocatorIcEEEEP11Il2CppClass
Uga:__ZN4crnd12crn_unpacker11unpack_dxt1EPPhjjj
iTb:__ZNK11ICallString6ToUTF8Ev
c$f:__ZN15dense_hashtableINSt3__24pairIK10KeyWrapperIPK22Il2CppGenericParameterEP11Il2CppClassEES6_N6il2cpp5utils11PointerHashIS4_EEN14dense_hash_mapIS6_S9_SE_NS6_14EqualsComparerINS0_8equal_toIS5_EEEENS0_9allocatorISA_EEE9SelectKeyESJ_SL_E15insert_noresizeERKSA_
Lfe:_Transform_1_Invoke_m2468053724_gshared
Sxb:__ZNSt3__211__sift_downIR17ROSorterDepthPassP15RODataDepthPassEEvT0_S5_T_NS_15iterator_traitsIS5_E15difference_typeES5_
tKa:__ZN18UnityPropertySheet11UnityTexEnvC2Ev
Qsc:_ArgumentException__ctor_m3200406061
MM:__ZN12FileAccessor4ReadEyyPvPy
mQd:_EncoderExceptionFallback__ctor_m3745979420
CGb:__ZN13RenderTexture9SetHeightEi
vhe:_Dictionary_2_OnDeserialization_m1254782141_gshared
_Je:_PKCS12_get_Keys_m2165478388
iog:__ZN6il2cpp6icalls8mscorlib6System2IO6MonoIO17GetFileAttributesEP12Il2CppStringPi
fbd:_HMACMD5__ctor_m3008609295
gTd:_DateTime__ParseAmPm_m3478436123
uK:__Z24scripting_class_get_name17ScriptingClassPtr
kSc:_Stream_WriteByte_m1519852120
AX:__ZN13RuntimeStaticI15GUIEventManagerLb0EE13StaticDestroyEPv
XVc:_ShortComparer_Compare_m1881262465
o9a:__Z29Transfer_Blittable_ArrayFieldI14SafeBinaryReadjEvRT_R9ArrayInfoRK23StaticTransferFieldInfo
xd:_emscripten_set_keydown_callback
qle:_EncoderReplacementFallback__ctor_m1483565116
JEd:_Interpreter_IsWordChar_m2858055765
vDc:_Hashtable_CopyTo_m2905447224
UM:__ZN12FileAccessorC2Ev
uzd:_AsnEncodedData_SubjectAltName_m4049949414
j9f:__ZN6il2cpp2vm7Runtime12GetConfigDirEv
TNe:_Enumerator_MoveNext_m1177880931_AdjustorThunk
x9e:_SendMouseEvents_SetMouseMoved_m2822596724
l9c:_CryptoConfig_MapNameToOID_m2044758263
Znb:__Z39WriteQueueForTransferSignatureIntoCacheRK31TransferFunctionScriptingTraitsRK24TransferRequestSignature17ScriptingClassPtrR23CachedSerializationDataRb
u0a:__ZN13RenderManager18UpdateAllRenderersEv
xme:_Encoding_get_UTF8UnmarkedUnsafe_m320312322
rqe:_Thread_Thread_free_internal_m333849022
umb:__Z27ClearCommonScriptingClassesR22CommonScriptingClasses
KFd:_CostDelegate_BeginInvoke_m2828452701
f3b:__ZN22BaseUnityConnectClient30OnEnteringStatePausedOrStoppedEv
afg:__ZN15dense_hashtableINSt3__24pairIK10KeyWrapperINS1_IPK12PropertyInfoP11Il2CppClassEEEjEES9_17ReflectionMapHashIS8_EN14dense_hash_mapIS9_jSD_NS9_14EqualsComparerINS0_8equal_toIS8_EEEENS0_9allocatorISB_EEE9SelectKeyESI_SK_E12resize_deltaEjj
GRd:_DateTime_ToUniversalTime_m1945318289
$zc:_ArrayList_ToArray_m3827492363
zwe:_UInt64_Parse_m819899889
agc:_GenericTypeParameterBuilder_GetHashCode_m852224381
uIc:_Convert_ToUInt32_m1453583008
D$d:_CompareInfo_Compare_m894311506
qAa:__Z24MergeTransformComponentsR9TransformS0_b
Y2f:__ZNK15dense_hashtableI10KeyWrapperIPK19Il2CppGenericMethodES4_N6il2cpp8metadata23Il2CppGenericMethodHashEN14dense_hash_setIS4_S7_NS4_14EqualsComparerINS6_26Il2CppGenericMethodCompareEEENSt3__29allocatorIS4_EEE8IdentityESB_SE_E10test_emptyEj
lAg:__ZN6il2cpp2vm13ComObjectBase19GetRuntimeClassNameEPP15Il2CppHString__
ij:_emscripten_glVertexAttribPointer
Mqb:__ZN14PreloadManager26UpdatePreloadingSingleStepENS_21UpdatePreloadingFlagsEi
wod:_SimpleCollator__ctor_m1587210019
qIc:_Convert_ToUInt16_m1480956416
ria:__ZN6prcoreL25inner_stretch_i8_bilinearEPKNS_9InnerInfoE
O1a:__ZL30RegisterFilteredObjectCallbackPP12Il2CppObjectiPv
mUf:__ZL54AudioSource_t3935305588_CustomAttributesCacheGeneratorP21CustomAttributesCache
crb:__Z19InitializeGfxDevicev
MB:__ZN11UnityEngine15CloudWebService16SessionContainer24GetSessionHeaderJsonDataERKN4core12basic_stringIcNS2_20StringStorageDefaultIcEEEERNS2_13StringBuilderE
mX:__ZN13RuntimeStaticI21AssetReferenceStorageLb0EE13StaticDestroyEPv
p8c:_SByte_System_IConvertible_ToType_m4075253447_AdjustorThunk
DEe:_Array_InternalArray__set_Item_TisKeyValuePair_2_t2530217319_m258011711_gshared
bwg:__ZN6il2cpp6icalls8mscorlib6System9AppDomain22InternalGetProcessGuidEP12Il2CppString
ldf:__Z48RuntimeInvoker_RuntimeObject_Decimal_t2948259380PFvvEPK10MethodInfoPvPS4_
Owa:__ZNK17FileSystemHandler10IsReadOnlyERK13FileEntryData
Ldb:__Z18Transfer_BlittableI24GenerateTypeTreeTransferLb1EjEvRK29SerializationCommandArgumentsR31RuntimeSerializationCommandInfo
a$f:__ZN6il2cpp2os12FastAutoLockD2Ev
uS:__ZN11ColorRGBA328TransferI14SafeBinaryReadEEvRT_
xTe:_Collection_1_Add_m1736908447_gshared
F_a:__ZN15ResourceManager10Dependency8TransferI24GenerateTypeTreeTransferEEvRT_
Ebd:_MACTripleDES_HashFinal_m3613553534
Goe:_UTF8Encoding_InternalGetBytes_m1965760031
$e:_emscripten_glClearDepth
MPa:__ZN14SafeBinaryRead21TransferSTLStyleArrayINSt3__26vectorIN15QualitySettings14QualitySettingENS1_9allocatorIS4_EEEEEEvRT_17TransferMetaFlags
EYa:__ZNSt3__26vectorINS_4pairIPKN5Unity4TypeE7Hash128EENS_9allocatorIS7_EEE8__appendEj
Hwg:__GLOBAL__sub_I_LibraryLoader_cpp
BTb:__Z13IsPathCreatedRKN4core12basic_stringIcNS_20StringStorageDefaultIcEEEE
Yha:__ZL22stbir__encode_scanlineP11stbir__infoiPvPfiii
foc:_ExternalException__ctor_m2877839282
H2b:__ZN20QuadTreeNodeRenderer13StaticDestroyEPv
IC:__ZN11UnityEngine15CloudWebService20WebRequestRestClient5AbortEv
F$e:_Regex_Matches_m2080913806
LOb:__ZN9Transform12CleanupClassEv
y$f:__ZN6il2cpp2vmL21SetupPropertiesLockedEP11Il2CppClassRKNS_2os12FastAutoLockE
uac:_OperatingSystem_Clone_m1122165140
z3:__ZNSt3__26vectorIN9ShaderLab19SerializedSubShaderENS_9allocatorIS2_EEE26__swap_out_circular_bufferERNS_14__split_bufferIS2_RS4_EE
mmg:__ZN6il2cpp2vmL24thread_cleanup_on_cancelEPv
$se:_Type_type_is_subtype_of_m1406623598
fpe:_Thread_get_CurrentThread_m4142136012
rFa:__Z30ProcessDynamicBatchGeometryJobP25DynamicVBOGeometryJobDataj
myb:__ZNSt3__27__sort4IRNS_6__lessI11CulledLightS2_EEPS2_EEjT0_S6_S6_S6_T_
pJ:__Z26scripting_object_get_class18ScriptingObjectPtr
p$a:__ZNSt3__26vectorIN4core12basic_stringIcNS1_20StringStorageDefaultIcEEEE13stl_allocatorIS5_L18MemLabelIdentifier13ELi16EEE7reserveEj
tad:_DSASignatureDeformatter__ctor_m2889130126
sCd:_X509ChainElementCollection__ctor_m3424079155
OYe:_LinkStack_Push_m3081279930
Pee:_Enumerator_MoveNext_m1107569389_gshared
EYe:_UnityEvent_3_GetDelegate_m1156357290_gshared
oyg:__ZN6il2cpp6icalls8mscorlib6System11Environment15internalGetHomeEv
gnc:_ResourceCacheItem_t51292791_marshal_pinvoke_cleanup
GG:__ZNK5Unity9Component7GetNameEv
E4e:_Native__cctor_m1435623442
Uve:_UInt64_System_IConvertible_ToByte_m1501504925_AdjustorThunk
k4c:_TlsClientHello_ProcessAsTls1_m2549285167
qQd:_EncoderExceptionFallback_Equals_m2760188920
PFd:_RIPEMD160Managed_HashCore_m2350629432
qv:__ZN4FMOD6System7releaseEv
Iwc:_Boolean_CompareTo_m3665076258
HNd:_String_Split_m3580120853
Ktd:_PrivateKeyInfo__ctor_m2811023496
pM:__Z18PathToAbsolutePathRKN4core12basic_stringIcNS_20StringStorageDefaultIcEEEE
Aha:__ZL13BlitImageImplR14ImageReferenceiiRKS_NS_10ColorSpaceENS_8BlitModeEb
Jja:__ZN6prcoreL17RemapGenericFloatI18TexFormatRGBAFloat17TexFormatRGBFloatEEvPKNS_9InnerInfoE
CSf:__ZL69PersistentCall_t3407714124_CustomAttributesCacheGenerator_m_ArgumentsP21CustomAttributesCache
vt:__ZN12AudioManager29ShutdownReinitializeAndReloadEv
$Ga:__ZN16ReflectionProbes28GetMinBakedCubemapResolutionEv
dUa:__ZN14BlendShapeData8TransferI14SafeBinaryReadEEvRT_
xzg:__GLOBAL__sub_I_String_cpp
$_f:__ZN15dense_hashtableINSt3__24pairIK10KeyWrapperIPK22Il2CppGenericParameterEP11Il2CppClassEES6_N6il2cpp5utils11PointerHashIS4_EEN14dense_hash_mapIS6_S9_SE_NS6_14EqualsComparerINS0_8equal_toIS5_EEEENS0_9allocatorISA_EEE9SelectKeyESJ_SL_E6insertERKSA_
SJe:_X509CertificateEnumerator__ctor_m85694331
vda:__ZN14DataBufferGLES16RecreateWithDataEjPKv
jO:__Z29GetGlobalAllowNameConversionsv
CDe:_Array_InternalArray__Insert_TisTableRange_t3332867892_m558285859_gshared
gIb:__ZN8Material8SetColorEN9ShaderLab16FastPropertyNameERK10ColorRGBAf
yVg:_glUniform3uiv__wrapper
pX:__ZN21AssetReferenceStorageC2Ev
CDc:_Hashtable_Remove_m4032631466
TOg:dynCall_iiifiii
yK:__ZL41AssemblyNameMatchesWithOrWithoutExtensionPKcS0_
Ple:_Encoding_GetBytes_m3735967069
Xma:__ZN14GfxContextGLES43AddRenderSurfaceToDeferredFBOInvalidateListEPK17RenderSurfaceGLES
Nng:__ZN6il2cpp6icalls8mscorlib6System9Threading6Thread15Thread_internalEP12Il2CppThreadP14Il2CppDelegate
N7:__ZN11NamedObject23VirtualRedirectTransferER14SafeBinaryRead
Hua:__ZN23PreloadManagerOperation6IsDoneEv
s9f:__ZN6il2cpp2vm7Runtime15InvokeWithThrowEPK10MethodInfoPvPS5_
Pzg:__ZN6il2cpp5utils11StringUtils11Utf16ToUtf8ERKNSt3__212basic_stringIDsNS2_11char_traitsIDsEENS2_9allocatorIDsEEEE
D_c:_MD4Managed_Decode_m4273685594
Y0a:__ZN21LightProbeProxyVolume18HasHardwareSupportEv
lBb:__ZN26LightProbeProxyVolumeCacheC2ER13BatchRendererR15RenderLoopStats
mia:__ZN6prcoreL31inner_stretch_argb8888_bilinearEPKNS_9InnerInfoE
Lhb:__Z18Transfer_BlittableI18StreamedBinaryReadILb1EELb1E8BitFieldEvRK29SerializationCommandArgumentsR31RuntimeSerializationCommandInfo
uMc:_Int64_System_IConvertible_ToChar_m1509243576_AdjustorThunk
cJe:_GeneralNames_get_IPAddresses_m4242915644
nEg:_GC_init_size_map
DCa:__Z20scripting_object_new17ScriptingClassPtr
Xtd:_KeyGeneratedEventHandler_Invoke_m2527485594
nAd:_X509Extension_set_Critical_m1180944253
gVd:_Decimal__ctor_m1925875020_AdjustorThunk
wmd:_SerializationCallbacks__ctor_m3863304525
P:Math_exp
tn:FUNCTION_TABLE_iiifi
Mvg:__ZN6il2cpp2os5posix13PosixAutoLockD2Ev
YUf:_SymmetricTransform_OFB_m3690147804
tnb:__ZN13MonoBehaviour9SetScriptERK4PPtrI10MonoScriptE18ScriptingObjectPtr
Zva:__ZNK10FileSystem16LastErrorMessageEv
TKd:_SecurityException__ctor_m1631242336
$0f:__ZN15dense_hashtableINSt3__24pairIK10KeyWrapperIPK11Il2CppClassEPKcEES6_N6il2cpp5utils11PointerHashIS3_EEN14dense_hash_mapIS6_S9_SE_NS6_14EqualsComparerINS0_8equal_toIS5_EEEENS0_9allocatorISA_EEE9SelectKeyESJ_SL_E14squash_deletedEv
p9b:__ZN22UnityWebRequestManager10InitializeEv
Kmb:__ZN13MonoBehaviour13AwakeFromLoadE17AwakeFromLoadMode
Sbb:__ZL26Transfer_SimpleNativeClassI17RemapPPtrTransfer8GradientLb1EEvRK29SerializationCommandArgumentsR31RuntimeSerializationCommandInfo
OSb:__Z21UnsignedInt64ToStringy
PZe:_PatternCompiler_BeginLink_m1295557963
bBa:__ZN14SafeBinaryRead21TransferSTLStyleArrayI13dynamic_arrayI17SortingLayerEntryLj4EEEEvRT_17TransferMetaFlags
UIc:_GuidParser_ThrowFormatException_m3223388534
c1e:_Group_GetAnchorInfo_m3730312864
sse:_TimeSpan_op_LessThanOrEqual_m300470010
uFd:_Interval_Merge_m3454211016_AdjustorThunk
kZ:__ZZN15DirectorManager15InitializeClassEvEN41FixedUpdateDirectorFixedUpdateRegistrator7ForwardEv
nRc:_MemoryStream_get_Position_m3733941202
NWg:_glLinkProgram__wrapper
I3a:__ZN18ScriptingArguments8AddInt64Ex
Wia:__ZN6prcoreL12RemapGenericI17TexFormatARGB888815TexFormatBGR888EEvPKNS_9InnerInfoE
n4a:__ZN12HandlerChain4LockER13FileEntryData12FileLockMode
M1d:_TextInfo_get_ListSeparator_m1628160079
ope:_EventWaitHandle_Reset_m3348053200
b7b:__ZN28UnityConnectScriptingClasses23CallSessionStateChangedEixxbP21ScriptingExceptionPtr
eqg:__ZN6il2cpp6icalls8mscorlib6System13Globalization11CultureInfo35construct_internal_locale_from_nameEP17Il2CppCultureInfoP12Il2CppString
_db:__ZL22Transfer_ManagedObjectI24GenerateTypeTreeTransferLb1EEvRK29SerializationCommandArgumentsR31RuntimeSerializationCommandInfo
Svb:__ZN15RenderNodeQueueC2E10MemLabelId
bnc:_ResourceEnumerator_FillCache_m1661715061
kIf:__ZL72SecuritySafeCriticalAttribute_t3505979402_CustomAttributesCacheGeneratorP21CustomAttributesCache
qj:_emscripten_set_main_loop_timing
jIc:_Convert_ToUInt16_m3523269149
Rea:__ZN14DataBufferGLES12RecordRenderEv
VHe:_TlsException__ctor_m596254082
PHb:__ZN14ImageReference10FlipImageYEv
wN:__ZN21ScalableBufferManager20GetHeightScaleFactorEv
Hq:__ZN4FMOD3DSP9setBypassEb
vLb:__Z19NormalizeWheelInputf
b$e:_Repetition__ctor_m1672362629
J1b:__Z29Transfer_Blittable_ArrayFieldI8JSONReadhEvRT_R9ArrayInfoRK23StaticTransferFieldInfo
WLd:_SecurityFrame_ToString_m339310712_AdjustorThunk
aic:_TypeBuilder_create_runtime_class_m2581270900
X5d:_InternalEnumerator_1_get_Current_m3008260692_gshared
NIg:__ZN6il2cpp2os20ThreadLocalValueImpl8SetValueEPv
fDa:__ZN22RenderingCommandBuffer20CleanupCommandBufferEv
aXd:_Decimal_op_Implicit_m2299919277
yYb:__Z18Transfer_BlittableI9JSONWriteLb1EtEvRK29SerializationCommandArgumentsR31RuntimeSerializationCommandInfo
jUc:_UnexceptionalStreamReader_ReadToEnd_m920589220
CRd:_DateTime_System_IConvertible_ToType_m1242864300
Kj:___syscall85
Xvb:__ZNSt3__26__sortIRPFbP10GUIElementS2_EPS2_EEvT0_S7_T_
Hdc:_ConstructorBuilder_GetILGenerator_m1750792206
yQd:_EncoderFallback_get_ReplacementFallback_m818398284
Dwg:__ZN6il2cpp2os6Thread19DetachCurrentThreadEv
v$f:__ZN6il2cpp2vmL21SetupInterfacesLockedEP11Il2CppClassRKNS_2os12FastAutoLockE
ztd:_PKCS1_Sign_v15_m2719206817
K4e:_CullingGroup_Dispose_m782801025
IB:__ZN11UnityEngine15CloudWebService14DataDispatcher15SetupWebRequestEv
o4b:__ZN11UnityEngine15PlatformWrapper13GetShaderCapsEv
xDb:__ZNSt3__211__sift_downIR26RenderDeferredObjectSorterP16RenderObjectDataEEvT0_S5_T_NS_15iterator_traitsIS5_E15difference_typeES5_
Usd:_KeyPairPersistence_get_MachinePath_m3812267291
qFc:_Stack_Peek_m2216191248
pRd:_DateTime_System_IConvertible_ToDecimal_m1044850612_AdjustorThunk
xSb:__ZN21FixedBehaviourManager6UpdateEv
hQ:__ZN19ShaderPropertySheet8SetFloatEN9ShaderLab16FastPropertyNameEfNS_8SetFlagsE
P$a:__ZN19RuntimeSceneManager24BeginIntegrateMainThreadEP10UnityScene
nxg:__ZNSt3__2plIcNS_11char_traitsIcEENS_9allocatorIcEEEENS_12basic_stringIT_T0_T1_EERKS9_S6_
kTc:_StringReader_CheckObjectDisposedException_m3796163530
a3:__ZN9ShaderLab20SerializedSubProgramaSERKS0_
zxc:_Byte_System_IConvertible_ToSingle_m324484566_AdjustorThunk
NWd:_Decimal_op_Explicit_m2848387298
w$f:__ZN6il2cpp2vmL24SetupTypeHierarchyLockedEP11Il2CppClassRKNS_2os12FastAutoLockE
DLb:__ZL11TextHandleriPK23EmscriptenKeyboardEventPv
jTg:_glBlendEquationSeparate__wrapper
JFg:__ZN6il2cpp6icalls8mscorlib6System8Security12Cryptography24RNGCryptoServiceProvider13RngInitializeEP11Il2CppArray
OXc:_NumberFormatter_NumberToString_m3906556024
Kib:__Z19TransferField_ArrayI18StreamedBinaryReadILb1EE27Converter_SimpleNativeClassI17AnimationCurveTplIfEEEvRK23StaticTransferFieldInfoR31RuntimeSerializationCommandInfoRT0_
ufa:__ZN18GfxFramebufferGLES22MakeCurrentFramebufferENS_7BuiltinE
FS:__ZN12CachedReader4ReadEPvj
Cpd:_SimpleCollator_MatchesForwardCore_m850743967
lAb:__Z24CalculateLightShadowFadeRK6CamerafffR8Vector4f
UV:__ZN19RuntimeSceneManagerD2Ev
c$d:_CCGregorianCalendar_GetMonth_m1547203696
YC:__ZN11UnityEngine15CloudWebService25WebRequestDownloadHandler17OnCompleteContentEv
lia:__ZN6prcore17GetIntegerBlitterE13TextureFormatS0_N14ImageReference8BlitModeE
oeg:__ZN6il2cpp2gc19AppendOnlyGCHashMapINSt3__24pairIPK11Il2CppImageP11Il2CppClassEEP22Il2CppReflectionModule17ReflectionMapHashIS9_ENS2_8equal_toIS9_EEE11TryGetValueERKS9_PSB_
uU:__ZNSt3__26__treeI19RepeatingLogMessageNS_4lessIS1_EE13stl_allocatorIS1_L18MemLabelIdentifier73ELi16EEE12__find_equalIS1_EERPNS_16__tree_node_baseIPvEESD_RKT_
iz:__ZN11AudioSource18IsPlayingScriptingEv
Msd:_KeyBuilder_IV_m2230195376
aSg:_glShaderSource__wrapper
Qxa:__ZN25MultiBlocksMemoryFileData17AdjustBlocksCountEj
xng:__ZNSt3__214__split_bufferIN6il2cpp2vm22EmbeddedResourceRecordERNS_9allocatorIS3_EEED2Ev
nVb:__Z27CullingGroup_CUSTOM_DisposeP12Il2CppObject
fng:__ZN6il2cpp6icalls8mscorlib6SystemL23CheckWideningConversionEjjj
B7b:__ZNSt3__26vectorIP19BaseConnectSettings13stl_allocatorIS2_L18MemLabelIdentifier6ELi16EEE21__push_back_slow_pathIKS2_EEvRT_
Cvb:__ZN13ComputeShader15SetTextureParamEjRKN9ShaderLab16FastPropertyNameE9TextureID16TextureDimension
Sl:_glStencilMask
bxg:__ZN6il2cpp2os10ThreadImpl16GetCurrentThreadEv
xLb:__ZN15GUIEventManager10QueueEventERK10InputEvent
Pnc:_DecimalConstantAttribute__ctor_m3583301917
oDg:_GC_push_conditional_with_exclusions
nde:_Enumerator_System_Collections_IDictionaryEnumerator_get_Entry_m2772123357_AdjustorThunk
Yhd:_MethodCallDictionary__ctor_m2167303393
hnf:__Z109RuntimeInvoker_Void_t1185182177_RuntimeObject_RuntimeObject_SByte_t1669577662_Int32_t2950945753_RuntimeObjectPFvvEPK10MethodInfoPvPS4_
kHa:__ZN14RenderSettings27UpdateIndirectSpecularColorEv
FZa:__ZN14PlayerSettings8TransferI18StreamedBinaryReadILb0EEEEvRT_
m8f:__ZN6il2cpp6icalls8mscorlib6System8MonoType16GetMethodsByNameEP20Il2CppReflectionTypeP12Il2CppStringibS5_
Hpe:_Monitor_Monitor_wait_m3706677354
Acd:_RijndaelTransform__cctor_m2439033240
Urb:__ZNSt3__27__sort3IRNS_4lessIN22BuiltinResourceManager8ResourceEEEPS3_EEjT0_S7_S7_T_
eze:_Array_InternalArray__ICollection_Remove_TisMonoResource_t4103430009_m238733686_gshared
INc:_IntPtr_ToString_m1831665121
lVa:__ZN10BlendShape8TransferI19StreamedBinaryWriteILb0EEEEvRT_
zNc:__Z21il2cpp_codegen_sizeofP11Il2CppClass
ema:__Z19GetTimeSinceStartupv
Qdc:_ILGenerator_emit_int_m2322014738
DJa:__ZN9ShaderLab11shaderprops9GetTexEnvEPK19ShaderPropertySheetS3_NS_16FastPropertyNameE16TextureDimensionb
Fyb:__ZN29RenderNodeQueuePrepareContextC2Ev
Mjg:_il2cpp_gc_disable
m4:__ZN9ShaderLab20SerializedSubProgram16TextureParameter8TransferI24GenerateTypeTreeTransferEEvRT_
vad:_DSASignatureDeformatter_SetKey_m2999549245
hGg:__ZN6il2cpp2os11MutexHandle4WaitEb
F8:__ZN9GfxDevice19SaveStereoConstantsEv
gGg:__ZN6il2cpp2os11MutexHandle4WaitEj
TTb:__ZL34GetComponentsImplementationRecurseILb1ELi1ELi1EEbR10GameObjectbRK17CompareParametersRK39GetComponentsImplementation_ReturnValue
sff:__Z114RuntimeInvoker_Boolean_t97287965_RuntimeObject_RuntimeObject_Int32_t2950945753_Int32_t2950945753_Int32_t2950945753PFvvEPK10MethodInfoPvPS4_
ddc:_AssemblyBuilder_GetTypes_m3415680380
eka:__ZN6prcoreL17RemapGenericFloatI15TexFormatRGHalf18TexFormatARGBFloatEEvPKNS_9InnerInfoE
Zpb:__Z18SimulateMouseInputi
Tub:__ZN13RenderManager23AddRemoveCamerasDelayedEv
DZb:__ZN9JSONWrite8TransferI13dynamic_arrayIdLj8EEEEvRT_PKc17TransferMetaFlags
dXb:__ZN5Unity9rapidjson6WriterI16TempBufferWriterNS0_4UTF8IcEES4_13JSONAllocatorE11WriteUint64Ey
vvc:_BitConverter__cctor_m3841343255
aWd:_Decimal_Compare_m3062820418
BFd:_IntervalCollection_GetMetaCollection_m4029522214
ure:_TimeSpan__ctor_m2047388489_AdjustorThunk
BGb:__ZN13RenderTexture8SetWidthEi
TTe:_Collection_1_System_Collections_ICollection_CopyTo_m1516601228_gshared
pQ:__ZN9ShaderLab16FastPropertyName4InitEPKc
WNb:__Z13RegisterClassIN2UI13RectTransformEEvv
rRb:__ZL31MeshRendererTransformChangedJobP13BoundsJobDatajPK23TransformAccessReadOnlyPKyj
W3b:__ZN11UnityEngine15PlatformWrapper19GetPhysicalMemoryMBEv
iyc:_Char_System_IConvertible_ToByte_m2347554595_AdjustorThunk
LHa:__ZN13RenderTexture9SetMipMapEb
dPd:_String_CreateString_m860434552
GZ:__Z18GetDirectorManagerv
deg:__ZNK15dense_hashtableINSt3__24pairIK10KeyWrapperINS1_IPK10MethodInfoP11Il2CppClassEEEjEES9_17ReflectionMapHashIS8_EN14dense_hash_mapIS9_jSD_NS9_14EqualsComparerINS0_8equal_toIS8_EEEENS0_9allocatorISB_EEE9SelectKeyESI_SK_E5beginEv
wda:__ZN7ApiGLES19UploadBufferSubDataEjN2gl12BufferTargetEllPKv
S$:__ZNSt3__216__rotate_forwardINS_11__wrap_iterIPN4core12basic_stringIcNS2_20StringStorageDefaultIcEEEEEEEET_S9_S9_S9_
y9e:_SendMouseEvents_HitTestLegacyGUI_m579942228
VWc:_MulticastDelegate_Equals_m2502840627
HId:_SymmetricAlgorithm_set_KeySize_m3805756466
Fxc:_Byte_System_IConvertible_ToUInt32_m1049546902_AdjustorThunk
kof:__Z53RuntimeInvoker_Double_t594665363_Interval_t1802865632PFvvEPK10MethodInfoPvPS4_
dsb:__Z21InitializeBatchedJobsv
pHd:_SHA1Internal_ProcessBlock_m1991889327
U8a:__Z19TransferField_ArrayI14SafeBinaryRead27Converter_SimpleNativeClassI8GUIStyleEEvRK23StaticTransferFieldInfoR31RuntimeSerializationCommandInfoRT0_
yFe:_Array_Sort_TisRuntimeObject_TisRuntimeObject_m1685639929_gshared
SFg:__ZN6il2cpp5utils10MemoryPoolC2Ev
HGa:__ZN14RenderSettings5ResetEv
UMb:__ZN6Sprite9BindAtlasERK4PPtrI11SpriteAtlasE
lWb:__ZN5Unity9rapidjson12GenericValueINS0_4UTF8IcEE13JSONAllocatorE10FindMemberIS4_EENS0_21GenericMemberIteratorILb0ES3_S4_EERKNS1_IS3_T_EE
I9d:_InternalEnumerator_1_System_Collections_IEnumerator_get_Current_m3892960115_AdjustorThunk
epg:__ZNSt3__212basic_stringIDsNS_11char_traitsIDsEENS_9allocatorIDsEEE6appendEPKDsj
bAc:_ArrayList_Clone_m2682741233
$ad:_HMAC_HashCore_m3684104066
LWb:__ZN5Unity9rapidjson13GenericReaderINS0_4UTF8IcEES3_13JSONAllocatorE11ParseNumberILj1ENS0_25GenericInsituStringStreamIS3_EENS0_15GenericDocumentIS3_S4_S4_EEEEvRT0_RT1_
sWa:__ZN14SpriteRenderer14OnChangeSpriteEv
Nwg:__ZN6il2cpp2os10ThreadImplD2Ev
GXb:__ZN8Gradient8TransferI9JSONWriteEEvRT_
x0a:__ZN21RendererUpdateManager18OncePerFrameUpdateER13RendererScene
pua:__ZNK12TLSAllocatorI14StackAllocatorE22GetAllocatedMemorySizeEv
zO:__ZN17RemapPPtrTransfer12PushMetaFlagE17TransferMetaFlags
_3a:__ZN12HandlerChain4NameEv
AJc:_Int16_System_IConvertible_ToType_m3672347013_AdjustorThunk
FNb:__Z13RegisterClassI14RenderSettingsEvv
Hab:__Z29Transfer_Blittable_ArrayFieldI14SafeBinaryReadN4math12int3_storageEEvRT_R9ArrayInfoRK23StaticTransferFieldInfo
GLd:_SecurityException_ToString_m3228070608
kLc:_Int16_ToString_m2013897809
ILd:_String_Substring_m2848979100
z3b:__ZN11UnityEngine7Connect17XRDeviceInfoEvent12XRDeviceInfoD2Ev
W6a:__Z44InitializeTransferFunctionScriptingTraitsForI17RemapPPtrTransferEvR31TransferFunctionScriptingTraits
qOb:__ZNSt3__26vectorI16MessageForwarder13stl_allocatorIS1_L18MemLabelIdentifier7ELi8EEE6resizeEj
PBd:_X509Chain_SelectBestFromCollection_m1068759221
$Uf:_SymmetricTransform_TransformBlock_m851059707
Wvf:__ZL68IntPtr_t_CustomAttributesCacheGenerator_IntPtr_ToPointer_m4157623054P21CustomAttributesCache
KRe:_Enumerator_System_Collections_IEnumerator_Reset_m2261065994_AdjustorThunk
N$a:__ZN18LoadSceneOperation21MustCompleteNextFrameEv
mlc:_MonoMethodInfo_get_method_info_m88651774
dx:__ZNK12AudioManager16GetAudioListenerEv
xLc:_Int32_System_IConvertible_ToDateTime_m1824716955
Q7c:_RuntimeTypeHandle__ctor_m3315980708_AdjustorThunk
OEc:_SortedList_Add_m810900317
gLe:_X509Chain_get_TrustAnchors_m2434696767
Xqe:_Scheduler_ShrinkIfNeeded_m820085397
MTe:_Collection_1_set_Item_m3534473787_gshared
vM:__Z13GetFileSystemv
GW:__ZNK5Unity4Type21FindAllDerivedClassesER13dynamic_arrayIPKS0_Lj4EENS0_17TypeFilterOptionsE
zX:__ZN13RuntimeStaticI15GUIEventManagerLb0EE16StaticInitializeEPv
mXa:__ZN14SafeBinaryRead8TransferIfEEvRT_PKc17TransferMetaFlags
wxe:_Version_CompareTo_m3146217210
V3c:_TlsClientCertificate_FindParentCertificate_m3844441401
wWa:__ZThn32_N14SpriteRenderer15AddAsRenderNodeER15RenderNodeQueueRK20DeprecatedSourceData
_se:_Type_get_IsSystemType_m624798880
o6a:__ZN19ShaderPropertySheet9SetMatrixEN9ShaderLab16FastPropertyNameERK10Matrix4x4fNS_8SetFlagsE
JNa:__Z29GetTextureSizeAllowedMultiple13TextureFormat
UVd:_Decimal_Subtract_m835601464
UBe:_Array_InternalArray__ICollection_Add_TisBoolean_t97287965_m1361760099_gshared
sre:_TimeSpan__ctor_m3689759052_AdjustorThunk
Yig:_il2cpp_array_element_size
Duf:__ZL62ComVisibleAttribute_t1362837655_CustomAttributesCacheGeneratorP21CustomAttributesCache
nf:_glCheckFramebufferStatus
UBc:_BitArrayEnumerator_get_Current_m4220391712
mbc:__Z37il2cpp_codegen_get_executing_assemblyPK10MethodInfo
LSe:_Collection_1_System_Collections_IList_Remove_m3686118478_gshared
Wxd:_IPAddress_get_ScopeId_m4237202723
f$e:_ExpressionCollection_get_Item_m3510736379
Loe:_UTF8Encoding_InternalGetCharCount_m82458470
uqg:__ZN14dense_hash_mapI10KeyWrapperIP14Il2CppIUnknownEjN6il2cpp5utils11PointerHashIS1_EENS3_14EqualsComparerINSt3__28equal_toIS2_EEEENS9_9allocatorINS9_4pairIKS3_jEEEEE15set_deleted_keyERSF_
Jgg:__ZN13Il2CppHashMapIPK14Il2CppAssemblyPK22Il2CppMonoAssemblyNameN6il2cpp5utils11PointerHashIS1_EENSt3__28equal_toIS2_EENSA_9allocatorINSA_4pairIK10KeyWrapperIS2_ES5_EEEEEC2EjRKS9_RKSC_
Bsc:_DelegatePInvokeWrapper_AppDomainInitializer_t682969308
SDa:__ZN5Light9SetupHaloEv
CL:__ZN8Remapper6RemoveEi
Ole:_Encoding_GetBytes_m3148649984
yGb:__ZN15ReflectionProbe17UseRendererResultEP13ProbeRenderer
tK:__Z32scripting_class_get_nested_types17ScriptingClassPtrRNSt3__26vectorIS_13stl_allocatorIS_L18MemLabelIdentifier1ELi16EEEE
_ve:_UInt64_System_IConvertible_ToDecimal_m806594027_AdjustorThunk
ide:_Enumerator_System_Collections_IEnumerator_get_Current_m361750367_AdjustorThunk
nkd:_RealProxy_InternalGetTransparentProxy_m1765012608
bQe:_List_1__ctor_m3395838871_gshared
sJe:_PKCS12__ctor_m1854440921
tFe:_Array_Resize_TisCustomAttributeNamedArgument_t287865710_m885566878_gshared
tNe:_Enumerator_System_Collections_IEnumerator_get_Current_m472556657_AdjustorThunk
PU:__ZN10MemoryPoolC2E10MemLabelIdbPKciii
_Eb:__Z40ProcessCameraIndexListIsNodeVisibleInOutRK22SceneCullingParametersPK9SceneNodePK4AABBR9IndexList
PEa:__ZN16GraphicsSettings8TransferI17RemapPPtrTransferEEvRT_
KUe:_ReadOnlyCollection_1_System_Collections_IList_Contains_m1327645028_gshared
Mzd:_X509BasicConstraintsExtension_Decode_m120598446
P4b:__ZN11UnityEngine7Connect13ConfigHandler12GetListenersERKN4core12basic_stringIcNS2_20StringStorageDefaultIcEEEE
aaa:__ZN9GfxDevice18AllocRenderSurfaceEb
ayc:_Char__cctor_m2787437263
gK:__ZL27CleanupCoreScriptingClassesv
RVb:__Z26AnimationCurve_CUSTOM_InitP12Il2CppObjectP11Il2CppArray
sVg:_glUniform1uiv__wrapper
ugg:__ZN6il2cpp2vm10Reflection7IsEventEP12Il2CppObject
VI:__ZN17PersistentManager26GetStreamNameSpaceInternalEi
ur:__ZN4FMOD6System11createSoundEPKcjP22FMOD_CREATESOUNDEXINFOPPNS_5SoundE
O2b:__ZN13SpeedTreeWind20AdvanceWithoutUpdateEd
oRd:_DateTime_System_IConvertible_ToDecimal_m1044850612
PPe:_List_1_IndexOf_m2206067159_gshared
sV:__ZN9ShaderLab19CommonPropertyNames13StaticCleanupEPv
WK:__Z31scripting_method_get_returntype18ScriptingMethodPtr
ZYf:__ZL24UnresolvedVirtualCall_76P12Il2CppObjectPK10MethodInfo
cPa:__ZN15SerializeTraitsI12LightmapDataE8TransferI24GenerateTypeTreeTransferEEvRS0_RT_
cKd:_SecurityElement_AddAttribute_m311510562
cSg:_glStencilOpSeparate__wrapper
dQa:__ZN7Texture13SetAnisoLimitENS_20AnisotropicFilteringE
Kx:__ZN11AudioModule16SetListenerPauseEb
lvc:_Attribute_IsDefined_m4069052474
hh:_emscripten_glCompressedTexSubImage2D
Mma:__ZN13GfxDeviceGLES22MemoryBarrierImmediateEyN2gl17MemoryBarrierTypeE
Qpg:__ZN6il2cpp6icalls8mscorlib6System4Type18internal_from_nameEP12Il2CppStringbb
ska:__ZN6prcoreL26RemapGenericFloatToIntegerI18TexFormatARGBFloat17TexFormatARGB8888EEvPKNS_9InnerInfoE
OTb:__Z46GetShaderModelNumericValueFromRequirementsMask18ShaderRequirements
Nie:_Dictionary_2_Resize_m3287623642_gshared
SBg:_GC_write
Wbd:_RC2_Create_m2516417038
fNc:_Int64_TryParse_m3606398488
bFe:_Array_InternalArray__set_Item_TisMark_t3471605523_m1299772331_gshared
p1b:__Z29Transfer_Blittable_ArrayFieldI8JSONRead10ColorRGBAfEvRT_R9ArrayInfoRK23StaticTransferFieldInfo
Tgb:__Z18Transfer_BlittableI18StreamedBinaryReadILb1EELb1EiEvRK29SerializationCommandArgumentsR31RuntimeSerializationCommandInfo
yff:__Z173RuntimeInvoker_Int32_t2950945753_RuntimeObject_Int32_t2950945753_Int32_t2950945753_Int32_t2950945753_RuntimeObject_Int32_t2950945753_SByte_t1669577662_ContextU26_t3937453398PFvvEPK10MethodInfoPvPS4_
ifg:__ZN15dense_hashtableINSt3__24pairIK10KeyWrapperINS1_IPK12PropertyInfoP11Il2CppClassEEEjEES9_17ReflectionMapHashIS8_EN14dense_hash_mapIS9_jSD_NS9_14EqualsComparerINS0_8equal_toIS8_EEEENS0_9allocatorISB_EEE9SelectKeyESI_SK_E12maybe_shrinkEv
shb:__Z18Transfer_BlittableI18StreamedBinaryReadILb1EELb1EsEvRK29SerializationCommandArgumentsR31RuntimeSerializationCommandInfo
dne:_StringBuilder_Remove_m940064945
Q9c:_DESCryptoServiceProvider_GenerateIV_m683687014
hQa:__ZL21SetAnisoLimitEnumImplN7Texture20AnisotropicFilteringEb
c3b:__ZN22BaseUnityConnectClient17OnEnterStateReadyEv
SOe:_List_1_System_Collections_IList_get_Item_m995551621_gshared
cDa:__ZN14GrowableBufferD2Ev
M8f:__ZN6il2cpp6icalls8mscorlib6System8MonoType16InternalGetEventEP20Il2CppReflectionTypeP12Il2CppStringi
M2e:_UriScheme_t722425697_marshal_pinvoke_back
exg:__ZN6il2cpp2osL23CleanupThreadIfCanceledEPv
jqd:_BigInteger_ToString_m3475000413
$Wa:__ZN19ShaderPropertySheet11ComputeHashEv
Z2f:__ZN30dense_hashtable_const_iteratorI10KeyWrapperIPK19Il2CppGenericMethodES4_N6il2cpp8metadata23Il2CppGenericMethodHashEN14dense_hash_setIS4_S7_NS4_14EqualsComparerINS6_26Il2CppGenericMethodCompareEEENSt3__29allocatorIS4_EEE8IdentityESB_SE_EppEv
HC:__ZN11UnityEngine15CloudWebService20WebRequestRestClient6IsDoneEv
mIe:_X509CertificateCollection_get_Item_m1033426577
ei:_llvm_fabs_f32
kC:__ZN11UnityEngine15CloudWebService16SessionContainer16GetJsonDataBlockEjRKN4core12basic_stringIcNS2_20StringStorageDefaultIcEEEERS6_PjSA_
Ard:_ASN1_Decode_m1695284166
xZd:_Enum_ToString_m3248653065
jJ:__ZN14SafeBinaryReadD2Ev
PNb:__Z13RegisterClassI7TextureEvv
Iib:__ZN8Gradient8TransferI18StreamedBinaryReadILb1EEEEvRT_
uDd:_Capture__ctor_m3103117740
fSa:__ZN4core8hash_mapINS_12basic_stringIcNS_20StringStorageDefaultIcEEEE13dynamic_arrayI4PPtrI6SpriteELj4EENS_4hashIS4_EENSt3__28equal_toIS4_EEEixERKS4_
wef:__Z113RuntimeInvoker_Void_t1185182177_RuntimeObject_Int64_t3736567304_RuntimeObject_Int64_t3736567304_Int64_t3736567304PFvvEPK10MethodInfoPvPS4_
r$f:__ZN6il2cpp2vmL17SetupEventsLockedEP11Il2CppClassRKNS_2os12FastAutoLockE
Gi:_SDL_PauseAudio
EDc:_Hashtable_Clone_m3078962909
tjg:_il2cpp_class_from_type
O9f:__ZN6il2cpp2os4File11GetStdErrorEv
rV:__ZN9ShaderLab19CommonPropertyNames16StaticInitializeEPv
yrb:__ZN17ShaderPassContext8CopyFromERKS_
ytc:_Array_GetLongLength_m561139708
QCe:_Array_InternalArray__ICollection_CopyTo_TisKeyValuePair_2_t3699644050_m2735311972_gshared
CSa:__ZN14Texture2DArray23VirtualRedirectTransferER14SafeBinaryRead
ZUc:_MissingMemberException__ctor_m1220732369
gAb:__ZNK6Camera21CalculateCanDoShadowsEv
wwg:__ZN6il2cpp2os6Thread12SetStackSizeEj
AGe:_Array_InternalArray__get_Item_TisRuntimeObject_m3347010206_gshared
pic:_TypeBuilder_IsSubclassOf_m3458909121
JI:__Z13VFormatBufferPciPKcz
Ojb:__Z18Transfer_BlittableI18StreamedBinaryReadILb0EELb1EhEvRK29SerializationCommandArgumentsR31RuntimeSerializationCommandInfo
g8e:_PlayableHandle_Equals_m1666612586_AdjustorThunk
wka:__ZN6prcoreL27StretchGenericFloatBilinearI15TexFormatRFloatEEvPKNS_9InnerInfoE
uOf:__ZL139ServicePointManager_t170559685_CustomAttributesCacheGenerator_ServicePointManager_t170559685____CheckCertificateRevocationList_PropertyInfoP21CustomAttributesCache
ys:__ZNK11AudioSource19GetFilterComponentsERNSt3__26vectorIPN4FMOD3DSPENS0_9allocatorIS4_EEEEb
zha:__Z14PadImageBorderR14ImageReferenceii
Kdg:__ZN15dense_hashtableINSt3__24pairIK10KeyWrapperINS1_IPK10MethodInfoP11Il2CppClassEEEjEES9_17ReflectionMapHashIS8_EN14dense_hash_mapIS9_jSD_NS9_14EqualsComparerINS0_8equal_toIS8_EEEENS0_9allocatorISB_EEE9SelectKeyESI_SK_E4findERSA_
h6f:__ZN6il2cpp2vm13MetadataCache28GetFieldDefaultValueForFieldEPK9FieldInfo
zSf:__ZL66PersistentCall_t3407714124_CustomAttributesCacheGenerator_m_TargetP21CustomAttributesCache
Bt:__ZN12AudioManager39HandlePendingAudioConfigurationCallbackEv
Dj:_emscripten_glIsFramebuffer
aud:_RSAManaged_EncryptValue_m799827583
pN:__ZN12_GLOBAL__N_16qAtan2Eff
Hj:_JS_Sound_SetLoopPoints
dY:__ZN15dense_hashtableINSt3__24pairIKyP17VertexDeclarationEEy14GfxGenericHashIyEN14GfxDoubleCacheIyS4_S7_NS0_8equal_toIyEEN31GfxDoubleCacheConcurrencyPolicy11LocklessGetE42GfxDoubleCacheDefaultEmptyDeletedGeneratorIyEE9SelectKeyESA_13stl_allocatorIS5_L18MemLabelIdentifier24ELi16EEE14squash_deletedEv
kx:__ZN12AudioManager17ShouldSourcePauseEb
rGg:__ZN6il2cpp2vm26MetadataAllocGenericMethodEv
pze:_Array_InternalArray__ICollection_Remove_TisUInt16_t2177724958_m1766181761_gshared
wqa:__ZN19ConstantBuffersGLES12RecordRenderEv
wZb:__ZN9JSONWrite8TransferI10RectOffsetEEvRT_PKc17TransferMetaFlags
eha:__ZN4crnd12symbol_codec11decode_bitsEj
mVf:_AesManaged_GenerateIV_m1368817386
iKc:_NumberFormatter_FastIntegerToString_m390846811
Ft:__ZN4FMOD6System12createReverbEPPNS_6ReverbE
U1a:__Z16MarkDependenciesR27GarbageCollectorThreadStatej
bkd:_RemotingServices_DisposeIdentity_m2605848806
BN:__ZNK9Transform11GetPositionEv
SIc:_GuidParser_Reset_m2640004655
LFa:__ZN23SharedMeshRenderingData18UnloadVertexStreamEi
ERb:__ZN19RenderEventsContextC2Ei
wA:__Z6simd4fRKf
jk:_emscripten_glEnable
E7d:_InternalEnumerator_1_System_Collections_IEnumerator_get_Current_m2982675020_gshared
YAa:__ZN10TagManager23VirtualRedirectTransferER14SafeBinaryRead
rza:__Z15Hash128ToStringRK7Hash128
RCb:__Z15InitLightMeshesv
Xjc:_MonoCMethod_ToString_m3992577062
Gm:FUNCTION_TABLE_iifiii
_Pa:__ZN15QualitySettings8TransferI19StreamedBinaryWriteILb0EEEEvRT_
JGe:_Array_InternalArray__get_Item_TisResourceCacheItem_t51292791_m1306056717_gshared
zG:__Z15CleanLogHandler7LogTypePKcz
BXc:_NumberFormatter_NumberToString_m2481532188
V4:__ZN9ShaderLab19SerializedSubShader8TransferI19StreamedBinaryWriteILb0EEEEvRT_
enb:__ZN6Camera17RemoveImageFilterERK11ImageFilter
A6:__ZNSt3__218__insertion_sort_3IR25ValueParameterArraySorterPN20GpuProgramParameters14ValueParameterEEEvT0_S6_T_
KCc:_Comparer__cctor_m3311686689
g7d:_InternalEnumerator_1_get_Current_m3500427238_AdjustorThunk
sU:__Z27LogRepeatingStringWithFlagsRKN4core12basic_stringIcNS_20StringStorageDefaultIcEEEE15LogMessageFlagsi
jwe:_UInt64_System_IConvertible_ToSingle_m925613075
KZd:_Enum_IsDefined_m1442314461
Zpe:_Thread__cctor_m817723615
bWf:_AudioExtensionManager_RegisterBuiltinDefinitions_m2742744104
jQd:_DecoderReplacementFallbackBuffer_Fallback_m1261056214
_vb:__ZNSt3__227__insertion_sort_incompleteIRPFbP10GUIElementS2_EPS2_EEbT0_S7_T_
Xbc:_Binder_get_DefaultBinder_m950908649
EPc:_StreamReader__ctor_m1616861391
V5b:__ZN18UnityConnectClient33OnPlayerSessionStateChangedStaticEPS_jyy
yGd:_RSA_ToXmlString_m2922661427
rD:__ZNK11UnityEngine15CloudWebService23WebRequestUploadHandler11GetProgressEv
eea:__ZN7ApiGLES4LoadE16GfxDeviceLevelGL
pPa:__ZN18StreamedBinaryReadILb0EE21TransferSTLStyleArrayI13dynamic_arrayI31EnlightenSystemAtlasInformationLj8EEEEvRT_17TransferMetaFlags
htg:__ZN15dense_hashtableI10KeyWrapperIP18Il2CppGenericClassES3_N6il2cpp8metadata22Il2CppGenericClassHashEN14dense_hash_setIS3_S6_NS3_14EqualsComparerINS5_25Il2CppGenericClassCompareEEENSt3__29allocatorIS3_EEE8IdentityESA_SD_E15insert_noresizeERKS3_
LQb:__ZZL31RegisterOtherRendererPropertiesR22GenericPropertyBindingEN30Wrapper_RendererReceiveShadows13GetFloatValueEPv
_xe:_Array_InternalArray__ICollection_Contains_TisSlot_t384495010_m688761886_gshared
INa:__ZN17SharedTextureDataC2E10MemLabelIdii13TextureFormatjiibb
lqb:__ZN8Material11SetPassFastEPN9ShaderLab4PassER17ShaderPassContextP6Shaderib
T5b:__ZN11UnityEngine7Connect20BasePersistentValues10SaveValuesER9JSONWrite
qRd:_DateTime_System_IConvertible_ToDouble_m2116720007
Ypc:_X509Certificate_PEM_m1177570576
f3d:_ArrayReadOnlyList_1_GetEnumerator_m1835926958_gshared
FX:__ZN22VirtualJoystickManagerC2Ev
fX:__ZN20GlobalCachingManager7DisposeEv
exb:__Z12SetupLODFadeR9GfxDeviceR17ShaderPassContextf
ECb:__ZL24CollectForwardObjectsJobP27CollectForwardObjectsHeader
zEb:__Z13IsNodeVisibleRK9SceneNodeRK4AABBRK22SceneCullingParameters
qBe:_Array_InternalArray__IndexOf_TisLabelFixup_t858502054_m1491765395_gshared
Yod:_SortKeyBuffer_AppendCJKExtension_m2591091991
zFb:__Z24ScheduleCullingAllGroupsR8JobFenceRK22SceneCullingParametersiRK13CullingOutputRK13dynamic_arrayIP12CullingGroupLj4EERKS_
pXg:_emscripten_glStencilMask__wrapper
kdf:__Z49RuntimeInvoker_Void_t1185182177_Double_t594665363PFvvEPK10MethodInfoPvPS4_
P2f:__ZN15dense_hashtableI10KeyWrapperIPK19Il2CppGenericMethodES4_N6il2cpp8metadata23Il2CppGenericMethodHashEN14dense_hash_setIS4_S7_NS4_14EqualsComparerINS6_26Il2CppGenericMethodCompareEEENSt3__29allocatorIS4_EEE8IdentityESB_SE_EC2ERKSH_j
YCa:__ZN15RenderNodeQueue7CleanupEv
Z1b:__ZN16NovodexAllocator8allocateEjPKcS1_i
wKa:__ZN39DeprecatedFastPropertyNameSerialization8TransferI14SafeBinaryReadEEvRT_
GJe:_DeriveBytes_DeriveIV_m973925711
ILc:_Int32_System_IConvertible_ToSByte_m3133688512
BCb:__ZN9ShaderLab10GrabPassesD2Ev
NSa:__ZN14Texture2DArray13UploadTextureEv
TJe:_DeriveBytes_DeriveMAC_m2121691743
Q$a:__ZN18AwakeFromLoadQueue25RegisterObjectInstanceIDsEv
wld:_BinaryCommon__cctor_m2978407547
gyc:_Char_System_IConvertible_ToByte_m2347554595
Nue:_UInt16_TryParse_m4139137016
rTg:_glGenRenderbuffers__wrapper
Ble:_Encoding__ctor_m2997749867
e7e:_ManagedStreamHelpers_ManagedStreamSeek_m3158782053
Y0e:_ExpressionAssertion_Compile_m2166597834
vMd:_Single_System_IConvertible_ToSByte_m1208276900_AdjustorThunk
NAg:__ZN6il2cpp6icalls8mscorlib6System7Convert24InternalFromBase64StringEP12Il2CppStringb
Org:__ZN30dense_hashtable_const_iteratorINSt3__24pairIK10KeyWrapperINS1_IPKcS4_EEEiEES6_24NamespaceAndNamePairHashN14dense_hash_mapIS6_iS9_NS6_14EqualsComparerI26NamespaceAndNamePairEqualsEENS0_9allocatorIS8_EEE9SelectKeyESD_SF_EppEv
Q1d:_TextInfo_ToLower_m2744057472
itb:__ZN17ArchiveFileSystem12MountArchiveEPKcS1_
BYb:__Z18Transfer_BlittableI9JSONWriteLb1E8Vector4fEvRK29SerializationCommandArgumentsR31RuntimeSerializationCommandInfo
Dm:FUNCTION_TABLE_viififiii
X_d:_CCGregorianCalendar_year_from_fixed_m463929682
B2c:_ClientSessionInfo__ctor_m2436192270
dH:__ZThn32_NK8Renderer14GetSubsetIndexEi
R4e:_Debug_get_unityLogger_m2239795986
s_c:_MD2Managed_Initialize_m2341076836
Vaa:__ZN9GfxDevice15ImmediateVertexEfff
xNb:__Z13RegisterClassI8MaterialEvv
AOa:__ZNK16LightmapSettings22GetTypeVirtualInternalEv
nGa:__ZN20SphericalHarmonicsL28TransferI18StreamedBinaryReadILb0EEEEvRT_
l8:__ZN13GfxDeviceGLES15SetStencilStateEPK18DeviceStencilStatei
DAg:__ZN6il2cpp2vm8Profiler7GCEventE13Il2CppGCEvent
Yef:__Z76RuntimeInvoker_Void_t1185182177_RuntimeObject_RuntimeFieldHandle_t1871169219PFvvEPK10MethodInfoPvPS4_
Wc:_emscripten_glUniform1iv
cng:__ZN6il2cpp6icalls8mscorlib6SystemL16ThrowInvalidCastEPK11Il2CppClassS5_
u5a:__ZN16MemoryFileSystemD2Ev
nff:__Z150RuntimeInvoker_Int32_t2950945753_RuntimeObject_Int32_t2950945753_Int32_t2950945753_RuntimeObject_Int32_t2950945753_Int32_t2950945753_Int32_t2950945753PFvvEPK10MethodInfoPvPS4_
yvc:_BitConverter_DoubleToInt64Bits_m3574395137
zZa:__ZN12AspectRatios8TransferI24GenerateTypeTreeTransferEEvRT_
lTc:_StringReader_Read_m3322058819
bdd:_CrossAppDomainChannel_get_ChannelPriority_m3418073750
WKb:__Z23ConvertIntegerToTypePtrItEbPvR14SafeBinaryRead
wXd:_Delegate_CombineImpl_m3572135514
sKc:_NumberFormatter_IntegerToString_m1679294587
BOd:_String_Remove_m562998446
ld:_emscripten_glStencilFunc
Pcc:__Z46il2cpp_codegen_get_marshal_directive_exceptionPKc
O6:__ZN9ShaderLab20SerializedSubProgram14AddMatrixParamEPKcii15ShaderParamTypei
sd:_glGetActiveUniformBlockName
Z5f:__ZN6il2cpp2vm13MetadataCache28GetGenericContainerFromIndexEi
H1a:__ZN27UnloadUnusedAssetsOperationD0Ev
Au:__ZN4FMOD7Channel20set3DConeOrientationEP11FMOD_VECTOR
vm:FUNCTION_TABLE_iiifii
cdc:_AssemblyBuilder_not_supported_m1735277432
pvg:__ZN6il2cpp2vm12GenericClass11SetupEventsEP11Il2CppClass
tu:__ZN4FMOD7Channel7setModeEj
Yqg:__ZN6il2cpp2vm15ReboxIReferenceEP14Il2CppIUnknownP11Il2CppClass
mXf:__ZN6il2cpp6icalls8mscorlib6System7Decimal14decimalCompareEP19il2cpp_decimal_reprS5_
iBg:__ZThn4_N6il2cpp2vm13CachedCCWBaseINS0_13ManagedObjectEE7ReleaseEv
kFf:__ZL62SoapMethodAttribute_t1935009310_CustomAttributesCacheGeneratorP21CustomAttributesCache
zof:__Z100RuntimeInvoker_Void_t1185182177_RuntimeObject_Int32_t2950945753_Int32_t2950945753_UInt16_t2177724958PFvvEPK10MethodInfoPvPS4_
sUg:_glCopyTexImage2D__wrapper
CYd:_Double_System_IConvertible_ToUInt32_m271206838
hT:__GLOBAL__sub_I_runtime_graphics_billboard_0_cpp
wqb:__Z18ClearByDrawingQuad13GfxClearFlagsRK10ColorRGBAffjR17ShaderPassContext
Vja:__ZN6prcoreL17RemapGenericFloatI14TexFormatRHalf15TexFormatRFloatEEvPKNS_9InnerInfoE
Vwb:__Z16ShouldUseShadowsb
CZ:__ZN15DirectorManager21RebuildStageCallbacksEv
Jqb:__ZN19RuntimeSceneManager9LoadSceneERKN4core12basic_stringIcNS0_20StringStorageDefaultIcEEEES6_S6_RK9UnityGUIDiNS_11LoadingModeE
lda:__ZN7ApiGLES10DrawArraysE16GfxPrimitiveTypejjj
Xr:__ZN10SampleClip13LoadBaseSoundEv
_zc:_ArrayList_Sort_m4234055499
Edc:_ConstructorBuilder_GetCustomAttributes_m2495332786
FJe:_DeriveBytes_DeriveKey_m2933043667
Fz:__Z57AudioSource_CUSTOM_INTERNAL_CALL_ClearExtensionPropertiesP12Il2CppObjectRK12PropertyName
Bug:__ZN15dense_hashtableINSt3__24pairIK10KeyWrapperIP12Il2CppObjectEN6il2cpp2gc9CachedCCWEEES5_NS7_5utils11PointerHashIS3_EEN14dense_hash_mapIS5_S9_SD_NS5_14EqualsComparerINS0_8equal_toIS4_EEEENS0_9allocatorISA_EEE9SelectKeyESI_SK_E15insert_noresizeERKSA_
Kje:_EqualityComparer_1__cctor_m3962593840_gshared
ALa:__ZN22DeviceMVPMatricesStateC2ER9GfxDevice
cn:FUNCTION_TABLE_iifii
bCc:_Comparer_Compare_m3984347512
HOa:__ZN21EnlightenSceneMapping8TransferI14SafeBinaryReadEEvRT_
rva:__ZNSt3__26__treeIiNS_4lessIiEE13stl_allocatorIiL18MemLabelIdentifier1ELi16EEE7destroyEPNS_11__tree_nodeIiPvEE
Aa:invoke_viiifi
Glc:_MonoProperty_GetCustomAttributes_m3619796755
bid:_MethodDictionary_System_Collections_IEnumerable_GetEnumerator_m4169036899
sva:__ZNK11AssetBundle14GetPreloadDataEiR13dynamic_arrayIiLj4EE
_Fd:_RIPEMD160Managed_JJJ_m4161373884
ije:_DefaultComparer_Equals_m3257444875_gshared
Be:_JS_Sound_SetPosition
BHa:__ZN19RenderBufferManager13GetTempBufferEii17DepthBufferFormat19RenderTextureFormatj22RenderTextureReadWrite14VRTextureUsagei23RenderTextureMemoryless
J5f:__ZL13GetSharedInstPK17Il2CppGenericInst
k3b:__ZN22BaseUnityConnectClient17SaveSessionValuesEv
j5d:_InternalEnumerator_1_get_Current_m476140818_gshared
HCb:__Z24SetupActiveLightsContextR21ActiveLightingContextRK12ActiveLightsRK11CullResultsP14ShadowMapCacheRK10MinMaxAABB
vhg:__ZNK15dense_hashtableINSt3__24pairIK10KeyWrapperIPK22Il2CppGenericParameterEPK24MonoGenericParameterInfoEES6_N6il2cpp5utils11PointerHashIS4_EEN14dense_hash_mapIS6_SA_SF_NS6_14EqualsComparerINS0_8equal_toIS5_EEEENS0_9allocatorISB_EEE9SelectKeyESK_SM_E3endEv
VBa:__ZN6Camera8TransferI24GenerateTypeTreeTransferEEvRT_
ya:invoke_iiiiiiif
va:invoke_iiiiiiii
xEe:_Array_InternalArray__set_Item_TisByte_t1134296376_m3104140039_gshared
_8e:_Rect_ToString_m447614148
iKe:_PKCS12_GetBytes_m415958948
ZFb:__ZN8Renderer17PendingAddToSceneEv
aOd:_String_CompareOrdinalCaseInsensitiveUnchecked_m2925624579
UJ:__Z21PostprocessStacktracePKcRN4core12basic_stringIcNS1_20StringStorageDefaultIcEEEE
f7e:_ManagedStreamHelpers_ManagedStreamLength_m2930872960
LZa:__ZN18StreamedBinaryReadILb0EE21TransferSTLStyleArrayI13dynamic_arrayI16SplashScreenLogoLj4EEEEvRT_17TransferMetaFlags
UIe:_BasicConstraintsExtension_Encode_m2009213240
hVb:__Z47Register_UnityEngine_Camera_get_allCamerasCountv
Kbc:___clang_call_terminate
n3b:__ZN22BaseUnityConnectClient20StartEventDispatcherEv
Bla:__ZL25ProgramUniformMatrix4x3fvPK7ApiGLESjiihPKv
uub:__ZN12InputManager13InputEndFrameEv
umg:__ZN6il2cpp2vm6Thread5SetupEP12Il2CppThread
Jee:_Enumerator_System_Collections_IDictionaryEnumerator_get_Key_m2500634048_gshared
NLg:___munmap
tf:_localtime_r
Avb:__ZN22RenderingCommandBuffer13GetAndCheckRTE24BuiltinRenderTextureTypeRKN9ShaderLab16FastPropertyNameEPKcPP13RenderTexture
cY:__ZN14GfxDoubleCacheIyP17VertexDeclaration14GfxGenericHashIyENSt3__28equal_toIyEEN31GfxDoubleCacheConcurrencyPolicy11LocklessGetE42GfxDoubleCacheDefaultEmptyDeletedGeneratorIyEEC2Ev
oG:__Z19free_alloc_internalPv10MemLabelId
_5:__ZN9ShaderLab11ShaderState25RemoveUnsupportedProgramsEPK6Shader
wf:_strftime
soa:__ZN7Texture33SetStoredColorSpaceNoDirtyNoApplyE17TextureColorSpace
vnc:_ResourceSet__ctor_m3618395942
AVd:_Decimal_System_IConvertible_ToDouble_m3125524987_AdjustorThunk
VM:__ZN12FileAccessorD2Ev
YFa:__ZN14VertexDataInfoC2Ev
Uxg:__ZN6il2cpp2gc16GarbageCollector14CollectALittleEv
W5e:_UnityEventBase__ctor_m1851535676
fib:__ZL17Transfer_GUIStyleI18StreamedBinaryReadILb1EELb1EEvRK29SerializationCommandArgumentsR31RuntimeSerializationCommandInfo
C8f:__ZN6il2cpp6icalls8mscorlib6SystemL9IsPrivateEPK12PropertyInfo
rKe:_X501_ToString_m1148552872
pV:__ZN9shadertag10InitializeEv
gxb:__ZN13BatchRenderer20RenderSingleWithPassER17ShaderPassContextPK18SharedMaterialDataP6ShaderPN9ShaderLab4PassEiPKNS7_10GrabPassesEjib15BatchBreakCause
XPa:__ZN15QualitySettings14QualitySetting8TransferI24GenerateTypeTreeTransferEEvRT_
YHc:_Convert_ToSingle_m835189399
l0b:__Z22TransferField_NonArrayI8JSONRead27Converter_SimpleNativeClassI8GUIStyleEEvRK23StaticTransferFieldInfoR31RuntimeSerializationCommandInfoRT0_
bg:_llvm_eh_typeid_for
qNb:__Z13RegisterClassI10GameObjectEvv
Lhd:_RemotingServices_FindInterfaceMethod_m2125212568
USc:_StreamWriter__cctor_m1229272693
tZd:_Enum_System_IConvertible_ToSByte_m779472798
Pse:_Type_get_IsInterface_m3284996719
Tke:_GenericEqualityComparer_1_Equals_m1218735909_gshared
tkb:__Z18Transfer_BlittableI18StreamedBinaryReadILb0EELb1E8Vector4fEvRK29SerializationCommandArgumentsR31RuntimeSerializationCommandInfo
Yie:_Dictionary_2_U3CCopyToU3Em__0_m2023886030_gshared
RWg:_glBindVertexArray__wrapper
rmd:_SerializationInfo__ctor_m2923079689
bKa:__ZN8Material8TransferI14SafeBinaryReadEEvRT_
iMa:__ZN12CubemapArray17UploadToGfxDeviceEv
XJc:_Int32_JumpOverWhite_m208298144
RVg:_emscripten_glGetUniformiv__wrapper
bBg:__ZN6il2cpp2vm13ManagedObject14QueryInterfaceERK10Il2CppGuidPPv
ts:__ZN11AudioSource4StopEb
$9a:__ZN14SafeBinaryRead21TransferSTLStyleArrayI13dynamic_arrayI10Matrix4x4fLj4EEEEvRT_17TransferMetaFlags
ICa:__ZN15LODGroupManager26CollectAllLODGroupManagersERK16CoreCameraValuesR13dynamic_arrayIPS_Lj4EEb
_5b:__ZNSt3__26__treeINS_12__value_typeIN4core12basic_stringIcNS2_20StringStorageDefaultIcEEEEN11UnityEngine7Connect19RemoteSettingsValueEEENS_19__map_value_compareIS6_SA_NS_4lessIS6_EELb1EEE13stl_allocatorISA_L18MemLabelIdentifier6ELi16EEE16__construct_nodeERKNS_4pairIKS6_S9_EE
Tqa:__ZN18GlslGpuProgramGLESD2Ev
mIb:__ZN13RenderTexture14SetVolumeDepthEi
OB:__ZN11UnityEngine15CloudWebService14DataErrorEvent12ToJsonStringERN4core12basic_stringIcNS2_20StringStorageDefaultIcEEEEjPKc
Rnf:__Z86RuntimeInvoker_Void_t1185182177_UInt16_t2177724958_SByte_t1669577662_SByte_t1669577662PFvvEPK10MethodInfoPvPS4_
o6:__Z22LoadGpuProgramFromDataPKhS0_Rj
R0b:__ZN10Matrix4x4f8TransferI8JSONReadEEvRT_
dDc:_Hashtable__ctor_m1941859523
lI:__ZN17PersistentManager18ReadObjectThreadedEi
Jna:__ZN25TransformFeedbackSkinning31CleanupTransformFeedbackShadersEv
wCa:__Z22scripting_object_unbox18ScriptingObjectPtr
KRa:__ZN10VertexData8TransferI18StreamedBinaryReadILb0EEEEvRT_
rJg:__ZN6il2cpp8metadata25Il2CppGenericClassCompare7CompareEPK18Il2CppGenericClassS4_
BWc:_MonoType_get_Assembly_m4290914179
i7:__ZN9ShaderLab7ProgramC2E10MemLabelIdi10ShaderType
yIb:__ZN14PreloadManager16UpdatePreloadingEv
tOd:_String_LastIndexOf_m95398196
W7e:_PlayableAsset__ctor_m2395156306
nF:__ZNK21UnityDefaultAllocatorI17LowLevelAllocatorE8ContainsEPKv
S7c:_RuntimeTypeHandle_Equals_m2857439487
lh:_emscripten_get_main_loop_timing
Uoc:_SafeHandle_Finalize_m3866180675
WPa:__ZN24GenerateTypeTreeTransfer21TransferSTLStyleArrayINSt3__26vectorIN15QualitySettings14QualitySettingENS1_9allocatorIS4_EEEEEEvRT_17TransferMetaFlags
xRc:_MemoryStream_ToArray_m3911744835
jee:_Enumerator_System_Collections_IDictionaryEnumerator_get_Entry_m859540448_AdjustorThunk
qte:_Type_GetHashCode_m1947148725
bjf:__Z91RuntimeInvoker_Void_t1185182177_RuntimeObject_RuntimeObject_RuntimeObject_SByte_t1669577662PFvvEPK10MethodInfoPvPS4_
J2a:__ZNK2UI13RectTransform22GetTypeVirtualInternalEv
Pn:getTempRet0
xde:_Enumerator_get_CurrentKey_m627428048_AdjustorThunk
R3c:_HandshakeMessage_Update_m2417837686
Sng:__ZN6il2cpp6icalls8mscorlib6System9ThreadingL21lookup_cached_cultureEP12Il2CppThreadi
x5e:_NetFxCoreExtensions_CreateDelegate_m751211712
yDb:__ZN18DeferredRenderLoopD2Ev
fO:__ZNK16TypeTreeIterator4NameEv
tM:__ZN15FileSystemEntry3SetEPKc
xdc:_ConstructorBuilder_Invoke_m3010446651
$xd:_IPv6Address_set_ScopeId_m3907190992
ju:__ZN20SoundChannelInstance15ParameterBuffer5ApplyEPN4FMOD7ChannelE
Pxd:_IPv6Address__ctor_m4117281080
AOg:_sbrk
Q3b:__ZN11UnityEngine15PlatformWrapper24GetRuntimePlatformStringEv
Xh:_glIsEnabled
Q8a:__Z25scripting_class_get_image17ScriptingClassPtr
xLd:_SecurityException__ctor_m836898292
iPe:_List_1_RemoveAt_m2730968292_gshared
s$a:__ZNSt3__26vectorIN4core12basic_stringIcNS1_20StringStorageDefaultIcEEEE13stl_allocatorIS5_L18MemLabelIdentifier13ELi16EEEC2INS_11__wrap_iterIPS5_EEEET_SE_RKS8_PNS_9enable_ifIXaasr21__is_forward_iteratorISE_EE5valuesr16is_constructibleIS5_NS_15iterator_traitsISE_E9referenceEEE5valueEvE4typeE
$h:_emscripten_glDrawElementsInstanced
kEa:__ZN18JobBatchDispatcherD2Ev
E2a:__ZN9Transform17MainThreadCleanupEv
UDg:_GC_clear_hdr_marks
MXg:_emscripten_glCreateShader__wrapper
Xzd:_OidEnumerator_MoveNext_m3138911739
ki:_emscripten_glGetShaderiv
jv:__ZN4FMOD6System10getVersionEPj
t_b:__ZN9JSONWrite8TransferIN4math12int2_storageEEEvRT_PKc17TransferMetaFlags
z9:__ZN9GfxDevice21ReleaseSharedMeshDataEP14SharedMeshData
i2e:_Uri_IsDomainAddress_m2867513594
BYa:__ZNSt3__27__sort5IRNS_6__lessINS_4pairIPKN5Unity4TypeE7Hash128EES8_EEPS8_EEjT0_SC_SC_SC_SC_T_
$Cg:_GC_unreachable_finalize_mark_proc
sBd:_X509Chain_ProcessCrlExtensions_m236234529
xEg:_maybe_finalize
M0f:__ZN6il2cpp2vm5Class40GetInterfaceInvokeDataFromVTableSlowPathEPK12Il2CppObjectPK11Il2CppClassj
pBe:_Array_InternalArray__IndexOf_TisLabelData_t360167391_m1826525656_gshared
rOa:__ZN8Material28UpdateHashesOnPropertyChangeEN9ShaderLab16FastPropertyNameE
vTe:_Collection_1_System_Collections_IList_get_Item_m1368877441_gshared
sBf:__ZL56MethodBuilder_t2807316753_CustomAttributesCacheGeneratorP21CustomAttributesCache
I7a:__Z18Transfer_BlittableI14SafeBinaryReadLb1E8Vector4fEvRK29SerializationCommandArgumentsR31RuntimeSerializationCommandInfo
Trg:__ZN6il2cpp2vm5Image13ClassFromNameEPK11Il2CppImagePKcS6_
YOg:dynCall_vdddddd
Z3:__ZN24GenerateTypeTreeTransfer21TransferSTLStyleArrayINSt3__26vectorIN9ShaderLab14SerializedPassENS1_9allocatorIS4_EEEEEEvRT_17TransferMetaFlags
PV:__ZL32MarkLevelGameManagerDependenciesR27GarbageCollectorThreadState
Xba:__ZNK13GfxDeviceGLES26HasActiveRandomWriteTargetEv
kmg:__GLOBAL__sub_I_Thread_cpp
Zxf:__ZL54_MemberInfo_t3922476713_CustomAttributesCacheGeneratorP21CustomAttributesCache
TSg:_glGetActiveUniformsiv__wrapper
FJ:__ZN13MonoBehaviour19SetupScriptingCacheE17ScriptingClassPtrP10MonoScript
UI:__ZN17PersistentManager29ReadAndActivateObjectThreadedEiRK26SerializedObjectIdentifierP14SerializedFilebb
qZ:__ZZN15DirectorManager15InitializeClassEvEN52PreLateUpdateDirectorUpdateAnimationBeginRegistrator7ForwardEv
Nog:__ZN6il2cpp2vm13LivenessState18ShouldProcessValueEP12Il2CppObjectP11Il2CppClass
sIe:_TlsStream_get_Position_m1904146856
p3:__ZNSt3__26vectorIN9ShaderLab14SerializedPassENS_9allocatorIS2_EEE8__appendEj
A2:__ZNSt3__26vectorIN9ShaderLab20SerializedSubProgram13BufferBindingENS_9allocatorIS3_EEEC2INS_11__wrap_iterIPS3_EEEET_SB_RKS5_PNS_9enable_ifIXaasr21__is_forward_iteratorISB_EE5valuesr16is_constructibleIS3_NS_15iterator_traitsISB_E9referenceEEE5valueEvE4typeE
eme:_Encoding_get_ISOLatin1_m2107621369
YYc:_BigInteger_op_Inequality_m2697143438
_Na:__ZN9Texture2D23VirtualRedirectTransferER18StreamedBinaryReadILb0EE
SBc:_BitArrayEnumerator__ctor_m2359341397
SNe:_Enumerator_MoveNext_m1177880931_gshared
bL:__ZN16ScriptingManager27NativeTypeForScriptingClassE17ScriptingClassPtr
Xve:_UInt64_System_IConvertible_ToDateTime_m3434604642
Zse:_Type_get_IsSerializable_m1040556850
TEb:__ZL22ScheduleSceneNodesJobsP25ScheduleSceneNodesJobDataj
ak:_emscripten_set_canvas_size
U$d:_CultureInfo__ctor_m3285927757
V2:__ZNSt3__26vectorIN9ShaderLab20SerializedSubProgramENS_9allocatorIS2_EEE8__appendEj
XF:__ZN20DynamicHeapAllocatorI17LowLevelAllocatorE8AllocateEji
MUf:_Locale_GetText_m2427493201
Nxb:__ZN20DynamicPropertySheet15SetVectorQueuedERKN9ShaderLab16FastPropertyNameERK8Vector4fN19ShaderPropertySheet8SetFlagsE
Pag:__ZNSt3__26vectorIN6il2cpp2vm17TypeNameParseInfoENS_9allocatorIS3_EEE7reserveEj
AIe:_TlsStream_Write_m1412844442
SYb:__ZL26Transfer_SimpleNativeClassI9JSONWrite10RectOffsetLb0EEvRK29SerializationCommandArgumentsR31RuntimeSerializationCommandInfo
tDg:_GC_push_conditional
_fa:__ZN17GenericDynamicVBO10AllocateVBEjR21DynamicVBOChunkHandle
QUd:_DBNull_ToString_m3638608738
Vsg:__ZN30dense_hashtable_const_iteratorI10KeyWrapperIP18Il2CppGenericClassES3_N6il2cpp8metadata22Il2CppGenericClassHashEN14dense_hash_setIS3_S6_NS3_14EqualsComparerINS5_25Il2CppGenericClassCompareEEENSt3__29allocatorIS3_EEE8IdentityESA_SD_EppEv
PBc:_BitArray_Clone_m3537018332
Vld:_ObjectRecord_UnchainFixup_m3191243952
pIe:_TlsStream_get_CanWrite_m16389328
Ak:_glMapBufferRange
SNa:__ZN9Texture2D8TransferI18StreamedBinaryReadILb0EEEEvRT_
GVb:__Z31Input_CUSTOM_GetMouseButtonDowni
JOd:_String_Format_m3339413201
EWc:_MonoType_get_BaseType_m1098640416
Mua:__ZN13LoadOperation19IntegrateTimeSlicedEi
IIe:_TlsStream_Read_m3392972801
gca:__ZN13GfxDeviceGLES22DispatchComputeProgramE12ObjectHandleI18ComputeProgram_TagPvE15ComputeBufferIDj
X0a:__Z17TransformAABBSlowRK4AABBRK10Matrix4x4fRS_
xuc:_Array_combsort_m4052486289
sRa:__ZN15SerializeTraitsI13dynamic_arrayI12SpriteVertexLj4EEE19ResizeSTLStyleArrayERS2_i
q1:__ZN9ShaderLab21SerializedShaderState8TransferI14SafeBinaryReadEEvRT_
i_d:_Environment_GetWindowsFolderPath_m1738399646
rMg:_ftruncate
vjc:_Module_GetCustomAttributes_m76573271
m9c:_CryptoConfig_EncodeOID_m2635914623
$3:__ZN15SerializeTraitsINSt3__24pairIN4core12basic_stringIcNS2_20StringStorageDefaultIcEEEES6_EEE8TransferI24GenerateTypeTreeTransferEEvRS7_RT_
fYg:b89
eYg:b88
ZXg:b81
XXg:b80
Eoa:__ZN7ApiGLES19CreateSparseTextureEjj14GraphicsFormatiiiiRiS1_S1_
LL:__ZN18ResourceImageGroup7CleanupEv
bYg:b85
aYg:b84
dYg:b87
cYg:b86
Pid:_RemotingSurrogateSelector_GetSurrogate_m3900875713
Onf:__Z69RuntimeInvoker_Boolean_t97287965_UInt16_t2177724958_Int16_t2552820387PFvvEPK10MethodInfoPvPS4_
m0c:_CertificateValidationCallback_Invoke_m1014111289
a1f:__ZN15dense_hashtableINSt3__24pairIK10KeyWrapperIPK11Il2CppClassEPKcEES6_N6il2cpp5utils11PointerHashIS3_EEN14dense_hash_mapIS6_S9_SE_NS6_14EqualsComparerINS0_8equal_toIS5_EEEENS0_9allocatorISA_EEE9SelectKeyESJ_SL_EC2ERKSO_j
nl:_glDeleteShader
bka:__ZN6prcoreL17RemapGenericFloatI15TexFormatRGHalf16TexFormatRGFloatEEvPKNS_9InnerInfoE
$Gd:_RSAPKCS1SignatureDeformatter_SetHashAlgorithm_m1602190713
lZd:_Enum_System_IConvertible_ToByte_m1219166845
QTb:__Z27scripting_add_internal_callPKcPKv
big:__ZN13Il2CppHashMapINSt3__24pairIPK9EventInfoP11Il2CppClassEEj17ReflectionMapHashIS7_ENS0_8equal_toIS7_EENS0_9allocatorINS1_IK10KeyWrapperIS7_EjEEEEEC2EjRKS9_RKSB_
Ltg:__GLOBAL__sub_I_GarbageCollector_cpp
ree:_Enumerator_MoveNext_m1556953412_AdjustorThunk
yIa:__ZN13RenderTexture8TransferI24GenerateTypeTreeTransferEEvRT_
pQb:__ZN12CubemapArrayC2E10MemLabelId18ObjectCreationMode
eTc:_StreamWriter_Write_m1660535366
qHg:__ZN6il2cpp2vm9Parameter30GetDefaultParameterValueObjectEPK10MethodInfoPK13ParameterInfoPb
Eoe:_UTF8Encoding_GetByteCount_m4152118078
itd:_KeyPairPersistence__CanSecure_m3516574278
Mbd:_MD5CryptoServiceProvider_Dispose_m3502499818
VDa:__ZN12LightManager28IsLightTransformDataUpToDateEPK5Light
JUa:__ZN12BoneWeights48TransferI24GenerateTypeTreeTransferEEvRT_
zpb:__Z19scripting_gc_enablev
Jbe:_InternalEnumerator_1_get_Current_m2907722321_gshared
Btb:__ZZ23InitPlayerLoopCallbacksvEN41InitializationPlayerUpdateTimeRegistrator7ForwardEv
jse:_TimeSpan_Subtract_m1264203589_AdjustorThunk
Ddb:__ZL26Transfer_SimpleNativeClassI24GenerateTypeTreeTransfer8GradientLb0EEvRK29SerializationCommandArgumentsR31RuntimeSerializationCommandInfo
S6d:_InternalEnumerator_1_System_Collections_IEnumerator_get_Current_m888718134_gshared
J6d:_InternalEnumerator_1_get_Current_m2894466703_gshared
hSd:_DateTime_FromTicks_m4059645178_AdjustorThunk
ged:_ConfigHandler_ParseTime_m1787834288
$5:__ZN9ShaderLab7Program27CreateFromSerializedProgramERKNS_17SerializedProgramE10ShaderTypeiP16PropertyNamesSetPK6Shader
kbc:_Assembly_Load_m3487507613
Fgg:__ZN6il2cpp2gc19AppendOnlyGCHashMapINSt3__24pairIPK11Il2CppImageP11Il2CppClassEEP22Il2CppReflectionModule17ReflectionMapHashIS9_ENS2_8equal_toIS9_EEEC2Ev
iI:__Z20GetPersistentManagerv
FT:__ZN21SystemInfoStringCache16StaticInitializeEPv
cyg:__ZN6il2cpp2gc16GarbageCollector23MakeDescriptorForObjectEPji
u2:__ZNSt3__26vectorIN9ShaderLab20SerializedSubProgram15StructParameterENS_9allocatorIS3_EEE6assignIPS3_EENS_9enable_ifIXaasr21__is_forward_iteratorIT_EE5valuesr16is_constructibleIS3_NS_15iterator_traitsISA_E9referenceEEE5valueEvE4typeESA_SA_
Omb:__ZNK13MonoBehaviour7GetNameEv
$Ze:_PatternCompiler_EmitFastRepeat_m3012952683
ftg:__ZN15dense_hashtableI10KeyWrapperIP18Il2CppGenericClassES3_N6il2cpp8metadata22Il2CppGenericClassHashEN14dense_hash_setIS3_S6_NS3_14EqualsComparerINS5_25Il2CppGenericClassCompareEEENSt3__29allocatorIS3_EEE8IdentityESA_SD_E6insertERKS3_
Wr:__Z15_CheckFMODError11FMOD_RESULTPKciS1_
cFa:__Z20RenderMultipleMeshesRK15RenderNodeQueueRK18RenderMultipleData17ShaderChannelMask
p7b:__ZN11UnityEngine15PlatformWrapper20GetPlayerPrefsStringERKN4core12basic_stringIcNS1_20StringStorageDefaultIcEEEES5_
hme:_Latin1Encoding__ctor_m498920120
tbg:__ZN6il2cpp2vm4Type19GetGenericParameterEPK10Il2CppType
ESc:_StreamReader_Peek_m2272511193
bTd:_DateTimeFormatInfo_FillAllDateTimePatterns_m2683124783
xXc:_NumberFormatter_get_IsFloatingSource_m3714711779
Ete:_Type_GetConstructor_m1195697116
Lc:_glBeginQuery
avb:__ZN6Camera12RenderStereoENS_10RenderFlagE8CullFlagPNS_24PerformEyeRenderFunctionE
R4a:__ZN20LocalFileSystemPosix10ToAbsoluteEPKc
_Ea:__ZN20TierGraphicsSettings8TransferI19StreamedBinaryWriteILb0EEEEvRT_
kT:__GLOBAL__sub_I_runtime_input_0_cpp
tAg:__ZN6il2cpp2vm13ComObjectBase16DisconnectObjectEj
Ul:f0
jLg:_getcwd
Yta:__ZN25ThreadsafeLinearAllocatorD2Ev
m0a:__Z21SendMessageToEveryoneRK17MessageIdentifier11MessageData
YX:__ZN21BillboardBatchManager16StaticInitializeEPv
_Qd:_DateTime_AbsoluteDays_m4235097773
SU:__ZN12_GLOBAL__N_138ArchiveRedirectFileSystemStaticDestroyEPv
Uaf:__Z74RuntimeInvoker_RuntimeObject_RuntimeObject_RuntimeObject_SByte_t1669577662PFvvEPK10MethodInfoPvPS4_
fMa:__ZN12CubemapArray34UpdateFileTextureUploadInstructionEP26FileAssetUploadInstructionj
Doa:__Z23CreateSparseTextureGLES9TextureIDii14GraphicsFormati
g2d:_Guid_CompareTo_m243656946_AdjustorThunk
T_d:_CCMath_mod_m3631663509
hse:_TimeSpan_Negate_m1889505500_AdjustorThunk
owa:__ZN17ArchiveFileSystem10AddStorageEP20ArchiveStorageReader
o$f:__ZN6il2cpp2vm5Class15GetEnumBaseTypeEP11Il2CppClass
k3c:_Context_set_WriteSequenceNumber_m942577065
od:_glVertexAttrib4fv
hNa:__ZNK9Texture2D16GetNpotTexelSizeEv
tXc:_NumberFormatter_Init_m3576155222
tAc:_ArrayListWrapper_IndexOf_m3692065720
n9:__ZN9GfxDevice22GetDefaultVertexBufferE26GfxDefaultVertexBufferTypej
eye:_Array_InternalArray__ICollection_Contains_TisInt64_t3736567304_m2911357929_gshared
BLg:___fseeko_unlocked
jac:_Object_ToString_m1740002499
tLg:_sscanf
vUa:__ZN14SafeBinaryRead21TransferSTLStyleArrayINSt3__26vectorI17BlendShapeChannelNS1_9allocatorIS3_EEEEEEvRT_17TransferMetaFlags
yqb:__Z17BeginSplashScreenv
I8c:_SByte_ToString_m3584531119_AdjustorThunk
S4:__ZN9ShaderLab16SerializedShader8TransferI19StreamedBinaryWriteILb0EEEEvRT_
wYc:_ModulusRing__ctor_m2420310199
tGc:_Convert_ToDateTime_m626620011
Lee:_Enumerator_System_Collections_IDictionaryEnumerator_get_Key_m2500634048_AdjustorThunk
clg:__ZN14dense_hash_mapI10KeyWrapperIP11Il2CppClassES2_N6il2cpp8metadata16SZArrayClassHashENS3_14EqualsComparerINS5_19SZArrayClassCompareEEENSt3__29allocatorINSA_4pairIKS3_S2_EEEEE15set_deleted_keyERSD_
Ifa:__ZN18GfxFramebufferGLES18GetFramebufferNameERK20GfxRenderTargetSetup
Iag:__ZN6il2cpp2vm14TypeNameParser12ParseVersionERKNSt3__212basic_stringIcNS2_11char_traitsIcEENS2_9allocatorIcEEEERtSB_SB_SB_
LZ:__ZN13PlayableGraph27SchedulePlayableDestructionERK9HPlayable
VRg:_glGetFramebufferAttachmentParameteriv__wrapper
Jcd:_ChannelServices_GetCurrentChannelInfo_m3041604116
H7b:__Z13RegisterClassI20UnityConnectSettingsEvv
N8a:__Z22scripting_array_length17ScriptingArrayPtr
qTc:_SynchronizedReader_Peek_m148942882
Cef:__Z95RuntimeInvoker_Void_t1185182177_RuntimeObject_Int32_t2950945753_Int32_t2950945753_RuntimeObjectPFvvEPK10MethodInfoPvPS4_
sMa:__ZN14SafeBinaryRead20TransferTypelessDataEjPvi
tWa:__ZN14SpriteRenderer18UpdateCachedSpriteEb
yQ:__Z19GetActiveColorSpacev
Rjc:_MonoMethodInfo_GetDeclaringType_m2924452727
Lrb:__ZN13sorted_vectorINSt3__24pairIiN17InstancingBatcher12PropertyTypeEEEN10vector_mapIiS3_NS0_4lessIiEE13stl_allocatorIS4_L18MemLabelIdentifier1ELi16EEE13value_compareESA_E21sort_clear_duplicatesEv
_K:__Z6StrCmpPKcS0_
VBe:_Array_InternalArray__ICollection_Add_TisByte_t1134296376_m2816118303_gshared
h7:__Z21CheckGpuProgramUsable20ShaderGpuProgramType
NOb:__ZN13ProduceHelperI14Texture2DArrayLb0EE7ProduceE10MemLabelId18ObjectCreationMode
kxg:__ZN6il2cpp2os9Directory20GetFileSystemEntriesERKNSt3__212basic_stringIcNS2_11char_traitsIcEENS2_9allocatorIcEEEESA_iiPi
htc:_Array_System_Collections_IList_Add_m1063688101
gCb:__ZNK15SharedLightData24GetFinalShadowResolutionEv
IZa:__ZN12AspectRatios8TransferI18StreamedBinaryReadILb0EEEEvRT_
Qye:_Array_InternalArray__ICollection_Remove_TisLink_t544317964_m1280781374_gshared
wvc:_BitConverter_DoubleWordsAreSwapped_m1474345095
KQa:__ZNK13ScreenManager12IsFullScreenEv
MAc:_FixedSizeArrayListWrapper_set_Capacity_m4221053039
WLg:_rand
xSg:_emscripten_glFramebufferRenderbuffer__wrapper
J9a:__ZN14SafeBinaryRead21TransferSTLStyleArrayINSt3__26vectorI17AnimationCurveTplIfE13stl_allocatorIS4_L18MemLabelIdentifier1ELi16EEEEEEvRT_17TransferMetaFlags
nBc:_SynchronizedArrayListWrapper_Contains_m3809499313
bze:_Array_InternalArray__ICollection_Remove_TisLabelData_t360167391_m3556246844_gshared
kbd:_HMACSHA256__ctor_m346174875
CEb:__Z22PrepareOptimizedPlanesPK5PlaneiPKN4math7_float4E
LE:__ZN11UnityEngine15CloudWebService17WebFileDownloaderINS0_20WebRequestRestClientENS0_23WebRequestRestHeaderMapEE10InitializeERKN4core12basic_stringIcNS5_20StringStorageDefaultIcEEEE
WX:__ZN17UniqueIDGenerator15CreatePureIndexEv
Np:__ZN11UnityEngine9Animation28GenericAnimationBindingCache15DidReloadDomainEv
y_a:__ZNSt3__26vectorIN15ResourceManager10DependencyE13stl_allocatorIS2_L18MemLabelIdentifier52ELi16EEE6assignINS_11__wrap_iterIPS2_EEEENS_9enable_ifIXaasr21__is_forward_iteratorIT_EE5valuesr16is_constructibleIS2_NS_15iterator_traitsISC_E9referenceEEE5valueEvE4typeESC_SC_
D_f:__ZN15dense_hashtableINSt3__24pairIK10KeyWrapperIPK22Il2CppGenericParameterEP11Il2CppClassEES6_N6il2cpp5utils11PointerHashIS4_EEN14dense_hash_mapIS6_S9_SE_NS6_14EqualsComparerINS0_8equal_toIS5_EEEENS0_9allocatorISA_EEE9SelectKeyESJ_SL_E14squash_deletedEv
qJa:__ZN9ShaderLabL27GetDesiredRenderTextureDescEPK6Camera
jEe:_Array_InternalArray__Insert_TisMark_t3471605523_m2854535880_gshared
wid:_MethodReturnDictionary__cctor_m278392388
SH:__ZNK9Transform18TransformDirectionERK8Vector3f
C7c:_SslStreamBase_get_CanWrite_m1622082918
hqe:_Thread_GetSerializedCurrentUICulture_m3681656498
wNe:_Enumerator_MoveNext_m2114485647_gshared
U4f:__ZN15dense_hashtableINSt3__24pairIK10KeyWrapperIPK11Il2CppClassEPKcEES6_N6il2cpp5utils11PointerHashIS3_EEN14dense_hash_mapIS6_S9_SE_NS6_14EqualsComparerINS0_8equal_toIS5_EEEENS0_9allocatorISA_EEE9SelectKeyESJ_SL_E12resize_deltaEjj
ENg:__ZNK10__cxxabiv120__si_class_type_info27has_unambiguous_public_baseEPNS_19__dynamic_cast_infoEPvi
jr:__ZN9AudioClip23VirtualRedirectTransferER14SafeBinaryRead
BYc:_Kernel_LeftShift_m4140742987
Zac:_Assembly_GetManifestResourceInternal_m1224391897
cga:__Z30AddDefaultStreamsToMeshBuffersR9GfxDeviceR11MeshBuffersj17ShaderChannelMaskS3_
BU:__ZL16GetInterfaceImpl18UnityInterfaceGUID
H$f:__ZN6il2cpp2vmL17SetupFieldOffsetsENS0_15FieldLayoutKindEP11Il2CppClassjRKNSt3__26vectorIjNS4_9allocatorIjEEEE
iAg:__ZN6il2cpp6icalls8mscorlib6System15MonoCustomAttrs27GetCustomAttributesInternalEP12Il2CppObjectP20Il2CppReflectionTypeb
wb:invoke_viifi
lT:__GLOBAL__sub_I_runtime_math_random_0_cpp
Lqb:__ZN14PreloadManager35WaitForAllAsyncOperationsToCompleteEv
Dt:__ZL31InitializeAudioScriptingClassesv
Wvb:__Z14SortGUIByDepthP10GUIElementS0_
Gmf:__Z69RuntimeInvoker_UInt32_t2560061978_Int32_t2950945753_SByte_t1669577662PFvvEPK10MethodInfoPvPS4_
S2e:_UriParser__cctor_m3655686731
r5a:__ZNK20LocalFileSystemPosix21GetAvailableDiskSpaceEPKcRy
LT:__ZNSt3__26__treeIiNS_4lessIiEENS_9allocatorIiEEE7destroyEPNS_11__tree_nodeIiPvEE
I8:__ZNK9GfxDevice14GetWorldMatrixEv
k0b:__ZN8JSONRead8TransferI8Vector2fEEvRT_PKc17TransferMetaFlagsb
H3a:__Z19scripting_array_new17ScriptingClassPtrjj
JOa:__ZN14SafeBinaryRead21TransferSTLStyleArrayI13dynamic_arrayI12LightmapDataLj4EEEEvRT_17TransferMetaFlags
b3:__ZNSt3__26vectorIN9ShaderLab20SerializedSubProgram16TextureParameterENS_9allocatorIS3_EEE6assignIPS3_EENS_9enable_ifIXaasr21__is_forward_iteratorIT_EE5valuesr16is_constructibleIS3_NS_15iterator_traitsISA_E9referenceEEE5valueEvE4typeESA_SA_
v3f:__ZN13Il2CppHashMapIN6il2cpp5utils13dynamic_arrayIPK10Il2CppTypeLj4EEEPFvvENS0_8metadata19Il2CppSignatureHashENS9_22Il2CppSignatureCompareENSt3__29allocatorINSC_4pairIK10KeyWrapperIS6_ES8_EEEEEC2EjRKSA_RKSB_
lhg:__ZN15dense_hashtableINSt3__24pairIK10KeyWrapperIPK22Il2CppGenericParameterEPK24MonoGenericParameterInfoEES6_N6il2cpp5utils11PointerHashIS4_EEN14dense_hash_mapIS6_SA_SF_NS6_14EqualsComparerINS0_8equal_toIS5_EEEENS0_9allocatorISB_EEE9SelectKeyESK_SM_E15set_deleted_keyERKSB_
G8c:_SByte_TryParse_m2431806379
zMb:__ZN6prcoreL11inner_clearILj2EEEvPhjjj
iad:_DSACryptoServiceProvider_get_KeySize_m786836990
$f:_emscripten_exit_fullscreen
iac:_Object_MemberwiseClone_m1474068832
fwg:__ZN6il2cpp6icalls8mscorlib6System6String19InternalAllocateStrEi
r1b:__Z29Transfer_Blittable_ArrayFieldI8JSONRead11QuaternionfEvRT_R9ArrayInfoRK23StaticTransferFieldInfo
aRb:__ZNK24RendererAnimationBinding15GenerateBindingERKN4core12basic_stringIcNS0_20StringStorageDefaultIcEEEEbRN11UnityEngine9Animation14GenericBindingE
dyd:_IPv6Address__ctor_m3704187391
pwb:__Z15GetFlareManagerv
tCe:_Array_InternalArray__ICollection_Add_TisResourceCacheItem_t51292791_m3851804827_gshared
aKg:___toread
Sob:__ZNSt3__26vectorI10vector_mapIiiNS_4lessIiEE13stl_allocatorINS_4pairIiiEEL18MemLabelIdentifier38ELi16EEES4_IS9_LS7_38ELi16EEE26__swap_out_circular_bufferERNS_14__split_bufferIS9_RSA_EE
ZXc:_BigInteger_get_Rng_m3283260184
fOg:___cxa_is_pointer_type
Zma:__ZN4gles20DestroyRenderSurfaceEP7ApiGLESP17RenderSurfaceGLES
pGe:_Array_InternalArray__get_Item_TisKeyValuePair_2_t2530217319_m2886833132_gshared
edd:_RemotingConfiguration_get_ProcessId_m2180277012
JO:__ZN17PersistentManager40GlobalToLocalSerializedFileIndexInternalERK26SerializedObjectIdentifier
EB:__ZN11UnityEngine15CloudWebService17SessionEventQueue14ParseEventDataERKN4core12basic_stringIcNS2_20StringStorageDefaultIcEEEE
gea:__ZN13TranslateGLES4InitERK12GraphicsCaps16GfxDeviceLevelGL
OMc:_Int64_System_IConvertible_ToUInt16_m848637338_AdjustorThunk
cBe:_Array_InternalArray__IndexOf_TisLink_t544317964_m455584088_gshared
Yq:__ZNK14SoundHandleAPI12GetLoadStateEv
GBg:__ZN6il2cpp8metadataL7CompareEPK10Il2CppTypeS3_
yvd:_HybridDictionary__ctor_m1681134385
uN:__ZN21ScalableBufferManager11GetInstanceEv
ekb:__Z18Transfer_BlittableI18StreamedBinaryReadILb0EELb1E10ColorRGBAfEvRK29SerializationCommandArgumentsR31RuntimeSerializationCommandInfo
rse:_TimeSpan_op_LessThan_m1594498345
WTb:__ZL27GetComponentsImplementationILb0ELi0EEbR10GameObjectbRK17CompareParametersRK39GetComponentsImplementation_ReturnValue
Anb:__ZN9Scripting36IsSystemCollectionsGenericDictionaryE17ScriptingClassPtr
wYe:_UnityEvent_1_FindMethod_Impl_m322741469_gshared
Z9e:_Enumerator_get_Current_m2591725252
nM:__ZL16ReadTypeTreeImplILb0EEbR8TypeTreeRK16TypeTreeIteratorRPKhS6_i
qFd:_Interval_Contains_m110351300_AdjustorThunk
kHc:_Convert_ToInt32_m3048308591
dUd:_DateTimeOffset_Equals_m3030958070
_Ga:__ZNK22BuiltinResourceManager21GetResourceInstanceIDEPKN5Unity4TypeERKN4core12basic_stringIcNS4_20StringStorageDefaultIcEEEE
PRd:_DateTimeFormatInfo_GetMonthName_m2034512315
$xb:__ZN28LightProbeProxyVolumeContext8CopyFromERKS_
ZR:__ZN23TransformChangeDispatch32QueueTransformChangeIfHasChangedER18TransformHierarchy
Kod:_SimpleCollator_ToDashTypeValue_m6184468
_ma:__ZN7ApiGLES18DeleteRenderbufferERj
Cla:__ZL23ProgramUniformMatrix4fvPK7ApiGLESjiihPKv
hna:__ZN7ApiGLES13CreateTextureEjj14GraphicsFormatiiiii
Duc:_Array_new_gap_m262136975
Cvc:_BitConverter_GetBytes_m2120707223
YTb:__ZL27GetComponentsImplementationILb0ELi1EEbR10GameObjectbRK17CompareParametersRK39GetComponentsImplementation_ReturnValue
xBd:_X509Store__ctor_m275383717
ppd:_SimpleCollator_LastIndexOfOrdinalIgnoreCase_m2984667899
Vna:__ZN13RenderTexture7ReleaseEv
Q_b:__Z18Transfer_BlittableI8JSONReadLb1EN4math12int3_storageEEvRK29SerializationCommandArgumentsR31RuntimeSerializationCommandInfo
EVa:__ZN10MeshFilter23VirtualRedirectTransferER14SafeBinaryRead
OVa:__ZN12MeshRenderer17MainThreadCleanupEv
s$f:__ZN6il2cpp2vmL10InitLockedEP11Il2CppClassRKNS_2os12FastAutoLockE
Oqa:__ZN22CreateGpuProgramOutput12CreateParamsEv
u7d:_InternalEnumerator_1_System_Collections_IEnumerator_get_Current_m548105685_gshared
Yda:__ZNK14GfxContextGLES13GetDefaultFBOEv
Xwc:_Byte_System_IConvertible_ToType_m2251112646
mSd:_DateTime_get_Hour_m4153505178_AdjustorThunk
vWf:_AudioExtensionManager_WriteExtensionProperties_m3028464154
DKd:_Evidence_Equals_m1478353107
wjg:_il2cpp_class_is_enum
Amg:__ZN6il2cpp2vm6Thread49CheckCurrentThreadForInterruptAndThrowIfNecessaryEv
rGc:_Convert_ToChar_m3757390865
GQ:__ZNSt3__23mapIN9ShaderLab16FastPropertyNameEN18UnityPropertySheet11UnityTexEnvENS_4lessIS2_EENS_9allocatorINS_4pairIKS2_S4_EEEEEixERS9_
bma:__ZNK13TranslateGLES25GetTextureTargetDimensionEj
mVe:_ReadOnlyCollection_1_System_Collections_IList_Remove_m1842121503_gshared
CPc:_File_OpenRead_m2936789020
_Ec:_Enumerator_get_Entry_m3561948123
ypf:__Z94RuntimeInvoker_Void_t1185182177_RuntimeObject_PlayableGraph_t3515989261_RuntimeObject_IntPtr_tPFvvEPK10MethodInfoPvPS4_
ai:_emscripten_glVertexAttrib4f
E6:__ZNSt3__26vectorIN20GpuProgramParameters14ConstantBufferENS_9allocatorIS2_EEE8__appendEj
fCd:_X509CertificateCollection_AddRange_m3683116910
ndd:_SinkProviderData__ctor_m1624738837
Ntf:__Z88RuntimeInvoker_RuntimeObject_RuntimeObject_SByte_t1669577662_RuntimeObject_RuntimeObjectPFvvEPK10MethodInfoPvPS4_
Jcc:_CustomAttributeTypedArgument_Equals_m2261980307
oba:__ZN9GfxDevice18SetGlobalDepthBiasEff
B7f:__ZN6il2cpp6icalls8mscorlib6System8MonoType12get_AssemblyEP20Il2CppReflectionType
ln:FUNCTION_TABLE_vi
x$e:_Regex_GetGroupIndex_m4131147974
QFe:_Dictionary_2_Do_CopyTo_TisKeyValuePair_2_t3842366416_TisRuntimeObject_m1564656153_gshared
mqb:__Z26ApplyMaterialPassWithCacheRK18SharedMaterialDataR17ShaderPassContextP6ShaderPN9ShaderLab4PassEibPKNS6_10GrabPassesEPNS6_11SubProgramsEPK22DeviceRenderStateBlock
hlf:__Z55RuntimeInvoker_DateTime_t3738529785_TimeSpan_t881159249PFvvEPK10MethodInfoPvPS4_
_Wc:_MulticastDelegate_KPM_m22863605
abe:_InternalEnumerator_1_get_Current_m1897120917_AdjustorThunk
yWc:_MonoType_ReorderParamArrayArguments_m2458683451
sld:_FormatterConverter_ToInt16_m4282804414
Rif:__Z81RuntimeInvoker_Void_t1185182177_Int64_t3736567304_RuntimeObject_Int64_t3736567304PFvvEPK10MethodInfoPvPS4_
Iqg:__ZN30dense_hashtable_const_iteratorINSt3__24pairIK10KeyWrapperIP14Il2CppIUnknownEjEES5_N6il2cpp5utils11PointerHashIS3_EEN14dense_hash_mapIS5_jSB_NS5_14EqualsComparerINS0_8equal_toIS4_EEEENS0_9allocatorIS7_EEE9SelectKeyESG_SI_EppEv
xPc:_FileStream__ctor_m3151488352
Buc:_Array_swap_m547389985
WO:__ZN8Renderer23VirtualRedirectTransferER14SafeBinaryRead
Ove:_UInt32_ToString_m2420423038
gQe:_List_1_System_Collections_IList_Add_m634558835_gshared
$Pc:_FileStream_get_Length_m426703983
jt:__ZN12AudioManager5ResetEv
nka:__ZN6prcoreL17RemapGenericFloatI17TexFormatRGBAHalf15TexFormatRGHalfEEvPKNS_9InnerInfoE
nyg:__ZN6il2cpp6icalls8mscorlib6System11Environment20GetWindowsFolderPathEi
UEg:_GC_is_heap_ptr
Brd:_ASN1_DecodeTLV_m1200977460
b6e:_UnityEventBase_PrepareInvoke_m1785382128
pHe:_InternalAsyncResult_get_CompletedWithError_m3777099678
Hyc:_Char_System_IConvertible_ToUInt32_m3901815580
plf:__Z157RuntimeInvoker_Int32_t2950945753_RuntimeObject_Int32_t2950945753_Int32_t2950945753_Int32_t2950945753_SByte_t1669577662_SByte_t1669577662_Int32U26_t1369213839PFvvEPK10MethodInfoPvPS4_
Yrd:_BitConverterLE_ToInt16_m1855092160
i1:__ZN14SafeBinaryRead19TransferSTLStyleMapINSt3__23mapIN4core12basic_stringIcNS3_20StringStorageDefaultIcEEEES7_NS1_4lessIS7_EE13stl_allocatorINS1_4pairIKS7_S7_EEL18MemLabelIdentifier1ELi16EEEEEEvRT_17TransferMetaFlags
KB:__ZN11UnityEngine15CloudWebService16SessionContainer21PrepareDataErrorEventERN4core12basic_stringIcNS2_20StringStorageDefaultIcEEEE
zzc:_ArrayList_set_Item_m2003485935
Mnc:_SatelliteContractVersionAttribute__ctor_m3630863995
mgb:__Z19TransferField_ArrayI19StreamedBinaryWriteILb0EE27Converter_SimpleNativeClassI8GUIStyleEEvRK23StaticTransferFieldInfoR31RuntimeSerializationCommandInfoRT0_
CVe:_ReadOnlyCollection_1_System_Collections_Generic_IListU3CTU3E_RemoveAt_m3969985996_gshared
wUg:_emscripten_glCopyTexSubImage2D__wrapper
cLc:_NumberFormatter_FastToDecHex_m699829267
E_b:__Z35Transfer_Blittable_FixedBufferFieldI8JSONReadiEvRK29SerializationCommandArgumentsR31RuntimeSerializationCommandInfo
o5:__ZN15SerializeTraitsIN9ShaderLab16FastPropertyNameEE8TransferI19StreamedBinaryWriteILb0EEEEvRS1_RT_
E6f:__ZNSt3__213__vector_baseIN6il2cpp2os19SocketHandleWrapperENS_9allocatorIS3_EEED2Ev
$xf:__ZL48_Type_t3588564251_CustomAttributesCacheGeneratorP21CustomAttributesCache
PMc:_Int64_System_IConvertible_ToUInt32_m109903525
uWb:__ZN5Unity9rapidjson13GenericReaderINS0_4UTF8IcEES3_13JSONAllocatorE10ParseFalseILj0ENS0_19GenericStringStreamIS3_EENS0_15GenericDocumentIS3_S4_S4_EEEEvRT0_RT1_
WLa:__ZNK12CubemapArray20GetRuntimeMemorySizeEv
Zea:__ZN7ApiGLES11BindTextureEjj
F3:__Z14resize_trimmedINSt3__26vectorIN9ShaderLab18SerializedPropertyENS0_9allocatorIS3_EEEEEvRT_j
B4f:__ZN6il2cpp2vm13MetadataCache38GetMethodInfoFromMethodDefinitionIndexEi
LFd:_CostDelegate_EndInvoke_m2797921932
BRa:__ZN10VertexData8TransferI24GenerateTypeTreeTransferEEvRT_
OYd:_Double_IsInfinity_m820013146
Jyg:__ZN13Il2CppHashMapIPK19Il2CppGenericMethodP10MethodInfoN6il2cpp8metadata23Il2CppGenericMethodHashENS6_26Il2CppGenericMethodCompareENSt3__29allocatorINS9_4pairIK10KeyWrapperIS2_ES4_EEEEEC2EjRKS7_RKS8_
Doe:_UTF8Encoding_InternalGetByteCount_m2120178851
YDb:__ZL10CullLightsRK22SceneCullingParametersR11CullResults
PIc:_Convert_ToUInt64_m3170916409
BXe:_InvokableCall_3__ctor_m4245235439_gshared
CMc:_Int64_System_IConvertible_ToInt16_m4062196970_AdjustorThunk
UWc:_MonoType_GetGenericTypeDefinition_m3201894896
uMb:__Z40GetTemporaryCachePathApplicationSpecificv
u9:__ZN9GfxDevice16EndAsyncJobFrameEv
kk:___syscall3
nk:___syscall6
pk:___syscall4
Rid:_ReturnMessage__ctor_m2352989078
m6a:__ZNSt3__26__treeINS_12__value_typeIN4core12basic_stringIcNS2_20StringStorageDefaultIcEEEEPN16MemoryFileSystem4NodeEEENS_19__map_value_compareIS6_SA_NS_4lessIS6_EELb1EEE13stl_allocatorISA_L18MemLabelIdentifier55ELi16EEE7destroyEPNS_11__tree_nodeISA_PvEE
xug:__ZN6il2cpp2vm3RCW14QueryInterfaceILb1EEEP14Il2CppIUnknownP15Il2CppComObjectRK10Il2CppGuid
w2c:_TlsServerCertificateRequest__ctor_m1334974076
nHc:_Convert_ToInt32_m1613163543
fVe:_ReadOnlyCollection_1_System_Collections_ICollection_CopyTo_m3127175806_gshared
Fk:_emscripten_glShaderBinary
Vue:_UInt16_ToString_m760649087
j5a:__ZNK20LocalFileSystemPosix6ExistsERK13FileEntryData
b4e:_Camera_GetAllCameras_m668492922
qse:_TimeSpan_op_Inequality_m2467851530
Lib:__ZN17AnimationCurveTplIfE8TransferI18StreamedBinaryReadILb1EEEEvRT_
i5b:__ZN18UnityConnectClientD2Ev
Wuc:_Swapper_BeginInvoke_m1688449973
Oig:_il2cpp_set_data_dir
Tmf:__Z81RuntimeInvoker_Void_t1185182177_RuntimeObject_Int32_t2950945753_Int64_t3736567304PFvvEPK10MethodInfoPvPS4_
lM:__ZN13dynamic_arrayIcLj1EE6insertEPcPKcS3_
tjf:__Z86RuntimeInvoker_Boolean_t97287965_Int16_t2552820387_Int16_t2552820387_Int32_t2950945753PFvvEPK10MethodInfoPvPS4_
n4b:__ZN11UnityEngine15PlatformWrapper30GetGraphicsDriverLibraryStringEv
M7c:_RuntimeMethodHandle_Equals_m3301340296_AdjustorThunk
kwe:_UInt64_System_IConvertible_ToSingle_m925613075_AdjustorThunk
fkb:__Z18Transfer_BlittableI18StreamedBinaryReadILb0EELb0E4AABBEvRK29SerializationCommandArgumentsR31RuntimeSerializationCommandInfo
D_a:__ZN24GenerateTypeTreeTransfer19TransferSTLStyleMapINSt3__28multimapIN4core12basic_stringIcNS3_20StringStorageDefaultIcEEEE4PPtrI6ObjectENS1_4lessIS7_EE13stl_allocatorINS1_4pairIKS7_SA_EEL18MemLabelIdentifier52ELi16EEEEEEvRT_17TransferMetaFlags
Gub:__Z14DrawGUITextureRK5RectTIfEP7Texture11ColorRGBA32P8Materiali
yVe:_ReadOnlyCollection_1_System_Collections_Generic_ICollectionU3CTU3E_Add_m2686599243_gshared
tvb:__ZN22RenderingCommandBuffer20ExecuteCommandBufferER17ShaderPassContextR15RenderNodeQueuejP13dynamic_arrayINSt3__24pairIN9ShaderLab16FastPropertyNameEP13RenderTextureEELj4EE16ComputeQueueTypeSA_
AIa:__ZN15TextureSettings8TransferI24GenerateTypeTreeTransferEEvRT_
n_b:__ZN9JSONWrite8TransferI4AABBEEvRT_PKc17TransferMetaFlags
Nxa:__ZN25MultiBlocksMemoryFileData9SetLengthEy
kVf:_Aes__ctor_m178909601
ZMa:__ZNK9Texture2D20GetRuntimeMemorySizeEv
Whd:_MethodCall_get_MethodSignature_m2407904958
tWb:__ZN5Unity9rapidjson13GenericReaderINS0_4UTF8IcEES3_13JSONAllocatorE9ParseTrueILj0ENS0_19GenericStringStreamIS3_EENS0_15GenericDocumentIS3_S4_S4_EEEEvRT0_RT1_
Nl:_emscripten_glUniform2iv
V$f:__ZN6il2cpp2vm5Class10GetMethodsEP11Il2CppClassPPv
Wzb:__Z30AddDefaultStreamsToMeshBuffersR9GfxDeviceR11MeshBuffersRK16DrawBuffersRange17ShaderChannelMaskS6_
mma:__ZN7ApiGLES17DeleteFramebufferERN2gl6HandleILNS0_10ObjectTypeE9EEES3_
Qpa:__ZN15UniformTFMethod13MapBoneBufferEj
IGe:_Array_InternalArray__get_Item_TisParameterModifier_t1461694466_m29553316_gshared
UMc:_Int64_CompareTo_m1928360444_AdjustorThunk
kpb:__Z9SetupArgviPPKc
DHc:_Convert_ToInt64_m2075031821
oVg:_glTexParameteri__wrapper
_La:__ZN12CubemapArray23VirtualRedirectTransferER24GenerateTypeTreeTransfer
TM:__ZN12FileAccessor4OpenER15FileSystemEntry14FilePermission16FileAutoBehavior
jxg:__ZN6il2cpp2os9Directory6CreateERKNSt3__212basic_stringIcNS2_11char_traitsIcEENS2_9allocatorIcEEEEPi
YR:__ZN23TransformChangeDispatch32QueueTransformChangeIfHasChangedERK15TransformAccess
kLa:__ZNSt3__26vectorINS_4pairIN9ShaderLab16FastPropertyNameEN18UnityPropertySheet11UnityTexEnvEEENS_9allocatorIS6_EEE21__push_back_slow_pathIKS6_EEvRT_
Vac:_Assembly_get_FullName_m293988418
B:tempValue
GIg:__ZN6il2cpp8metadata24Il2CppGenericContextHash4HashEPK20Il2CppGenericContext
i9d:_InternalEnumerator_1_get_Current_m356936020_AdjustorThunk
iMc:_Int32_ToString_m141394615_AdjustorThunk
BAc:_ArrayListWrapper_CopyTo_m498486826
WOc:_Directory_GetCurrentDirectory_m219218555
orc:_SmallXmlParser_UnexpectedEndError_m1914362401
dfa:__ZN14DelayedDeletorI15dense_hashtableINSt3__24pairIK9TextureIDiEES3_14GfxGenericHashIS3_EN14GfxDoubleCacheIS3_iS7_NS1_8equal_toIS3_EEN31GfxDoubleCacheConcurrencyPolicy11LocklessGetE42GfxDoubleCacheDefaultEmptyDeletedGeneratorIS3_EE9SelectKeyESA_13stl_allocatorIS5_L18MemLabelIdentifier24ELi16EEEEclEv
pre:_TimeSpan__ctor_m1896986612_AdjustorThunk
K3f:__ZN15dense_hashtableINSt3__24pairIK10KeyWrapperIN6il2cpp5utils13dynamic_arrayIPK10Il2CppTypeLj4EEEEPFvvEEESA_NS3_8metadata19Il2CppSignatureHashEN14dense_hash_mapISA_SD_SG_NSA_14EqualsComparerINSF_22Il2CppSignatureCompareEEENS0_9allocatorISE_EEE9SelectKeyESK_SM_E9set_valueEPSE_RKSE_
Mpc:_ArgumentException__ctor_m1216717135
L8e:_Ray_ToString_m1732834890_AdjustorThunk
Wx:__ZN11AudioModule22CreateAudioClipFromWWWEP10IWWWStreamPKcbbi
nQb:__ZN9Texture2DC2E10MemLabelId18ObjectCreationMode
ji:_emscripten_glRotatef
Zue:_UInt32_System_IConvertible_ToBoolean_m1763673183_AdjustorThunk
BMb:__ZN6prcoreL11inner_clearILj4EEEvPhjjj
Jye:_Array_InternalArray__ICollection_Remove_TisByte_t1134296376_m2266787817_gshared
Tdf:__Z74RuntimeInvoker_Void_t1185182177_RuntimeObject_StreamingContext_t3711869237PFvvEPK10MethodInfoPvPS4_
mEg:_GC_initialize_offsets
KZ:__ZNK8Playable6HandleEv
ZK:__ZN14MessageHandler28MessageIDToMessageIdentifierEi
XRa:__ZNK11SpriteAtlas20GetRuntimeRenderDataEPK6Sprite
MOc:_FileSystemInfo__ctor_m3035148496
ALc:_Int32_System_IConvertible_ToDecimal_m2190376994_AdjustorThunk
Xc:emscriptenWebGLGetUniform
mn:FUNCTION_TABLE_iiiiiiiiiii
FFb:__ZL10CleanUpJobP20CullingGroupsJobData
HOc:_DirectoryInfo_get_Exists_m3142069876
xub:__ZN13RenderManager15BatchModeUpdateEv
fRa:__ZN14SafeBinaryRead21TransferSTLStyleArrayI13dynamic_arrayI8Vector2fLj4EEEEvRT_17TransferMetaFlags
IO:__ZN17PersistentManager51InstanceIDToLocalSerializedObjectIdentifierInternalEiR31LocalSerializedObjectIdentifier
Ac:_glVertexAttribIPointer
bne:_StringBuilder_ToString_m3317489284
Fla:__ZN13dynamic_arrayI21ComputeShaderResourceLj4EE9push_backERKS0_
qze:_Array_InternalArray__ICollection_Remove_TisUInt32_t2560061978_m733727733_gshared
$8c:_CryptographicException__ctor_m503735289
uQc:_Stream_EndRead_m1896469262
lbf:__Z93RuntimeInvoker_Boolean_t97287965_Int32_t2950945753_SByte_t1669577662_ExceptionU26_t3600731591PFvvEPK10MethodInfoPvPS4_
Qxb:__ZN14qsort_internal5QSortIP15RODataDepthPassi17ROSorterDepthPassEEvT_S4_T0_T1_
U5c:_RSASslSignatureDeformatter_SetHashAlgorithm_m895570787
ALe:_X509CrlEntry__ctor_m4013514048
H9:__ZN9GfxDevice27UpdateComputeSkinPoseBufferEP9GfxBufferP12SkinMeshInfo
OMg:__ZNKSt3__221__basic_string_commonILb1EE20__throw_length_errorEv
Ai:_JS_SystemInfo_GetMemory
uBe:_Array_InternalArray__IndexOf_TisParameterModifier_t1461694466_m1227120810_gshared
nna:__ZN18GfxFramebufferGLES13ReadbackImageER14ImageReferenceiiiiii
XWb:__ZN5Unity9rapidjson6WriterI16TempBufferWriterNS0_4UTF8IcEES4_13JSONAllocatorE11WriteStringEPKcj
nnd:_SerializationInfo_SetType_m3923964808
Sia:__ZN6prcoreL12RemapGenericI17TexFormatARGB888815TexFormatRGB565EEvPKNS_9InnerInfoE
wu:__ZN4FMOD7Channel19setReverbPropertiesEPK29FMOD_REVERB_CHANNELPROPERTIES
ASc:_StreamReader_Dispose_m156389394
IJ:__ZN13MonoBehaviour22GetScriptFullClassNameEv
nOb:__ZN13ProduceHelperI11MonoManagerLb0EE7ProduceE10MemLabelId18ObjectCreationMode
ZFd:_RIPEMD160Managed_JJ_m112143231
mxb:__ZN13BatchRendererC2ER15RenderLoopStatsRK15RenderNodeQueuebb
d6a:__ZNK16MemoryFileSystem9EnumerateEPKcP19dynamic_block_arrayI13FileEntryInfoLj32EEbPPv19FileEnumerationFlag
inb:__ZN13MonoBehaviour9CallAwakeEv
sHa:__ZN20SphericalHarmonicsL211AddWeightedERKS_f
nef:__Z82RuntimeInvoker_RuntimeObject_Int64_t3736567304_Int64_t3736567304_Int64_t3736567304PFvvEPK10MethodInfoPvPS4_
rcb:__Z19TransferField_ArrayI17RemapPPtrTransfer27Converter_SimpleNativeClassI8GUIStyleEEvRK23StaticTransferFieldInfoR31RuntimeSerializationCommandInfoRT0_
HXb:__ZN9JSONWrite8TransferI10ColorRGBAfEEvRT_PKc17TransferMetaFlags
TK:__Z25scripting_method_get_name18ScriptingMethodPtr
d6c:_SslCipherSuite_ComputeKeys_m661027754
Kab:__Z19TransferField_ArrayI14SafeBinaryRead16Converter_StringEvRK23StaticTransferFieldInfoR31RuntimeSerializationCommandInfoRT0_
qWd:_Decimal_Equals_m2486655999
oEg:_GC_exit_check
Bkc:_MonoField_ToString_m2518484388
xsd:_DSAManaged_get_Random_m923751780
jEd:_Interpreter_PopulateGroup_m4042796257
vJb:__ZNSt3__26vectorINS_4pairIN4core12basic_stringIcNS2_20StringStorageDefaultIcEEEES6_EE13stl_allocatorIS7_L18MemLabelIdentifier38ELi16EEE6insertENS_11__wrap_iterIPKS7_EERSD_
q6e:_RenderPipelineManager_DoRenderLoop_Internal_m3799666479
MJe:_PKCS12_get_Certificates_m26161562
iwd:_NameObjectCollectionBase_Init_m2525481323
Czg:__ZN6il2cpp2vm6String8NewUtf16EPKDsi
Uwg:__ZN6il2cpp2os10ThreadImpl12QueueUserAPCEPFvPvES2_
l1e:_RegularExpression__ctor_m119502265
_4b:__ZN22BaseUnityConnectClient10QueueEventERN11UnityEngine15CloudWebService17CloudServiceEventEPKcjb
zVe:_ReadOnlyCollection_1_System_Collections_Generic_ICollectionU3CTU3E_Clear_m522482168_gshared
chd:_ConstructionCall_InitMethodProperty_m2021094586
qjg:_il2cpp_class_is_abstract
Qe:_emscripten_glGetError
Qgg:__ZN15dense_hashtableINSt3__24pairIK10KeyWrapperIPK14Il2CppAssemblyEPK22Il2CppMonoAssemblyNameEES6_N6il2cpp5utils11PointerHashIS4_EEN14dense_hash_mapIS6_SA_SF_NS6_14EqualsComparerINS0_8equal_toIS5_EEEENS0_9allocatorISB_EEE9SelectKeyESK_SM_E14squash_deletedEv
hv:__Z14FMOD_FILE_SeekPvjS_
OHa:__ZN7TextureC2E10MemLabelId18ObjectCreationMode
j4f:__ZN14dense_hash_mapI10KeyWrapperIN6il2cpp5utils13dynamic_arrayIPK10Il2CppTypeLj4EEEEPFvvENS1_8metadata19Il2CppSignatureHashENS8_14EqualsComparerINSB_22Il2CppSignatureCompareEEENSt3__29allocatorINSG_4pairIKS8_SA_EEEEEC2EjRKSC_RKSF_
GGb:__ZNK13RenderTexture32CalculateNeedsInvertedProjectionEv
ILb:__ZN10systeminfo18GetOperatingSystemEv
Ye:emscriptenWebGLGet
cW:__Z19CanReplaceComponentRN5Unity9ComponentEPKNS_4TypeEPN4core12basic_stringIcNS5_20StringStorageDefaultIcEEEE
AUc:_UnmanagedMemoryStream_Flush_m1540584491
_Ic:_GuidParser_ParseGuid2_m1914838819
gQb:__ZN12CubemapArray11InitTextureEiii13TextureFormatb
cIc:_Convert_ToSingle_m3983149863
c4d:_InternalEnumerator_1_System_Collections_IEnumerator_get_Current_m55999184_gshared
EAb:__ZL24AssignProjectorQueuesJobP30AssignProjectorQueuesJobHeader
cs:__ZN24AudioScriptBufferManagerC2Ev
mmc:_ParameterModifier_t1461694466_marshal_pinvoke
R3f:__ZN15dense_hashtableINSt3__24pairIK10KeyWrapperIN6il2cpp5utils13dynamic_arrayIPK10Il2CppTypeLj4EEEEPFvvEEESA_NS3_8metadata19Il2CppSignatureHashEN14dense_hash_mapISA_SD_SG_NSA_14EqualsComparerINSF_22Il2CppSignatureCompareEEENS0_9allocatorISE_EEE9SelectKeyESK_SM_E4swapERSP_
M6:__ZN9ShaderLab20SerializedSubProgram14SetConstBufferEPKci
_9f:__ZN6il2cpp2os4File5CloseEPNS0_10FileHandleEPi
q3f:__ZNSt3__27__sort5IRN6il2cpp5utils11collections13ArrayValueMapIPK10Il2CppType17Il2CppInteropData26InteropDataToTypeConverterNS1_8metadata14Il2CppTypeLessENSA_26Il2CppTypeEqualityComparerEE12SortComparerEPS8_EEjT0_SH_SH_SH_SH_T_
Due:_UInt16_CompareTo_m2664746316_AdjustorThunk
xG:__Z40DebugStringToFilePostprocessedStacktraceRK21DebugStringToFileData
t0b:__Z29Transfer_Blittable_ArrayFieldI8JSONReadjEvRT_R9ArrayInfoRK23StaticTransferFieldInfo
uEg:_GC_check_finalizer_nested
Ff:__setLetterbox
PTf:__ZL72FormerlySerializedAsAttribute_t2859083114_CustomAttributesCacheGeneratorP21CustomAttributesCache
AUa:__ZNSt3__26vectorI17BlendShapeChannelNS_9allocatorIS1_EEE6assignINS_11__wrap_iterIPS1_EEEENS_9enable_ifIXaasr21__is_forward_iteratorIT_EE5valuesr16is_constructibleIS1_NS_15iterator_traitsISA_E9referenceEEE5valueEvE4typeESA_SA_
BLb:__ZN11TimeManager11GetRealtimeEv
Bv:__ZN29AudioEffectInternalDefinitionC2EP26UnityAudioEffectDefinitionb
RRa:__ZN10VertexData8TransferI19StreamedBinaryWriteILb0EEEEvRT_
gFd:_Interval_get_IsSingleton_m3386290029
Lbg:__ZNSt3__2plIcNS_11char_traitsIcEENS_9allocatorIcEEEENS_12basic_stringIT_T0_T1_EERKS9_PKS6_
bWa:__ZN4Mesh14GetMeshBuffersER11MeshBuffers17ShaderChannelMaskPS_b
PHd:_SHA384Managed__ctor_m3220477113
Rha:_stbir_resize
RAe:_Array_IndexOf_TisCustomAttributeTypedArgument_t2723150157_m3158556463_gshared
e_d:_Environment_GetOSVersionString_m407782784
RPd:_DecoderExceptionFallback_Equals_m1082173956
RBf:__ZL69Assembly_t_CustomAttributesCacheGenerator_Assembly_GetName_m981771927P21CustomAttributesCache
Txa:__Z37ReadDirectoryInfo_UnityWebAndUnityRawR12FileAccessorRKN20ArchiveStorageHeader6HeaderERNS1_13DirectoryInfoE
nV:__ZNSt3__26__treeINS_12__value_typeIPKciEENS_19__map_value_compareIS3_S4_15compare_tstringIS3_ELb1EEENS_9allocatorIS4_EEE7destroyEPNS_11__tree_nodeIS4_PvEE
sMc:_Int64_System_IConvertible_ToByte_m375085029_AdjustorThunk
ucd:_RijndaelManaged_CreateEncryptor_m263736311
E5b:__ZN13dynamic_arrayIN4core12basic_stringIcNS0_20StringStorageDefaultIcEEEELj4EE6assignEPKS4_S7_
Oxb:__ZN20DynamicPropertySheet14SetValueQueuedEN9ShaderLab16FastPropertyNameEN19ShaderPropertySheet12PropertyTypeEjNS2_8SetFlagsE
C5e:_InvokableCallList_ClearPersistent_m1904264973
vqa:__ZN16GeometryJobTasks20ScheduleGeometryJobsER9GfxDevicePFvP15GeometryJobDataEPK22GeometryJobInstructionjb
Kob:__ZN25PathNamePersistentManagerD2Ev
kI:__ZN17PersistentManager48IntegrateObjectAndUnlockIntegrationMutexInternalEi
b0:__ZZ29InitializeSortingGroupManagerPvEN44PostLateUpdateSortingGroupsUpdateRegistrator7ForwardEv
uLd:_SecurityElement_SearchForChildByTag_m900466299
Xn:__ZN6Object12SetHideFlagsENS_9HideFlagsE
XHc:_Convert_ToSingle_m3227075028
ySg:_emscripten_glGetFramebufferAttachmentParameteriv__wrapper
koe:_UTF7Encoding_GetByteCount_m3616172568
jGa:__Z28CalculateGlobalMatrixInverse23TransformAccessReadOnly
gle:_GenericEqualityComparer_1_Equals_m3457564127_gshared
rGe:_Array_InternalArray__get_Item_TisSlot_t3975888750_m905303097_gshared
NPd:_DecoderExceptionFallback__ctor_m4044614564
FUc:_LocalDataStoreSlot__cctor_m644942532
qlc:_MonoProperty_CachePropertyInfo_m2968057423
K8b:__ZNK25UnityWebRequestJavaScript18GetDownloadedBytesEv
C8b:__ZN12HeaderHelper14SetUnvalidatedERKN4core12basic_stringIcNS0_20StringStorageDefaultIcEEEES6_b
zr:__ZN4FMOD6SoundI7releaseEv
hWa:__ZN14SpriteRenderer13AwakeFromLoadE17AwakeFromLoadMode
vya:__ZN10MemoryFile9SetLengthEy
web:__ZN5RectTIiE8TransferI24GenerateTypeTreeTransferEEvRT_
A_d:_Exception_get_ClassName_m2428844642
Mnb:__Z28scripting_class_is_interface17ScriptingClassPtr
Wg:_glTexStorage2D
Mlc:_MonoProperty_GetOptionalCustomModifiers_m62958967
h6:__ZNK9ShaderLab10SubProgram14EnsureCompiledEv
Lgc:_MethodBuilder_GetGenericArguments_m1765425737
GSd:_DateTime_CompareTo_m3687348273
jDg:_GC_push_marked
OTd:_DateTime_ToUniversalTime_m1945318289_AdjustorThunk
uqd:_Kernel_modInverse_m668448880
JK:__Z18BuildScriptClassId17ScriptingClassPtr
eBe:_Array_InternalArray__IndexOf_TisSlot_t384495010_m3224390719_gshared
Xva:__ZL31DeleteLastPathNameComponentImplRKN4core12basic_stringIcNS_20StringStorageDefaultIcEEEEPKc
nNb:__Z13RegisterClassI18DelayedCallManagerEvv
m5b:__ZN18UnityConnectClient15GetCloudServiceEv
aab:__Z29Transfer_Blittable_ArrayFieldI14SafeBinaryRead5RectTIiEEvRT_R9ArrayInfoRK23StaticTransferFieldInfo
h8d:_InternalEnumerator_1_get_Current_m2698009637_gshared
Fnb:__ZL28SerializationCommandGroupForRK31TransferFunctionScriptingTraits17ScriptingClassPtr17ScriptingFieldPtrRK20CoreScriptingClasses
_Aa:__ZN10TagManager32RegisterDefaultTagsAndLayerMasksEv
jre:_WaitHandle_Dispose_m738127030
pkf:__Z50RuntimeInvoker_Double_t594665363_Int32_t2950945753PFvvEPK10MethodInfoPvPS4_
$4f:__ZN15dense_hashtableINSt3__24pairIK10KeyWrapperIPKcEP11Il2CppClassEES5_N6il2cpp5utils11StringUtils12StringHasherIS4_EEN14dense_hash_mapIS5_S8_SE_NS5_14EqualsComparerINSB_13VmStringUtils21CaseSensitiveComparerEEENS0_9allocatorIS9_EEE9SelectKeyESJ_SL_E15insert_noresizeERKS9_
pMd:_Single_System_IConvertible_ToInt16_m809233024_AdjustorThunk
bLg:_fmodf
TGd:_RSAPKCS1SHA1SignatureDescription__ctor_m621804060
fea:__ZN4gles8InitCapsEP7ApiGLESP12GraphicsCapsR16GfxDeviceLevelGL
Hba:__ZN13GfxDeviceGLES22GetNativeBufferPointerEP9GfxBuffer
oEa:__Z24CalculateVertexLightDataRK15SharedLightDataR14GfxVertexLight
Eh:_glEnable
e6:__ZNK9ShaderLab7Program28BeginReadUnsupportedVariantsEv
KR:__ZN12CachedWriter11Align4WriteEv
k$a:__ZNSt3__26vectorIN30RuntimeInitializeOnLoadManager9ClassInfoE13stl_allocatorIS2_L18MemLabelIdentifier13ELi16EEE7reserveEj
UXb:__Z35Transfer_Blittable_FixedBufferFieldI9JSONWriteiEvRK29SerializationCommandArgumentsR31RuntimeSerializationCommandInfo
Ohg:__ZN14dense_hash_mapI10KeyWrapperINSt3__24pairIPK10MethodInfoP11Il2CppClassEEEj17ReflectionMapHashIS8_ENS9_14EqualsComparerINS1_8equal_toIS8_EEEENS1_9allocatorINS2_IKS9_jEEEEEC2EjRKSB_RKSF_
eUc:_UnexceptionalStreamReader_Peek_m1842169584
P3b:__ZN11UnityEngine7Connect15DeviceInfoEvent16CollectExtraInfoEv
q9c:_CryptographicException__ctor_m1422015889
QIc:_Convert_ChangeType_m739676612
kBg:__ZThn8_N6il2cpp2vm13CachedCCWBaseINS0_13ManagedObjectEE6AddRefEv
g0c:_Alert_GetAlertMessage_m1942367141
Oed:_RemotingServices_GetRealProxy_m2081098851
dsd:_BlockProcessor_Core_m189015002
GSg:_emscripten_glScissor__wrapper
qn:FUNCTION_TABLE_viifi
rn:FUNCTION_TABLE_viiff
Tpc:_X501__cctor_m1166912714
Qxf:__ZL37Type_t_CustomAttributesCacheGeneratorP21CustomAttributesCache
rag:__ZN6il2cpp2vm14TypeNameParser5ParseEb
PUc:_Math_Sqrt_m1297338011
TSc:_StreamWriter_Initialize_m3490883444
Hte:_Type_GetGenericArguments_m3500465462
F7b:__ZN23UnityPurchasingSettingsC2Ev
yjc:_Module_IsDefined_m2423524910
UBd:_X509Certificate2Enumerator__ctor_m1083666285
dDa:__ZN17GPUFenceInternals7ReleaseEv
HGb:__ZL10RenderFaceR9GfxDeviceR18MaterialStateCacheP13RenderTextureiif
QAe:_Array_IndexOf_TisCustomAttributeNamedArgument_t287865710_m2817957199_gshared
S2:__ZN15SerializeTraitsI13dynamic_arrayIN9ShaderLab21SerializedBindChannelELj4EEE19ResizeSTLStyleArrayERS3_i
Arg:__ZNK24NamespaceAndNamePairHashclERKNSt3__24pairIPKcS3_EE
$Ie:_ExtendedKeyUsageExtension_ToString_m2116504780
d2a:__ZNK5Unity9Component38MarkGameObjectAndComponentDependenciesER27GarbageCollectorThreadState
kOc:_BinaryReader_Read_m3708759962
YTg:_emscripten_glVertexAttrib2fv__wrapper
sTc:_SynchronizedReader_ReadToEnd_m2160105378
BYd:_Double_System_IConvertible_ToUInt16_m4132603953_AdjustorThunk
F3b:__ZN11UnityEngine15PlatformWrapper16GetVRRenderScaleEv
UYb:__Z18Transfer_BlittableI9JSONWriteLb0EaEvRK29SerializationCommandArgumentsR31RuntimeSerializationCommandInfo
eB:__ZN11UnityEngine15CloudWebService14DataDispatcher34OnSessionContainerArchivedAndReadyERNS0_16SessionContainerE
r7e:_ConnectionChangeEvent__ctor_m764126802
Hmc:_ResolveEventHandler_Invoke_m1337322179
g2e:_UriParser_InternalRegister_m3643767086
o1:__ZN14SafeBinaryRead19TransferSTLStyleMapINSt3__23mapIN4core12basic_stringIcNS3_20StringStorageDefaultIcEEEEiNS1_4lessIS7_EENS1_9allocatorINS1_4pairIKS7_iEEEEEEEEvRT_17TransferMetaFlags
LUd:_DBNull_System_IConvertible_ToSingle_m13713620
Bfg:__ZN6il2cpp2vm10Reflection14GetEventObjectEP11Il2CppClassPK9EventInfo
Yte:_TypeLoadException__ctor_m1154572625
j3c:_Context_get_WriteSequenceNumber_m1115956887
VFe:_Dictionary_2_Do_ICollectionCopyTo_TisKeyValuePair_2_t2401056908_m1169495264_gshared
vhc:_OpCodes__cctor_m3821715395
k1b:__ZN8JSONRead8TransferI9BoundsIntEEvRT_PKc17TransferMetaFlagsb
$a:invoke_viidi
_7c:_SByte_System_IConvertible_ToChar_m1489191771_AdjustorThunk
au:__ZN9AudioClip7CleanupEv
Xlg:__ZNK15dense_hashtableINSt3__24pairIK10KeyWrapperIP11Il2CppClassES4_EES5_N6il2cpp8metadata16SZArrayClassHashEN14dense_hash_mapIS5_S4_SA_NS5_14EqualsComparerINS9_19SZArrayClassCompareEEENS0_9allocatorIS7_EEE9SelectKeyESE_SG_E12test_deletedEj
N$b:__Z18Transfer_BlittableI8JSONReadLb0EdEvRK29SerializationCommandArgumentsR31RuntimeSerializationCommandInfo
bgd:_SynchronizationAttribute_EnterContext_m1660729920
J8:__ZNK9GfxDevice13GetViewMatrixEv
BUc:_UnmanagedMemoryStream_Dispose_m2681886347
d1a:__ZN17RemapPPtrTransferC2E24TransferInstructionFlagsb
JGc:_Convert_ToDecimal_m889385228
fM:__ZN8TypeTree8BlobReadERPKhS1_ib
tuc:_Array_Reverse_m3714848183
H$a:__ZN18LoadSceneOperation23GetAllowSceneActivationEv
yBa:__ZN6CameraD0Ev
P_:__ZN31CanvasBatchIntermediateRenderer16StaticInitializeEPv
__a:__ZN14SafeBinaryRead21TransferSTLStyleArrayINSt3__26vectorIi13stl_allocatorIiL18MemLabelIdentifier13ELi16EEEEEEvRT_17TransferMetaFlags
wQd:_EncoderFallback__cctor_m3806755293
ila:__ZL18ProgramUniform1uivPK7ApiGLESjiihPKv
qQb:__ZN14Texture2DArray13RebuildMipMapEv
Q0f:__ZN13Il2CppHashSetIPK17Il2CppGenericInstN6il2cpp8metadata21Il2CppGenericInstHashENS4_24Il2CppGenericInstCompareENSt3__29allocatorI10KeyWrapperIS2_EEEEC2EjRKS5_RKS6_
a8a:__Z18Transfer_BlittableI14SafeBinaryReadLb1EaEvRK29SerializationCommandArgumentsR31RuntimeSerializationCommandInfo
N6:__ZN9ShaderLab20SerializedSubProgram14AddVectorParamEPKcii15ShaderParamTypei
pFc:_Enumerator__ctor_m3362421874
Ipf:__Z117RuntimeInvoker_CSSSize_t3377836552_IntPtr_t_Single_t1397266774_Int32_t2950945753_Single_t1397266774_Int32_t2950945753PFvvEPK10MethodInfoPvPS4_
PXg:_emscripten_glIsFramebuffer__wrapper
$ug:__ZN6il2cpp2vm6Object3BoxEP11Il2CppClassPv
Lmg:__ZN6il2cpp2vm6Thread7SetNameEP12Il2CppThreadP12Il2CppString
Spb:__ZN13ScreenManager18SetAllowCursorLockEb
yC:__ZN11UnityEngine15CloudWebService10RestClientINS0_23WebRequestRestHeaderMapEE16SetRequestHeaderERKN4core12basic_stringIcNS4_20StringStorageDefaultIcEEEESA_
d$a:__ZN30RuntimeInitializeOnLoadManager15ClassMethodInfo8TransferI14SafeBinaryReadEEvRT_
Tgd:_ConstructionCall_InitDictionary_m2824447813
_y:__ZL22InitializeModule_Audiov
S5a:__ZN16MemoryFileSystem8IsLockedERK13FileEntryData
sog:__ZN6il2cpp6icalls8mscorlib6System2IO6MonoIO5WriteEiP11Il2CppArrayiiPi
Ehf:__Z92RuntimeInvoker_RuntimeObject_RuntimeObject_RuntimeObject_SByte_t1669577662_SByte_t1669577662PFvvEPK10MethodInfoPvPS4_
qk:_emscripten_glBindRenderbuffer
jEg:_GC_dirty_init
tsg:__ZN6il2cpp2vm5Image33GetCachedMemoryMappedResourceFileEP24Il2CppReflectionAssembly
Nug:__ZN6il2cpp2vm5Field14GetValueObjectEP9FieldInfoP12Il2CppObject
Tre:_TimeSpan_CompareTo_m3633415627_AdjustorThunk
EY:__ZN6Object17FindObjectsOfTypeEPKN5Unity4TypeER13dynamic_arrayIPS_Lj4EEb
nUe:_Collection_1_Remove_m3611142372_gshared
cnb:__ZN13MonoBehaviour17RemoveFromManagerEv
dCa:__ZN12ImageFilters14AddImageFilterERK11ImageFilter
_ed:_Context_NotifyDynamicSinks_m1841702879
gLd:_WindowsIdentity_System_Runtime_Serialization_IDeserializationCallback_OnDeserialization_m3428853631
NF:__ZN13MemoryManagerC2Ev
bpa:__ZN12SkinMeshInfo10DeallocateEPS_
Kya:__ZN20ArchiveStorageReader28AcquireAndPrefillUnusedBlockEjPNS_11CacheResultE
cwc:_Boolean_System_IConvertible_ToDateTime_m603510836
kQb:__Z12NHxRoughnessIA4_tEvP9Texture2DPT_iiii
Grd:_ASN1_get_Value_m1857007406
YY:__ZN18AsyncUploadManagerD2Ev
u3a:__ZN9Transform5ResetEv
RWd:_Decimal_op_Explicit_m1842265407
Meb:__Z22TransferField_NonArrayI24GenerateTypeTreeTransfer16Converter_StringEvRK23StaticTransferFieldInfoR31RuntimeSerializationCommandInfoRT0_
GJf:__ZL52Activator_t1841325713_CustomAttributesCacheGeneratorP21CustomAttributesCache
Lpb:__Z17MainLoopKeepalivePv
kbe:_InternalEnumerator_1_get_Current_m1588647567_AdjustorThunk
lKg:_printf_core
vDf:__ZL51GCHandle_t3351438187_CustomAttributesCacheGeneratorP21CustomAttributesCache
REb:__Z14CalcHullBoundsPK8Vector3fPKhhRK5PlaneRK10Matrix4x4fR10MinMaxAABB
Jxb:__Z19SetupLODFadeKeywordR17ShaderPassContexti
dHd:_RSAPKCS1SignatureFormatter_CreateSignature_m3191980616
EJa:__ZN10builtintex16GetDefaultTexEnvE16TextureDimensionb
Foa:__ZL25CheckCopyTextureArgumentsRK7ApiGLESP11GLESTextureS3_
DWg:_glDeleteShader__wrapper
jeb:__Z29Transfer_Blittable_ArrayFieldI24GenerateTypeTreeTransferyEvRT_R9ArrayInfoRK23StaticTransferFieldInfo
b0e:_AnchorInfo_GetInterval_m2808989035
XMc:_Int64_GetHashCode_m703091690
v0d:_CultureInfo_set_DateTimeFormat_m1843682751
YWd:_Decimal_op_Implicit_m4256234411
mt:__ZN12AudioManager23VirtualRedirectTransferER18StreamedBinaryReadILb0EE
fef:__Z60RuntimeInvoker_RuntimeObject_RuntimeObject_Int16_t2552820387PFvvEPK10MethodInfoPvPS4_
jUa:__ZN10VertexData13SwapEndianessEv
wSc:_StreamReader__ctor_m3941437302
TPg:dynCall_viif
RPg:dynCall_viii
nTc:_StringReader_ReadLine_m2337102945
Rbb:__ZL26Transfer_SimpleNativeClassI17RemapPPtrTransfer8GradientLb0EEvRK29SerializationCommandArgumentsR31RuntimeSerializationCommandInfo
mEc:_SyncHashtable_Add_m3016107307
Lwc:_Boolean_Equals_m2410333903_AdjustorThunk
C7f:__ZN6il2cpp6icalls8mscorlib6System8MonoType14get_attributesEP20Il2CppReflectionType
tD:__ZN13UploadHandlerD2Ev
Sb:_emscripten_glBlendFuncSeparate
$J:__Z20scripting_string_newPKc
q1e:_Parser_IsSingleline_m326238187
uCc:_CollectionBase_get_Count_m1708965601
Nad:_HMAC__ctor_m97939284
qXb:__ZN9JSONWrite12AppendToNodeEPN5Unity9rapidjson12GenericValueINS1_4UTF8IcEE13JSONAllocatorEEPKcRS6_
Nrd:_ASN1_ToString_m1340204511
ABd:_X509Store_get_Certificates_m2149701265
S9f:__ZN6il2cpp2os4File17GetFileAttributesERKNSt3__212basic_stringIcNS2_11char_traitsIcEENS2_9allocatorIcEEEEPi
Frf:__Z56RuntimeInvoker_Void_t1185182177_MonoResource_t4103430009PFvvEPK10MethodInfoPvPS4_
cCg:_GC_unpromote_black_lists
Wma:__ZN18GfxFramebufferGLES18ReleaseFramebufferEP17RenderSurfaceBaseP14GfxContextGLES
D_b:__Z18Transfer_BlittableI8JSONReadLb1EiEvRK29SerializationCommandArgumentsR31RuntimeSerializationCommandInfo
ME:__ZN19CloudServiceHandler34HandleSaveFileWebRequestPlayerLoopEv
$r:__Z31GetParentSampleClipFromInstancePN11SoundHandle8InstanceE
xOb:__ZNK28RectTransformPropertyBinding13GetFloatValueERKN11UnityEngine9Animation10BoundCurveE
cHb:__ZN6Camera22StandaloneCustomRenderENS_10RenderFlagEP6ShaderRKN4core12basic_stringIcNS3_20StringStorageDefaultIcEEEEPNS_21PerformRenderFunctionE
aBe:_Array_InternalArray__IndexOf_TisKeyValuePair_2_t2401056908_m4118889689_gshared
v_a:__ZNSt3__26vectorI4PPtrI6ObjectE13stl_allocatorIS3_L18MemLabelIdentifier52ELi16EEE6assignINS_11__wrap_iterIPS3_EEEENS_9enable_ifIXaasr21__is_forward_iteratorIT_EE5valuesr16is_constructibleIS3_NS_15iterator_traitsISD_E9referenceEEE5valueEvE4typeESD_SD_
$Ig:__ZN6il2cpp2os16ThreadLocalValue8GetValueEPPv
DAd:_X509Certificate2_get_PublicKey_m370665820
h5f:__ZN6il2cpp2vm13MetadataCache14GetGenericInstEPKPK10Il2CppTypej
bz:__ZN13AudioListener17ReadExtensionNameEi
nb:invoke_iiidii
Nn:setThrew
bQb:__ZL21BuildEmptyCubeTexturePKci11ColorRGBA3217TextureColorSpace
r1:__ZN14SafeBinaryRead21TransferSTLStyleArrayINSt3__26vectorIN9ShaderLab20SerializedSubProgramENS1_9allocatorIS4_EEEEEEvRT_17TransferMetaFlags
zBe:_Array_InternalArray__IndexOf_TisX509ChainStatus_t133602714_m48896230_gshared
nxa:__ZN19dynamic_block_arrayI13FileEntryInfoLj32EE4growEj
M_b:__Z15Transfer_StringI8JSONReadLb1EEvRK29SerializationCommandArgumentsR31RuntimeSerializationCommandInfo
Fja:__ZN6prcoreL17RemapGenericFloatI17TexFormatRGBFloat15TexFormatRGHalfEEvPKNS_9InnerInfoE
kpg:__ZNSt3__212basic_stringIDsNS_11char_traitsIDsEENS_9allocatorIDsEEE21__grow_by_and_replaceEjjjjjjPKDs
bbd:_HMAC_Initialize_m3157696427
hLg:___strchrnul
mF:__ZN13BaseAllocator13TryDeallocateEPv
xzd:_X509SubjectKeyIdentifierExtension__ctor_m2055934916
nDa:__ZNSt3__26vectorIN12FlareManager10FlareEntryENS_9allocatorIS2_EEE21__push_back_slow_pathIKS2_EEvRT_
hKg:_sprintf
mUb:__ZN9Scripting25CreateNullExceptionObjectE18ScriptingObjectPtr
Qtd:_PrivateKeyInfo_DecodeRSA_m2889346634
Vs:__ZN13AudioListener17RemoveFromManagerEv
Mc:_glAttachShader
ulf:__Z241RuntimeInvoker_Boolean_t97287965_RuntimeObject_RuntimeObject_RuntimeObject_SByte_t1669577662_DateTimeU26_t882461807_DateTimeOffsetU26_t3960159525_RuntimeObject_Int32_t2950945753_SByte_t1669577662_BooleanU26_t4125257963_BooleanU26_t4125257963PFvvEPK10MethodInfoPvPS4_
FH:__ZNK6Camera19GetProjectionMatrixEv
n2d:_Guid_GetHashCode_m3042133858_AdjustorThunk
AJ:__Z38PreallocateObjectFromPersistentManagerib
rEd:_Interpreter_Backtrack_m2828876822
eNa:__ZNK9Texture2D20GetUnscaledTextureIDEv
o8c:_SByte_System_IConvertible_ToType_m4075253447
Rud:_StrongName_get_PublicKey_m1841537984
TUg:_glFenceSync__wrapper
$uc:_AssemblyLoadEventHandler_Invoke_m1462077361
jNa:__ZNK9Texture2D26CanReuploadDataToGfxDeviceEv
YHf:__ZL63CodeAccessPermission_t2681295399_CustomAttributesCacheGeneratorP21CustomAttributesCache
r0a:__Z29ClearRepeatingLogMessageStatev
x9d:_InternalEnumerator_1_get_Current_m3191242573_gshared
Mxc:_Byte_Equals_m1161982810_AdjustorThunk
sY:__ZN21EnlightenSceneMappingaSERKS_
Zsa:__ZN7ApiGLESD2Ev
uAa:__ZN9Transform47ClearTransformHierarchyAndApplyToSerializedDataEv
$$b:__ZN8JSONRead21TransferSTLStyleArrayINSt3__26vectorI8MonoPPtr13stl_allocatorIS3_L18MemLabelIdentifier1ELi16EEEEEEvRT_17TransferMetaFlags
EBa:__ZN6Camera23VirtualRedirectTransferER19StreamedBinaryWriteILb0EE
eQg:dynCall_fidi
Bcg:__ZN15dense_hashtableINSt3__24pairIK10KeyWrapperINS1_IPK9FieldInfoP11Il2CppClassEEEjEES9_17ReflectionMapHashIS8_EN14dense_hash_mapIS9_jSD_NS9_14EqualsComparerINS0_8equal_toIS8_EEEENS0_9allocatorISB_EEE9SelectKeyESI_SK_E12resize_deltaEjj
KP:__ZN15dense_hashtableINSt3__24pairIKN9ShaderLab7Program23ShaderKeywordSetAndHashEPKNS2_10SubProgramEEES4_NS3_24ShaderKeywordHashFunctorEN14dense_hash_mapIS4_S8_SA_NS0_8equal_toIS4_EE13stl_allocatorIS9_L18MemLabelIdentifier67ELi16EEE9SelectKeyESD_SG_E15insert_noresizeERKS9_
MHa:__ZN13RenderTexture12SetDimensionE16TextureDimension
qsd:_DSAManaged_add_KeyGenerated_m2286864968
Cd:_SDL_FreeRW
ksf:__Z79RuntimeInvoker_Void_t1185182177_Int32_t2950945753_ParameterModifier_t1461694466PFvvEPK10MethodInfoPvPS4_
rfg:__ZNK15dense_hashtableINSt3__24pairIK10KeyWrapperINS1_IPK12PropertyInfoP11Il2CppClassEEEjEES9_17ReflectionMapHashIS8_EN14dense_hash_mapIS9_jSD_NS9_14EqualsComparerINS0_8equal_toIS8_EEEENS0_9allocatorISB_EEE9SelectKeyESI_SK_E5beginEv
nx:__ZN20SoundChannelInstance8getDelayE14FMOD_DELAYTYPEPjS1_
$P:__ZNSt3__26vectorIN20GpuProgramParameters15StructParameterENS_9allocatorIS2_EEEC2ERKS5_
t3d:_ArrayReadOnlyList_1_Contains_m232667507_gshared
Ujf:__Z77RuntimeInvoker_Boolean_t97287965_IntPtr_t_Int32_t2950945753_SByte_t1669577662PFvvEPK10MethodInfoPvPS4_
v:tempBigInt
qEe:_Array_InternalArray__Insert_TisKeyframe_t4206410242_m1558638568_gshared
Kd:_emscripten_glVertexAttrib1fv
_1:__ZNSt3__26vectorIN9ShaderLab20SerializedSubProgram12UAVParameterENS_9allocatorIS3_EEE7reserveEj
JNg:__ZSt11__terminatePFvvE
lv:__ZN12AudioManager14systemCallbackEP11FMOD_SYSTEM24FMOD_SYSTEM_CALLBACKTYPEPvS3_
Uq:__ZN10SampleClip23VirtualRedirectTransferER24GenerateTypeTreeTransfer
lHa:__ZN16ReflectionProbes16UpdateSampleDataEv
D0d:_CultureInfo_GetCultureInfo_m56098747
fEb:__Z20AddActiveLocalLightsR11CullResultsR27LocalLightCullingParametersPPK15SharedLightDataPK8Vector4fRK9IndexListPfRSA_R12ActiveLightsSG_P5RectTIfEP13TargetEyeMask
rzf:__ZL80Hashtable_t1853889766_CustomAttributesCacheGenerator_Hashtable__ctor_m1763145853P21CustomAttributesCache
EGc:_Convert_ToDecimal_m1284148187
ISg:_emscripten_glRenderbufferStorage__wrapper
Nag:__ZNK6il2cpp2vm14TypeNameParser10NextWillBeEcb
fe:_JS_Sound_Play
F0:__ZN9ShaderLab16SerializedShader8TransferI14SafeBinaryReadEEvRT_
nhd:_ConstructionCallDictionary_SetMethodProperty_m3145285304
QLc:_Int32_System_IConvertible_ToUInt32_m3557270157
Omf:__Z243RuntimeInvoker_Void_t1185182177_Int16_t2552820387_RuntimeObject_Int32_t2950945753_Int32_t2950945753_Int32_t2950945753_SByte_t1669577662_SByte_t1669577662_SByte_t1669577662_SByte_t1669577662_Int16_t2552820387_SByte_t1669577662_SByte_t1669577662PFvvEPK10MethodInfoPvPS4_
m4d:_InternalEnumerator_1_System_Collections_IEnumerator_get_Current_m1503522504_gshared
VQb:__ZN19ShaderPropertySheet16SetVectorIndexedEN9ShaderLab16FastPropertyNameEifRK8Vector4fNS_8SetFlagsE
Lse:_Type_get_IsAbstract_m1120089130
Vo:__ZN14SafeBinaryRead21TransferSTLStyleArrayIN4core12basic_stringIcNS1_20StringStorageDefaultIcEEEEEEvRT_17TransferMetaFlags
P2e:_UriFormatException__ctor_m1115096473
tE:__ZN11UnityEngine15CloudWebService14DataDispatcher4StopEv
FJc:_Int16_System_IConvertible_ToUInt64_m134975563
a2:__ZNSt3__26vectorIN9ShaderLab20SerializedSubProgram12UAVParameterENS_9allocatorIS3_EEE8__appendEj
lMd:_Single_System_IConvertible_ToDecimal_m325860800_AdjustorThunk
qDe:_Array_InternalArray__ICollection_CopyTo_TisSingle_t1397266774_m455540885_gshared
jwa:__ZN17ScriptingGCHandle7AcquireE18ScriptingObjectPtr25ScriptingGCHandleWeakness
qPg:dynCall_iifiii
Fha:__Z21HasAlphaTextureFormat13TextureFormat
Gy:__ZN12AudioManager6UpdateEv
yha:__ZN14ImageReference9BlitImageERKS_NS_8BlitModeE
Ynb:__ZN23CachedSerializationDataD2Ev
cGb:__ZNK25CameraStackRenderingState31CalculateStereoCameraTargetTypeEv
NGa:__ZN14RenderSettings23VirtualRedirectTransferER14SafeBinaryRead
axg:__ZN6il2cpp2os10ThreadImpl15CurrentThreadIdEv
EId:_SymmetricAlgorithm_get_Key_m3241860519
oAa:__Z17IsObjectAvailablei
AXa:__ZN12InputManagerD0Ev
hSe:_Queue_1_Peek_m1713833142_gshared
wpe:_ExecutionContext_Capture_m681135907
qkb:__Z18Transfer_BlittableI18StreamedBinaryReadILb0EELb1EtEvRK29SerializationCommandArgumentsR31RuntimeSerializationCommandInfo
k5d:_InternalEnumerator_1_System_Collections_IEnumerator_get_Current_m2889979481_AdjustorThunk
DMg:_posix_memalign
Krd:_ASN1_GetBytes_m3305539297
EJ:__ZNK15MonoScriptCache7ReleaseEv
F$f:__ZN6il2cpp2vm5Class13HasReferencesEP11Il2CppClass
uf:_glBindTexture
WKg:_snprintf
XTg:_emscripten_glVertexAttrib1fv__wrapper
R1a:__Z36scripting_liveness_calculation_begin17ScriptingClassPtriPFvPP12Il2CppObjectiPvES3_PFvvES7_
KWf:_AudioExtensionManager_RemoveExtensionFromManager_m442924172
wSg:_emscripten_glGetProgramInfoLog__wrapper
BL:__ZN17PersistentManager23DestroyFromFileInternalEi
Y4e:_Display__ctor_m501911701
$Ue:_ReadOnlyCollection_1_System_Collections_Generic_IListU3CTU3E_Insert_m1020890112_gshared
nzb:__Z19SetupMotionMatricesR6CameraR18RPDataMotionVector
sXf:__ZL7log2_64y
SQd:_CurrentSystemTimeZone_GetUtcOffset_m340358963
BJe:_PKCS12_Decrypt_m1280162536
t5d:_InternalEnumerator_1_get_Current_m3081223448_gshared
QFa:__ZN10VertexDataC2ERKS_17ShaderChannelMask10MemLabelId
dCc:_CaseInsensitiveHashCodeProvider_AreEqual_m1790260777
cQ:__ZN22CreateGpuProgramOutputC2Ev
Q5e:_PersistentCallGroup_Initialize_m4253175514
bwc:_Boolean_System_IConvertible_ToChar_m4279513009_AdjustorThunk
$Cc:_Hashtable__ctor_m1763145853
UKc:_NumberFormatter_ScaleOrder_m3813786990
Rtd:_PrivateKeyInfo_DecodeDSA_m771724585
Udg:__ZNK15dense_hashtableINSt3__24pairIK10KeyWrapperINS1_IPK10MethodInfoP11Il2CppClassEEEjEES9_17ReflectionMapHashIS8_EN14dense_hash_mapIS9_jSD_NS9_14EqualsComparerINS0_8equal_toIS8_EEEENS0_9allocatorISB_EEE9SelectKeyESI_SK_E23find_position_with_hashERSA_j
A$f:__ZN6il2cpp2vmL17SetupGCDescriptorEP11Il2CppClass
ove:_UInt32_System_IConvertible_ToSByte_m1061556466
ded:_WellKnownClientTypeEntry__ctor_m2471908952
ga:invoke_vidi
HXc:_NumberFormatter_FormatRoundtrip_m19342689
Ikd:_RemotingServices_CreateClientProxyForContextBound_m783705199
Muc:_Array_slow_swapper_m4116724811
hHe:_InternalAsyncResult_get_ProceedAfterHandshake_m2508379800
Ede:_Enumerator_System_Collections_IEnumerator_get_Current_m3816090481_gshared
dAg:__ZN6il2cpp5utils11StringUtils15StringDuplicateEPKc
tP:__ZNK9ShaderLab21ShaderRasterStateDesc16ToGfxRasterStateEPK19ShaderPropertySheetS3_R14GfxRasterState
gJg:__ZN6il2cpp2os9EventImplC2Ebb
uDa:__ZN12FlareManager12RemoveCameraER6Camera
sQ:__Z20IsMatrixBuiltinParamPKcPi
Ane:_UnicodeEncoding_GetBytesInternal_m1902824297
CQb:__ZN8Renderer19PostInitializeClassEv
HAe:_Array_FindIndex_TisRuntimeObject_m2504082708_gshared
sLe:_X509Chain_FindCertificateRoot_m1937726457
vFg:__ZN6il2cpp6icalls8mscorlib6System8Delegate23CreateDelegate_internalEP20Il2CppReflectionTypeP12Il2CppObjectP22Il2CppReflectionMethodb
Dee:_Enumerator_System_Collections_IEnumerator_get_Current_m921113401_AdjustorThunk
hFb:__ZNK13RendererScene22GetStaticBoundingBoxesEv
qnb:__ZN18DelayedCallManager18CancelCallDelayed2E4PPtrI6ObjectEPF15CallObjectStatePS1_PvES7_
$ta:__ZN25ThreadsafeLinearAllocator10ReallocateEPvji
r7a:__Z18Transfer_BlittableI14SafeBinaryReadLb1E11QuaternionfEvRK29SerializationCommandArgumentsR31RuntimeSerializationCommandInfo
Z$:__ZN18SpriteAtlasManagerD0Ev
WEg:_GC_disable
sUa:__ZN10Matrix4x4f8TransferI14SafeBinaryReadEEvRT_
n9c:_CryptographicUnexpectedOperationException__ctor_m2381988196
jhg:__ZN14dense_hash_mapI10KeyWrapperIPK22Il2CppGenericParameterEPK24MonoGenericParameterInfoN6il2cpp5utils11PointerHashIS2_EENS4_14EqualsComparerINSt3__28equal_toIS3_EEEENSD_9allocatorINSD_4pairIKS4_S7_EEEEE15set_deleted_keyERSJ_
Y7d:_InternalEnumerator_1_System_Collections_IEnumerator_get_Current_m4213507601_gshared
CW:__Z6AppendRKN4core12basic_stringIcNS_20StringStorageDefaultIcEEEEPKc
Xze:_Array_InternalArray__IEnumerable_GetEnumerator_TisCustomAttributeNamedArgument_t287865710_m523021714_gshared
zda:__ZN7ApiGLES18ClearBufferSubDataEjN2gl12BufferTargetEll
XUb:__Z37Camera_Get_Custom_PropAllCamerasCountv
QSa:__ZN14Texture2DArray8TransferI18StreamedBinaryReadILb0EEEEvRT_
oDb:__Z18ApplyOcclusionMaskR19ProbeOcclusionCacheRK17LightProbeContextRK10RenderNodeb
Ra:invoke_fiiii
a2e:_Uri_CheckHostName_m2213216182
UTg:_emscripten_glBindRenderbuffer__wrapper
cxg:__ZN6il2cpp2os10ThreadImpl22CreateForCurrentThreadEv
exe:_ValueType_InternalEquals_m1384040357
rAc:_ArrayListWrapper_Contains_m2641184447
KGe:_Array_InternalArray__get_Item_TisResourceInfo_t2872965302_m3865610257_gshared
dPg:dynCall_viiifi
hma:__ZN18GfxFramebufferGLES20ActiveContextChangedEPP17RenderSurfaceBaseS2_
_la:__Z19PluginsRenderMarkeri
h2:__ZNSt3__26vectorIN9ShaderLab20SerializedSubProgram15StructParameterENS_9allocatorIS3_EEE6assignINS_11__wrap_iterIPS3_EEEENS_9enable_ifIXaasr21__is_forward_iteratorIT_EE5valuesr16is_constructibleIS3_NS_15iterator_traitsISC_E9referenceEEE5valueEvE4typeESC_SC_
ysg:__ZNSt3__214__split_bufferIN6il2cpp2vm5Image20EmbeddedResourceDataERNS_9allocatorIS4_EEEC2EjjS7_
zs:__ZN12AudioManager17RemoveAudioSourceEP11AudioSource
BBd:_X509Certificate2Collection_Add_m3151757943
hCc:_CaseInsensitiveHashCodeProvider_get_DefaultInvariant_m4264275163
Hjf:__Z195RuntimeInvoker_Int32_t2950945753_RuntimeObject_Int32_t2950945753_Int32_t2950945753_Int32_t2950945753_RuntimeObject_DecoderFallbackBufferU26_t3866396827_ByteU5BU5DU26_t4057885439_SByte_t1669577662PFvvEPK10MethodInfoPvPS4_
dA:__ZN5physx14PxLightCpuTask12addReferenceEv
yFa:__ZNK15InstancingProps35FillInstanceBufferDispatchConstantsIN10Instancing14RenderLoopArgsEEEvPPvjjRK19ShaderPropertySheetRKT_
sPa:__ZN21EnlightenSceneMapping8TransferI19StreamedBinaryWriteILb0EEEEvRT_
kug:__ZN6il2cpp2gc16GarbageCollector19InitializeFinalizerEv
xUe:_ReadOnlyCollection_1__ctor_m2122524688_gshared
jdb:__Z35Transfer_Blittable_FixedBufferFieldI24GenerateTypeTreeTransferxEvRK29SerializationCommandArgumentsR31RuntimeSerializationCommandInfo
EEe:_Array_InternalArray__set_Item_TisLink_t544317964_m1234244240_gshared
oyb:__Z20CalculateSqrDistanceRK8Vector3fRK4AABB
pnd:_SerializationInfo_GetBoolean_m1756153320
Yw:__Z32AudioMixerDuckingProcessCallbackP21UnityAudioEffectStatePfS1_jii
iSg:_glGetUniformIndices__wrapper
SUe:_ReadOnlyCollection_1_Contains_m2979956790_gshared
GPb:__ZN26CustomRenderTextureManagerD2Ev
rt:__ZN12AudioManager8TransferI24GenerateTypeTreeTransferEEvRT_
Dga:__Z25GetBytesFromTextureFormat13TextureFormat
Png:__ZN6il2cpp6icalls8mscorlib6System9Threading6Thread20Thread_free_internalEP12Il2CppThreadi
MOg:dynCall_iiffi
_Ma:__ZN7Cubemap23VirtualRedirectTransferER19StreamedBinaryWriteILb0EE
Awd:__KeysEnumerator_get_Current_m2996478063
rL:__Z32scripting_class_get_assemblyname17ScriptingClassPtr
H3b:__ZN11UnityEngine15PlatformWrapper15GetVRDeviceNameEv
E6d:_InternalEnumerator_1_get_Current_m2128158355_AdjustorThunk
bsa:__ZN9GfxDevice21RegisterNativeTextureE9TextureIDi16TextureDimension
IWd:_Decimal_decimal2double_m2573538823
LGg:__ZN6il2cpp6icalls8mscorlib6System10Reflection4Emit11TypeBuilder20create_generic_classEP27Il2CppReflectionTypeBuilder
rHd:_SHA1Internal_FillBuff_m3615718415
Kz:__Z60Register_UnityEngine_AudioListener_GetNumExtensionPropertiesv
ni:_emscripten_glUniformMatrix4fv
Zkg:__ZN15dense_hashtableINSt3__24pairIK10KeyWrapperINS1_IP11Il2CppClassjEEES4_EES6_N6il2cpp8metadata14ArrayClassHashEN14dense_hash_mapIS6_S4_SB_NS6_14EqualsComparerINSA_17ArrayClassCompareEEENS0_9allocatorIS8_EEE9SelectKeyESF_SH_E13set_empty_keyERKS8_
k2a:__ZN12ScriptMapperD2Ev
d3e:_AnimationCurve_Finalize_m2397002729
Ymd:_SerializationCallbacks__cctor_m1674315180
K4f:__ZNK15dense_hashtableI10KeyWrapperIPK19Il2CppGenericMethodES4_N6il2cpp8metadata23Il2CppGenericMethodHashEN14dense_hash_setIS4_S7_NS4_14EqualsComparerINS6_26Il2CppGenericMethodCompareEEENSt3__29allocatorIS4_EEE8IdentityESB_SE_E23find_position_with_hashERKS4_j
GDg:_GC_check_leaked
h5:__ZN9ShaderLab20SerializedSubProgram16TextureParameter8TransferI19StreamedBinaryWriteILb0EEEEvRT_
Eta:__ZNK7Hash12812PackToUInt32Ev
qBc:_SynchronizedArrayListWrapper_IndexOf_m3642674350
eN:__ZNSt3__227__insertion_sort_incompleteIRNS_6__lessI14ObjectLoadDataS2_EEPS2_EEbT0_S6_T_
BE:__ZN11UnityEngine15CloudWebService16SessionContainer8AddEventEPNS0_14CloudEventInfoE
Sqa:__Z4TrimRKN4core12basic_stringIcNS_20StringStorageDefaultIcEEEES5_
RFe:_Dictionary_2_Do_ICollectionCopyTo_TisKeyValuePair_2_t3842366416_m1399105608_gshared
NAd:_X509Certificate2_Import_m4026562329
RUg:_glGetStringi__wrapper
oRa:__ZN10VertexData8TransferI14SafeBinaryReadEEvRT_
rha:__ZN11TextureData17GetImageReferenceEii
AEg:_GC_malloc_atomic
apc:_ActivatedClientTypeEntry_ToString_m2494181680
iHg:__ZN6il2cpp5utils6Memory13AlignedMallocEjj
Asg:__ZNSt3__214__split_bufferIN6il2cpp2vm5Image20EmbeddedResourceDataERNS_9allocatorIS4_EEED2Ev
uI:__ZL20SortItemByInstanceIDRKN18AwakeFromLoadQueue4ItemES2_
Nwd:_TypeConverterAttribute__ctor_m1774069684
y6b:__ZN20UnityConnectSettings8TransferI24GenerateTypeTreeTransferEEvRT_
Nqc:_Byte_ToString_m4063101981
fWc:_MonoType_GetConstructors_m2574682189
gY:__ZL31InitializeRendererUpdateManagerPv
sdc:_ParameterInfo__ctor_m2779026345
Cpc:_DeriveBytes_set_Password_m3005258189
zXc:_NumberFormatter_get_IsZeroInteger_m2263284741
OHe:_X509Certificate_PEM_m2020851166
PDe:_Array_InternalArray__Insert_TisDateTime_t3738529785_m2308632330_gshared
iYa:__ZN11TimeManager8TransferI19StreamedBinaryWriteILb0EEEEvRT_
z4c:_TlsServerCertificateRequest_ProcessAsTls1_m3214041063
s4b:__ZN11UnityEngine15PlatformWrapper27GetGraphicsCapsSupportFlagsEv
Mgb:__ZN12NativeBufferI16Converter_StringE15SetupForWritingER9ArrayInfo
q$:__ZN13RuntimeStaticI18AssetBundleManagerLb1EE16StaticInitializeEPv
yRg:___cxa_end_catch__wrapper
jzc:_Char_ToString_m278452217
cSd:_DateTime_System_IConvertible_ToUInt16_m4182197229_AdjustorThunk
$nb:__ZN13MonoBehaviour22DoScriptRebuildWarningEv
ZUb:__Z38Camera_CUSTOM_INTERNAL_CALL_RaycastTryP12Il2CppObjectRK3Rayfi
Rmg:__ZN6il2cpp6icalls8mscorlib6System5Array13ClearInternalEP11Il2CppArrayii
qOg:_llvm_cttz_i32
Xle:_Encoding_GetEncoding_m2801244948
QDf:__ZL52_Assembly_t1988906988_CustomAttributesCacheGeneratorP21CustomAttributesCache
p7c:_SslStreamBase_EndRead_m495357226
Ang:__ZN6il2cpp5utils9PathUtils7CombineIcEENSt3__212basic_stringIT_NS3_11char_traitsIS5_EENS3_9allocatorIS5_EEEERKSA_SC_
B_b:__ZN9JSONWrite8TransferI13dynamic_arrayIiLj4EEEEvRT_PKc17TransferMetaFlags
Zlf:__Z64RuntimeInvoker_RuntimeObject_SByte_t1669577662_SByte_t1669577662PFvvEPK10MethodInfoPvPS4_
PNe:_Enumerator_System_Collections_IEnumerator_get_Current_m713684915_AdjustorThunk
Kke:_GenericComparer_1_Compare_m459680062_gshared
oec:_EnumBuilder_GetConstructorImpl_m3068576149
cK:__Z18ConvertUTF16toUTF8PPKtS0_PPhS2_15ConversionFlags
vyg:__ZN6il2cpp2os20PathErrnoToErrorCodeERKNSt3__212basic_stringIcNS1_11char_traitsIcEENS1_9allocatorIcEEEEi
fXf:__ZL16my_g_bit_nth_msfj
GRe:_Enumerator_MoveNext_m3662315381_AdjustorThunk
h4c:_TlsClientFinished_ProcessAsTls1_m2429863130
Awb:__Z23SetupStereoFlareElementP11FlareVertexRK8Vector2fS3_S3_RK11ColorRGBA32RK10Matrix4x4fRK8Vector3fb
Vda:__ZNSt3__26__treeI22DeviceStencilStateGLES14MemoryCompLessI18DeviceStencilStateENS_9allocatorIS1_EEE12__find_equalIS1_EERPNS_16__tree_node_baseIPvEESD_RKT_
ROd:_String_Join_m2050845953
sfe:_ShimEnumerator_MoveNext_m2406150314_gshared
ana:__ZL19BlitFramebufferImplRN4gles23BlitFramebufferDrawQuadER9GfxDevice9TextureIDRK8Vector4f
oPg:dynCall_viiiiiiiiiiiiii
eQb:__ZN14Texture2DArray11InitTextureEiii13TextureFormatb
DCe:_Array_InternalArray__ICollection_Add_TisUInt64_t4134040092_m4256575528_gshared
EOc:_Directory_CreateDirectoriesInternal_m3735342319
_hg:__ZN15dense_hashtableINSt3__24pairIK10KeyWrapperINS1_IPK11Il2CppImageP11Il2CppClassEEEjEES9_17ReflectionMapHashIS8_EN14dense_hash_mapIS9_jSD_NS9_14EqualsComparerINS0_8equal_toIS8_EEEENS0_9allocatorISB_EEE9SelectKeyESI_SK_E14squash_deletedEv
tId:_SHAConstants__cctor_m1699027474
wH:__ZNK6Camera26GetStereoSingleCullEnabledEv
o$a:__Z14resize_trimmedINSt3__26vectorIN4core12basic_stringIcNS2_20StringStorageDefaultIcEEEE13stl_allocatorIS6_L18MemLabelIdentifier13ELi16EEEEEvRT_j
$7a:__Z18Transfer_BlittableI14SafeBinaryReadLb0EaEvRK29SerializationCommandArgumentsR31RuntimeSerializationCommandInfo
ese:_TimeSpan_GetHashCode_m1939414618
RQg:_emscripten_glFrustum__wrapper
AZe:_PatternCompiler_Emit_m3022689557
Kyc:_Char_System_IConvertible_ToUInt64_m3536560782
Pje:_EqualityComparer_1__cctor_m3452395357_gshared
fvb:__Z20SyncFenceCullResultsR11CullResults
Epa:__ZN15TextureTFMethod20IsBoneCountSupportedEi
$Yd:_Double_ToString_m3828879243_AdjustorThunk
ucb:__Z22TransferField_NonArrayI17RemapPPtrTransfer27Converter_SimpleNativeClassI8GUIStyleEEvRK23StaticTransferFieldInfoR31RuntimeSerializationCommandInfoRT0_
MTc:_TextReader_Synchronized_m3004980758
Awg:__ZN6il2cpp2os6Thread12QueueUserAPCEPFvPvES2_
dHa:__ZN19ShaderPropertySheet10SetTextureERK23FastTexturePropertyNameP7Texture
ucc:_CustomAttributeData__ctor_m2966233049
x3c:_Context_set_ClientWriteIV_m3405909624
oVf:_AesManaged_CreateDecryptor_m692040246
$p:__ZN17AnimationCurveTplIfE8TransferI14SafeBinaryReadEEvRT_
KEe:_Array_InternalArray__set_Item_TisInt16_t2552820387_m2544074754_gshared
$sc:_ArithmeticException__ctor_m3551809662
dPc:_MonoIO_ExistsDirectory_m2182482658
LJb:__Z29StdTemplateConversionFunctionIybEbPvR14SafeBinaryRead
PPa:__ZNSt3__26vectorIN15QualitySettings14QualitySettingENS_9allocatorIS2_EEE6assignIPS2_EENS_9enable_ifIXaasr21__is_forward_iteratorIT_EE5valuesr16is_constructibleIS2_NS_15iterator_traitsIS9_E9referenceEEE5valueEvE4typeES9_S9_
Ht:__ZN12AudioManager21FixMasterGroupRoutingEv
wOe:_List_1_CheckCollection_m1671972112_gshared
I1c:_CipherSuiteFactory_GetSsl3SupportedCiphers_m3757358569
Mne:_UnicodeEncoding_GetPreamble_m3002287178
nWf:_AudioSource_get_spatialize_m3609701298
G6:__ZN20GpuProgramParameters14AddVectorParamEPKcii15ShaderParamTypeiiiP16PropertyNamesSet
n8b:__ZNK12HeaderHelper3GetERKN4core12basic_stringIcNS0_20StringStorageDefaultIcEEEE
QXa:__ZN9InputAxis8TransferI14SafeBinaryReadEEvRT_
PI:__ZNK21ExecutionOrderManager30GetCustomAwakeFromLoadQueueForEPKN5Unity4TypeE
I7b:__Z27RegisterModule_UnityConnectv
vRc:_MemoryStream_Expand_m3554752073
vgg:__ZN6il2cpp2vm10Reflection27GetCustomAttributesCacheForEP25Il2CppReflectionParameter
v9e:_ScriptableObject_CreateInstance_m2611081756
dld:_ObjectRecord_get_IsInstanceReady_m2304516395
aSc:_Path__cctor_m3273994011
KRd:_DateTimeUtils_CountRepeat_m3396693018
Kxe:_WeakReference_get_Target_m168713953
SLc:_Int32_System_IConvertible_ToUInt64_m2502338186
$v:__ZN10ObjectPoolIN4FMOD12ChannelGroupENS0_13ChannelGroupIEE7SetSizeEi
fVf:_SymmetricTransform_FinalDecrypt_m764004682
W_e:_Parser_ParseGroupingConstruct_m263270497
eig:__ZN14dense_hash_mapI10KeyWrapperINSt3__24pairIPK9EventInfoP11Il2CppClassEEEj17ReflectionMapHashIS8_ENS9_14EqualsComparerINS1_8equal_toIS8_EEEENS1_9allocatorINS2_IKS9_jEEEEE15set_deleted_keyERSH_
L9a:__Z14resize_trimmedINSt3__26vectorI17AnimationCurveTplIfE13stl_allocatorIS3_L18MemLabelIdentifier1ELi16EEEEEvRT_j
aGb:__ZN25CameraStackRenderingState19SetupLastEyeCamerasERK11CameraStack
_ya:__Z12GUIDToStringRK9UnityGUID
V5c:_RSASslSignatureDeformatter_SetKey_m2204705853
Yr:__ZN11SoundHandleC2ERKS_
O4f:__ZNK6il2cpp5utils11collections13ArrayValueMapIPK10Il2CppType17Il2CppInteropData26InteropDataToTypeConverterNS_8metadata14Il2CppTypeLessENS8_26Il2CppTypeEqualityComparerEE10find_firstERKS5_
_Pc:_FileStream_get_CanSeek_m331583577
qad:_DSAParameters_t1885824122_marshal_pinvoke_back
erd:_Kernel_MultiplyByDword_m1266935086
CHc:_Convert_ToInt64_m3916071102
zff:__Z158RuntimeInvoker_Boolean_t97287965_RuntimeObject_Int32U26_t1369213839_Int32_t2950945753_Int32_t2950945753_RuntimeObject_SByte_t1669577662_ContextU26_t3937453398PFvvEPK10MethodInfoPvPS4_
QNd:_String_Trim_m3384720403
RGa:__ZN14RenderSettings18TransferDeprecatedI14SafeBinaryReadEEvRT_
Ojf:__Z93RuntimeInvoker_Single_t1397266774_SingleU26_t1922108698_Single_t1397266774_Single_t1397266774PFvvEPK10MethodInfoPvPS4_
Wmf:__Z88RuntimeInvoker_RuntimeObject_RuntimeObject_RuntimeObject_RuntimeObject_Int32_t2950945753PFvvEPK10MethodInfoPvPS4_
Gte:_Type_ToString_m3975981286
HI:__ZN12TLSAllocatorI14StackAllocatorE8AllocateEji
IK:__ZN16ScriptingManager18GetMonoScriptCacheEi
i$e:_ExpressionAssertion__ctor_m2554412824
B6:__ZNSt3__227__insertion_sort_incompleteIR25ValueParameterArraySorterPN20GpuProgramParameters14ValueParameterEEEbT0_S6_T_
g8a:__Z18Transfer_BlittableI14SafeBinaryReadLb1EyEvRK29SerializationCommandArgumentsR31RuntimeSerializationCommandInfo
kXc:_NullReferenceException__ctor_m3076065613
xXb:__ZN8JSONRead8TransferIfEEvRT_PKc17TransferMetaFlagsb
Azd:_X509SubjectKeyIdentifierExtension_Decode_m1505409124
p6:__ZL23AddGpuProgramParametersR20GpuProgramParametersRKNSt3__26vectorIN9ShaderLab20SerializedSubProgram15MatrixParameterENS1_9allocatorIS5_EEEERKNS2_INS4_15VectorParameterENS6_ISB_EEEEiiP16PropertyNamesSet
Uja:__ZN6prcoreL17RemapGenericFloatI18TexFormatARGBFloat17TexFormatRGBAHalfEEvPKNS_9InnerInfoE
tNd:_String_System_IConvertible_ToUInt16_m2888090399
dbc:_Assembly_InternalGetType_m3065345470
BA:__ZN13Simd4iFactoryIN6detail9FourTupleEEC2Eiiii
snc:_ResourceSet__ctor_m3356376607
eZc:_PrimeGeneratorBase_get_PrimalityTest_m2487240563
gEf:__ZL56_ParameterInfo_t489405856_CustomAttributesCacheGeneratorP21CustomAttributesCache
UOa:__ZN15SerializeTraitsI33EnlightenTerrainChunksInformationE8TransferI14SafeBinaryReadEEvRS0_RT_
SQb:__ZNK32RendererMaterialAnimationBinding9BindValueER6ObjectRKN11UnityEngine9Animation14GenericBindingERNS3_10BoundCurveE
$fe:_Transform_1_Invoke_m1731820209_gshared
bia:__ZL18stbir__support_onef
NMd:_Single_CompareTo_m189772128
iZb:__Z26Transfer_UnityEngineObjectI9JSONWriteLb0EEvRK29SerializationCommandArgumentsR31RuntimeSerializationCommandInfo
Ece:_DefaultComparer_Compare_m4042058291_gshared
EKa:__ZNSt3__26vectorIN4core12basic_stringIcNS1_20StringStorageDefaultIcEEEE13stl_allocatorIS5_L18MemLabelIdentifier1ELi16EEE6assignINS_11__wrap_iterIPS5_EEEENS_9enable_ifIXaasr21__is_forward_iteratorIT_EE5valuesr16is_constructibleIS5_NS_15iterator_traitsISF_E9referenceEEE5valueEvE4typeESF_SF_
LPc:_FileLoadException_ToString_m2989457882
m7a:__Z18Transfer_BlittableI14SafeBinaryReadLb0E8Vector2fEvRK29SerializationCommandArgumentsR31RuntimeSerializationCommandInfo
FWf:_AudioListener_ClearExtensionProperties_m3849891634
uGe:_Array_InternalArray__get_Item_TisDecimal_t2948259380_m3511003792_gshared
hKd:_SecurityElement_IsValidAttributeValue_m948345692
j2b:__ZN19ControllerHitReport15onControllerHitERKN5physx16PxControllersHitE
ua:invoke_vdd
Fm:FUNCTION_TABLE_fiii
XTc:_TextWriter_Write_m2252948084
JSb:__Z19RegisterModule_Corev
kPb:__ZNK30SpriteRendererAnimationBinding12GetPPtrValueERKN11UnityEngine9Animation10BoundCurveE
m3a:__ZNSt3__26__sortIRPFbRK23TransformAccessReadOnlyS3_EPS1_EEvT0_S8_T_
R_d:_CCFixed_FromDateTime_m3894190577
PFb:__Z29PluginsIssueRenderingExtEvent26UnityRenderingExtEventTypePv
Pef:__Z116RuntimeInvoker_RuntimeObject_RuntimeObject_Int32_t2950945753_RuntimeObject_RuntimeObject_RuntimeObject_RuntimeObjectPFvvEPK10MethodInfoPvPS4_
Kld:_MessageFormatter_ReadMethodCall_m2327590823
TPb:__Z14RandomRotationP9Texture2DPhiiii
RVd:_Decimal_GetBits_m453754410
b$c:_PKCS1_Encode_v15_m2077073129
cla:__ZN4gles14UseGLSLProgramER15DeviceStateGLESjbij
CWg:_glDeleteProgram__wrapper
dVb:__Z50Register_UnityEngine_Camera_INTERNAL_get_pixelRectv
kja:__ZN6prcoreL18BlitFloatToIntegerERK14ImageReferenceRS0_
OUd:_DBNull_System_IConvertible_ToUInt32_m3784627971
mpa:__ZN13dynamic_arrayI15ComputeShaderCBLj4EE6assignEPKS0_S3_
WD:__ZN11UnityEngine15CloudWebService14RestDownloader17OnCompleteContentEv
Vbg:__ZN15dense_hashtableINSt3__24pairIK10KeyWrapperINS1_IPK14Il2CppAssemblyP11Il2CppClassEEEjEES9_17ReflectionMapHashIS8_EN14dense_hash_mapIS9_jSD_NS9_14EqualsComparerINS0_8equal_toIS8_EEEENS0_9allocatorISB_EEE9SelectKeyESI_SK_E15insert_noresizeERKSB_
jWd:_DivideByZeroException__ctor_m3496959969
oIe:_TlsStream_get_EOF_m953226442
yug:__ZN6il2cpp2gcL10CleanupCCWEPvS1_
Ia:invoke_vifff
nVg:_glGetVertexAttribiv__wrapper
ee:_emscripten_request_fullscreen
Vob:__ZN20LocalFileSystemWebGL6DeleteER13FileEntryDatab
ge:_emscripten_glDisableVertexAttribArray
mze:_Array_InternalArray__ICollection_Remove_TisSingle_t1397266774_m3361324455_gshared
_$:__ZN4core8hash_mapINS_12basic_stringIcNS_20StringStorageDefaultIcEEEE13dynamic_arrayI4PPtrI6SpriteELj4EENS_4hashIS4_EENSt3__28equal_toIS4_EEE12delete_nodesEv
Ru:__ZN4FMOD5Sound15getNumSubSoundsEPi
yfa:__ZN4gles23ClearCurrentFramebufferEP7ApiGLESbbbRK10ColorRGBAffi
Mde:_Enumerator_System_Collections_IDictionaryEnumerator_get_Entry_m3249874482_AdjustorThunk
uYe:_UnityEvent_1_Invoke_m3604335408_gshared
re:_emscripten_glDeleteObjectARB
T9e:_StackTraceUtility__cctor_m1981266436
mf:_IMG_Load
pvd:_PKCS12_RemoveCertificate_m1421555398
lka:__ZN6prcoreL17RemapGenericFloatI17TexFormatRGBAHalf18TexFormatARGBFloatEEvPKNS_9InnerInfoE
fid:_MethodDictionary_get_Item_m1201458851
$S:___cxx_global_var_init_18
Bk:_JS_SystemInfo_GetBrowserVersionString
O2a:__ZN2UI13RectTransform23VirtualRedirectTransferER14SafeBinaryRead
y3:__ZNSt3__26vectorIN9ShaderLab20SerializedSubProgramENS_9allocatorIS2_EEE6assignIPS2_EENS_9enable_ifIXaasr21__is_forward_iteratorIT_EE5valuesr16is_constructibleIS2_NS_15iterator_traitsIS9_E9referenceEEE5valueEvE4typeES9_S9_
u$b:__Z18Transfer_BlittableI8JSONReadLb0E8BitFieldEvRK29SerializationCommandArgumentsR31RuntimeSerializationCommandInfo
KJd:_SecurityPermission_set_Flags_m1503445204
Oqd:_ModulusRing_Multiply_m343333088
n1:__ZN9ShaderLab14SerializedPass8TransferI14SafeBinaryReadEEvRT_
Ky:__ZN12AudioManager16SetListenerPauseEb
l$a:__ZNSt3__26vectorIN30RuntimeInitializeOnLoadManager9ClassInfoE13stl_allocatorIS2_L18MemLabelIdentifier13ELi16EEE6assignINS_11__wrap_iterIPS2_EEEENS_9enable_ifIXaasr21__is_forward_iteratorIT_EE5valuesr16is_constructibleIS2_NS_15iterator_traitsISC_E9referenceEEE5valueEvE4typeESC_SC_
Xog:__ZN6il2cpp2vm9Exception25RaiseOutOfMemoryExceptionERKNS_5utils10StringViewIDsEE
da:invoke_viiiiiiiiiii
MJg:___syscall_ret
EJe:_DeriveBytes_set_Salt_m1400945044
S$e:_AnchorInfo__ctor_m46784903
j1c:_CipherSuiteCollection_get_Item_m4188309062
Q6c:_SslHandshakeHash_HashFinal_m2573455475
Vfd:_SynchronizationAttribute_ReleaseLock_m1030353464
Cag:__ZNSt3__212basic_stringIcNS_11char_traitsIcEENS_9allocatorIcEEE6assignINS_11__wrap_iterIPKcEEEENS_9enable_ifIXaasr21__is_forward_iteratorIT_EE5valuesr38__libcpp_string_gets_noexcept_iteratorISC_EE5valueERS5_E4typeESC_SC_
SRa:__ZN11ChannelInfo8TransferI19StreamedBinaryWriteILb0EEEEvRT_
Zzg:__ZN4utf88internal13validate_nextIPKcEENS0_9utf_errorERT_S5_Rj
oxb:__ZN14qsort_internal13Partition3WayIP17RODataReplacementi19ROSorterReplacementEENSt3__24pairIT_S6_EES6_S6_T0_T1_
BVb:__Z34Register_UnityEngine_Gradient_Initv
FBe:_Array_InternalArray__IndexOf_TisUInt64_t4134040092_m1206929132_gshared
UXa:__ZN9InputAxis8TransferI19StreamedBinaryWriteILb0EEEEvRT_
cKc:__Z33il2cpp_codegen_check_sub_overflowxx
nPg:dynCall_viififiii
rYd:_Double_System_IConvertible_ToInt16_m3591921965_AdjustorThunk
Xza:__ZN10GameObject23VirtualRedirectTransferER18StreamedBinaryReadILb0EE
QUf:_SymmetricTransform__ctor_m2693628991
Osb:__ZN16MeshVertexFormatC2EjRK18VertexChannelsInfob
mac:_ObjectDisposedException__ctor_m1034312941
Jf:_glFrontFace
yc:_SDL_GetTicks
kCb:__ZNSt3__26vectorI16ShadowCasterData13stl_allocatorIS1_L18MemLabelIdentifier2ELi16EEE21__push_back_slow_pathIKS1_EEvRT_
vVf:_AesManaged_set_Key_m767972181
eJc:_Int16_System_IConvertible_ToBoolean_m1656400658_AdjustorThunk
rxc:_Byte_System_IConvertible_ToInt64_m285584218
Rca:__ZN13GfxDeviceGLES22SetScissorRectPlatformERK5RectTIiE
Cja:__ZN6prcoreL17RemapGenericFloatI17TexFormatRGBFloat18TexFormatRGBAFloatEEvPKNS_9InnerInfoE
XBe:_Array_InternalArray__ICollection_Add_TisDictionaryEntry_t3123975638_m665385049_gshared
bVc:_MissingMemberException__ctor_m2707802176
A7b:__ZN20UnityConnectSettings10InitializeEv
_Oa:__ZN15SerializeTraitsI13dynamic_arrayI28EnlightenRendererInformationLj8EEE19ResizeSTLStyleArrayERS2_i
lnd:_SerializationInfo_GetValue_m42271953
Pr:__ZN9AudioClip11CreateSoundEv
sig:__ZN14dense_hash_mapI10KeyWrapperINSt3__24pairIPK9FieldInfoP11Il2CppClassEEEj17ReflectionMapHashIS8_ENS9_14EqualsComparerINS1_8equal_toIS8_EEEENS1_9allocatorINS2_IKS9_jEEEEEC2EjRKSB_RKSF_
Qdg:__ZNK15dense_hashtableINSt3__24pairIK10KeyWrapperINS1_IPK10MethodInfoP11Il2CppClassEEEjEES9_17ReflectionMapHashIS8_EN14dense_hash_mapIS9_jSD_NS9_14EqualsComparerINS0_8equal_toIS8_EEEENS0_9allocatorISB_EEE9SelectKeyESI_SK_E13find_positionERSA_
Yba:__ZN13GfxDeviceGLES20CreateComputeProgramEPKhj
V6b:__ZN11UnityEngine7Connect16PersistentValues13RestoreValuesER8JSONRead
t2d:_Guid_BaseToString_m3600006650
Exa:__ZN20ArchiveStorageReader31TryToReadDirectoryFromBlockDataEyPKvj
arg:__ZN6il2cpp2vmL11GetIdentityEP14Il2CppIUnknown
pDg:_GC_push_gc_structures
r4c:_TlsServerCertificate_ProcessAsTls1_m819212276
$Fe:_Dictionary_2_Do_ICollectionCopyTo_TisRuntimeObject_m3942192587_gshared
Q8f:__ZN6il2cpp6icalls8mscorlib6SystemL8IsPublicEPK9EventInfo
pZc:_PrimalityTests_RabinMillerTest_m2544317101
AYc:_Kernel_DwordDivMod_m1540317819
BRe:_Enumerator_System_Collections_IEnumerator_get_Current_m1399273671_gshared
WMc:_Int64_Equals_m858582563_AdjustorThunk
kSa:__ZNSt3__213__stable_sortIRNS_4lessI4PPtrI11SpriteAtlasEEENS_11__wrap_iterIPS4_EEEEvT0_SA_T_NS_15iterator_traitsISA_E15difference_typeEPNSD_10value_typeEi
rNc:_Int64_ToString_m2085073918_AdjustorThunk
Mic:_FieldInfo_GetFieldOffset_m1356898082
xBe:_Array_InternalArray__IndexOf_TisTypeTag_t3541821701_m2988972362_gshared
rU:__ZN8keywords6CreateEPKc
S:Math_imul
EWa:__ZN14SpriteRenderer15SetupPropertiesEv
M4c:_TlsServerKeyExchange_Update_m453798279
bQa:__ZN11PlayerPrefs6GetIntERKN4core12basic_stringIcNS0_20StringStorageDefaultIcEEEEi
p1c:_CipherSuiteCollection_System_Collections_IList_IndexOf_m1361500977
cRd:_DateTime__ctor_m2135476686_AdjustorThunk
kjd:_SoapFieldAttribute_IsInteropXmlElement_m2819415462
yBc:_SynchronizedArrayListWrapper_GetEnumerator_m1579424644
QJ:__ZN18ScriptingArguments9AddObjectE18ScriptingObjectPtr
_A:__ZN11UnityEngine15CloudWebService16SessionContainerD2Ev
d7b:__ZL38InitializeUnityConnectScriptingClassesv
xGb:__ZN13ProbeRenderer8ConvolveEbijjb
Sfa:__ZN17GenericDynamicVBOC2ER9GfxDevice13GfxBufferModejj
Dyd:_ServicePointManager_get_SecurityProtocol_m966397919
wma:__ZN13dynamic_arrayIN18GlslGpuProgramGLES9GLProgramELj4EE6insertEPS1_jRKS1_
EVd:_Decimal_System_IConvertible_ToInt32_m1488426794_AdjustorThunk
a$d:_CCGregorianCalendar_day_from_fixed_m1674702403
rC:__ZN11UnityEngine15CloudWebService17SessionEventQueue10PurgeItemsEj
bHb:__ZN6Camera16StandaloneRenderENS_10RenderFlagEP6ShaderRKN4core12basic_stringIcNS3_20StringStorageDefaultIcEEEE
dBd:_X509Chain_PrepareForNextCertificate_m3691934993
fWe:_Func_2_Invoke_m937783852_gshared
yhb:__Z18Transfer_BlittableI18StreamedBinaryReadILb1EELb1EtEvRK29SerializationCommandArgumentsR31RuntimeSerializationCommandInfo
oGf:__ZL57X509Certificate_t713131622_CustomAttributesCacheGeneratorP21CustomAttributesCache
bVa:__ZN12BoneWeights48TransferI19StreamedBinaryWriteILb0EEEEvRT_
baa:__ZN9GfxDevice20DeallocRenderSurfaceEP17RenderSurfaceBase
HQd:_DateTime_FromTicks_m4059645178
u6:__ZN20GpuProgramParameters36UpdatePrepareValuesMaximumBufferSizeEv
Fod:_SimpleCollator_GetContraction_m2205549079
ZZc:_ARC4Managed_GenerateKey_m1607343060
YCe:_Array_InternalArray__ICollection_CopyTo_TisDecimal_t2948259380_m2749946216_gshared
vBa:__ZN12BaseRenderer23RendererBecameInvisibleEv
Neb:__Z29Transfer_Blittable_ArrayFieldI24GenerateTypeTreeTransferfEvRT_R9ArrayInfoRK23StaticTransferFieldInfo
VW:__ZNSt3__26__treeINS_12__value_typeIN4core12basic_stringIcNS2_20StringStorageDefaultIcEEEES6_EENS_19__map_value_compareIS6_S7_NS_4lessIS6_EELb1EEE13stl_allocatorIS7_L18MemLabelIdentifier13ELi16EEE7destroyEPNS_11__tree_nodeIS7_PvEE
X5e:_UnityEvent_FindMethod_Impl_m2312362624
rIb:__ZN19CustomRenderTexture9AddParentE4PPtrIS_E
taf:_Vector3_GetHashCode_m2879461828
U_e:_Parser_ParseSpecial_m1961501104
FMd:_Single_System_IConvertible_ToUInt64_m3299129161_AdjustorThunk
DKa:__ZNSt3__26vectorIN4core12basic_stringIcNS1_20StringStorageDefaultIcEEEE13stl_allocatorIS5_L18MemLabelIdentifier1ELi16EEE7reserveEj
iyd:_IPv6Address_AsIPv4Int_m844941024
h5c:_RecordProtocol__cctor_m1280873827
Eoc:_Marshal__cctor_m4007734770
jCg:_GC_new_free_list_inner
QBg:_GC_err_printf
D$c:_RSAManaged_DecryptValue_m1804388365
W3d:_InternalEnumerator_1_System_Collections_IEnumerator_get_Current_m2980550840_AdjustorThunk
i0b:__ZN8JSONRead8TransferI10RectOffsetEEvRT_PKc17TransferMetaFlagsb
$B:__ZN9JSONWrite8TransferIN11UnityEngine15CloudWebService14DataErrorEvent15FileErrorDetailEEEvRT_PKc17TransferMetaFlags
dMc:_Int32_Parse_m2087562008
zlc:_MonoProperty_GetAccessors_m412928203
Vu:__ZN12SoundManager20RegisterModifiedClipEP10SampleClip
akd:_RemotingServices_GetClientChannelSinkChain_m1499550585
l_d:_Environment_ReadXdgUserDir_m2654856189
XDf:__ZL56_EventBuilder_t2558055199_CustomAttributesCacheGeneratorP21CustomAttributesCache
VHd:_SHA384Managed_processBlock_m1272529332
Ape:_Interlocked_CompareExchange_m3023855514
kzc:_Char_ToString_m278452217_AdjustorThunk
r2f:__ZN15dense_hashtableI10KeyWrapperIPK17Il2CppGenericInstES4_N6il2cpp8metadata21Il2CppGenericInstHashEN14dense_hash_setIS4_S7_NS4_14EqualsComparerINS6_24Il2CppGenericInstCompareEEENSt3__29allocatorIS4_EEE8IdentityESB_SE_E13set_empty_keyERKS4_
BKe:_X509Certificate_get_RSA_m1755006809
QGc:_Convert_ToDouble_m2924063577
Scc:_CustomAttributeNamedArgument_ToString_m1488801416_AdjustorThunk
$Ma:__ZN7Cubemap23VirtualRedirectTransferER18StreamedBinaryReadILb0EE
PVb:__ZNSt3__27__sort4IRNS_6__lessI11KeyframeTplIfES3_EEPS3_EEjT0_S7_S7_S7_T_
cNe:_Enumerator_System_Collections_IEnumerator_Reset_m959124362_gshared
Hod:_SimpleCollator_GetTailContraction_m2107754083
Bdb:__ZL26Transfer_SimpleNativeClassI24GenerateTypeTreeTransfer17AnimationCurveTplIfELb0EEvRK29SerializationCommandArgumentsR31RuntimeSerializationCommandInfo
i1b:__ZN8JSONRead21TransferSTLStyleArrayI13dynamic_arrayI9BoundsIntLj4EEEEvRT_17TransferMetaFlags
gPa:__ZN24GenerateTypeTreeTransfer8TransferI13dynamic_arrayI33EnlightenTerrainChunksInformationLj4EEEEvRT_PKc17TransferMetaFlags
URd:_DateTimeFormatInfo__ctor_m3106345035
qY:__ZN16LightmapSettings20DidChangeActiveSceneEP10UnitySceneS1_
c9f:__ZN6il2cpp5utils9PathUtils8BasenameIcEENSt3__212basic_stringIT_NS3_11char_traitsIS5_EENS3_9allocatorIS5_EEEERKSA_
qkd:_RemotingProxy__cctor_m4096951805
gpg:__ZN6il2cpp2vm9Exception23GetInvalidCastExceptionERKNS_5utils10StringViewIDsEE
xI:__Z63ThreadAndSerializationSafeCheckGetMonoBehaviourBeingTransferredv
RXd:_StackTrace__ctor_m206492268
MQe:_List_1_set_Item_m4224739467_gshared
Cdc:_ConstructorBuilder_get_Name_m2426555260
H0e:_CapturingGroup_CompareTo_m4265294460
V_e:_Parser_ParseCharacterClass_m4285351396
OHc:_Convert_ToSByte_m2653418303
dEc:_SyncHashtable__ctor_m2449935938
fHd:_RSAPKCS1SignatureFormatter_SetKey_m2935054088
Owb:__ZN12ImageFilters27SetSurfaceUseResolvedBufferEP13RenderTextureb
zSa:__ZN14Texture2DArray23VirtualRedirectTransferER18StreamedBinaryReadILb0EE
voe:_UTF7Encoding_GetByteCount_m209415911
F2a:__ZN2UI13RectTransform13AwakeFromLoadE17AwakeFromLoadMode
B1e:_RegularExpression_Compile_m2385682508
k$d:_CompareInfo__cctor_m1837489679
KBb:__ZN14qsort_internal30FindAndMovePivotToLastPositionIP20ShadowCasterSortDatai26ShadowCasterSortDataSorterEEvT_S4_T0_T1_
Z6a:__Z18Transfer_BlittableI14SafeBinaryReadLb1EiEvRK29SerializationCommandArgumentsR31RuntimeSerializationCommandInfo
jBd:_X509ExtensionEnumerator_get_Current_m256207749
uT:__GLOBAL__sub_I_modules_profiler_public_0_cpp
r1a:__ZN17PersistentManager13GetAllFileIDsERKN4core12basic_stringIcNS0_20StringStorageDefaultIcEEEER13dynamic_arrayIxLj8EE
Juc:_Array_Sort_m182264525
icc:_Default_IsArrayAssignable_m953489228
Rue:_UInt16_ToString_m355311020_AdjustorThunk
Vbd:_RC2__ctor_m1146135664
Xj:_glGetStringi
PPd:_DecoderExceptionFallback_CreateFallbackBuffer_m1133375601
Xsg:__ZNK15dense_hashtableI10KeyWrapperIP18Il2CppGenericClassES3_N6il2cpp8metadata22Il2CppGenericClassHashEN14dense_hash_setIS3_S6_NS3_14EqualsComparerINS5_25Il2CppGenericClassCompareEEENSt3__29allocatorIS3_EEE8IdentityESA_SD_E10test_emptyERK30dense_hashtable_const_iteratorIS3_S3_S6_SF_SA_SD_E
lee:_Enumerator_get_CurrentKey_m889650866_gshared
S9e:_StackTraceUtility_PostprocessStacktrace_m1043256299
Fde:_Enumerator_VerifyCurrent_m829026141_gshared
kQa:__ZNSt3__23mapIN4core12basic_stringIcNS1_20StringStorageDefaultIcEEEE9PrefValueNS_4lessIS5_EENS_9allocatorINS_4pairIKS5_S6_EEEEEixERSB_
hTe:_Collection_1_ConvertItem_m1743542180_gshared
HFb:__Z35IntersectSpherePlaneBoundsOptimizedRKN4math7_float4EPS1_i
mGd:_RNGCryptoServiceProvider__cctor_m3587754670
PX:__Z22CleanupLODGroupManagerPv
Hk:_glUniform3fv
dIg:__ZNK6il2cpp8metadata24Il2CppGenericInstCompareclERK10KeyWrapperIPK17Il2CppGenericInstES8_
p_a:__ZNSt3__218__insertion_sort_3IRN15ResourceManager10Dependency6SorterEPS2_EEvT0_S6_T_
EBd:_X509ChainElement_Set_m655180762
vAb:__ZNK16LightmapSettings31GetRealtimeLightmapDecodeValuesEv
nw:__ZN5audio5mixer12SetSuspendedERNS0_16AudioMixerMemoryEb
j2a:__ZN17PersistentManager21UnloadNonDirtyStreamsEv
Dxb:__Z18SetShadowsKeywordsR17ShaderPassContext9LightType10ShadowType16ShadowProjectionbb
rjf:__Z96RuntimeInvoker_Int32_t2950945753_RuntimeObject_Int32_t2950945753_RuntimeObject_Int32_t2950945753PFvvEPK10MethodInfoPvPS4_
Tqe:_Scheduler__ctor_m3313141270
ATa:__ZN12ImageFilters4BlitER17ShaderPassContextP7TextureP13RenderTextureiPK18SharedMaterialDataPKcP6ShaderiNS_9BlitFlagsE11CubemapFaceRK8Vector2fSH_
pOd:_String_LastIndexOf_m3451222878
BC:__ZN11UnityEngine15CloudWebService10RestClientINS0_23WebRequestRestHeaderMapEED2Ev
bl:_emscripten_glDepthMask
Gkd:_RemotingServices_CreateClientProxy_m3886727610
fha:__ZN4crnd25static_huffman_data_model22prepare_decoder_tablesEv
m5c:_RecordProtocol_GetMessage_m2086135164
vY:__Znaj
aXg:_emscripten_glEnableClientState__wrapper
dV:__ZN17MessageIdentifierC2EPKcNS_7OptionsEPKN5Unity4TypeES1_
uMd:_Single_System_IConvertible_ToSByte_m1208276900
Mhf:__Z105RuntimeInvoker_Void_t1185182177_RuntimeObject_RuntimeObject_RuntimeObject_RuntimeObject_Int32_t2950945753PFvvEPK10MethodInfoPvPS4_
Mcf:__Z64RuntimeInvoker_RuntimeObject_Int16_t2552820387_Int16_t2552820387PFvvEPK10MethodInfoPvPS4_
Rz:__Z55Register_UnityEngine_AudioSource_get_spatializeInternalv
vua:__ZN14SafeBinaryRead8TransferI14ConstantStringEEvRT_PKc17TransferMetaFlags
$ub:__ZNK6Camera16GetStereoEnabledEv
N5c:_SendRecordAsyncResult_SetComplete_m153213906
_6:__ZL24FindBelongingStructParamRPKcRNSt3__26vectorIN9ShaderLab20SerializedSubProgram14ConstantBufferENS2_9allocatorIS6_EEEE
uQb:__ZN12LightManager15InitializeClassEv
ere:_WaitHandle__cctor_m4242752477
CJa:__ZN9ShaderLab11shaderprops16GetComputeBufferEPK19ShaderPropertySheetS3_NS_16FastPropertyNameE
eK:__ZN18ScriptingArgumentsC2Ev
mcb:__ZL22Transfer_ManagedObjectI17RemapPPtrTransferLb1EEvRK29SerializationCommandArgumentsR31RuntimeSerializationCommandInfo
JSg:_emscripten_glBlendFuncSeparate__wrapper
nPc:_FileSystemInfo__ctor_m3769019897
iea:__Z17HasSampledTexture14GraphicsFormat13formatSupport
owb:__ZNK25CameraStackRenderingState27GetStereoImageEffectTextureEb
nbd:_HMACSHA384__ctor_m1677515580
iGd:_RIPEMD160Managed_J_m1336489154
bo:__ZN8Vector3f8TransferI14SafeBinaryReadEEvRT_
A6f:__ZN6il2cpp6icalls6System6System3Net7Sockets6Socket7ReceiveEiP11Il2CppArrayiiNS4_11SocketFlagsEPi
on:FUNCTION_TABLE_ii
lBa:__ZN10TagManager8TransferI18StreamedBinaryReadILb0EEEEvRT_
KYb:__Z18Transfer_BlittableI9JSONWriteLb0E8BitFieldEvRK29SerializationCommandArgumentsR31RuntimeSerializationCommandInfo
lRc:_MemoryStream_set_Capacity_m1773624579
Rkg:__ZNK15dense_hashtableINSt3__24pairIK10KeyWrapperINS1_IP11Il2CppClassjEEES4_EES6_N6il2cpp8metadata14ArrayClassHashEN14dense_hash_mapIS6_S4_SB_NS6_14EqualsComparerINSA_17ArrayClassCompareEEENS0_9allocatorIS8_EEE9SelectKeyESF_SH_E10test_emptyEj
N_d:_GC_SuppressFinalize_m1177400158
i2:__ZNSt3__26vectorIN9ShaderLab20SerializedSubProgram15StructParameterENS_9allocatorIS3_EEE8__appendEj
bb:invoke_diiii
ORg:b47
vof:__Z95RuntimeInvoker_Void_t1185182177_RuntimeObject_RuntimeObject_SByte_t1669577662_SByte_t1669577662PFvvEPK10MethodInfoPvPS4_
Uva:__Z24CreateDirectoryRecursiveRKN4core12basic_stringIcNS_20StringStorageDefaultIcEEEE
E4:__ZN9ShaderLab20SerializedSubProgram8TransferI18StreamedBinaryReadILb0EEEEvRT_
tRg:b40
IRg:b43
FU:__ZN13RuntimeStaticI21ScalableBufferManagerLb0EE13StaticDestroyEPv
rTa:__ZN9Texture3D8TransferI19StreamedBinaryWriteILb0EEEEvRT_
Twb:__ZNK6Camera22CalculateRenderingPathEv
yHc:_Convert_ToInt64_m3758262873
Asc:_Hashtable_TestPrime_m3839319309
sna:__Z13ConvertMipmap14GraphicsFormatPKvS_Pviiii
hcb:__ZL12InvokeMethodI17RemapPPtrTransferEvRK29SerializationCommandArgumentsR31RuntimeSerializationCommandInfo
mxd:_RemoteCertificateValidationCallback_Invoke_m3086073466
nPd:_StringComparer_Compare_m991165676
roa:__ZN4core8hash_mapIPK17RenderSurfaceBaseP13RenderTexture19PointerHashFunctionIS3_ENSt3__28equal_toIS3_EEE6insertERKNS8_4pairIKS3_S5_EE
kFg:__ZN6il2cpp6icalls8mscorlib6System9Threading16NativeEventCalls20CreateEvent_internalEbbP12Il2CppStringPb
eRe:_List_1_AddEnumerable_m3500350831_gshared
o$c:_PrivateKeyInfo_get_PrivateKey_m3647771102
k5b:__ZN18UnityConnectClient12CloseServiceEv
Ong:__ZN6il2cpp6icalls8mscorlib6System9ThreadingL11ThreadStartEPv
n_:__ZN15DirectorManager12OnSampleTimeEv
ahc:_TypeBuilder_check_not_created_m3652863637
DR:__ZN12CachedReader10Align4ReadEv
qKe:_X501__cctor_m2428304915
jdf:__Z50RuntimeInvoker_Void_t1185182177_Single_t1397266774PFvvEPK10MethodInfoPvPS4_
wta:__ZNK9Behaviour22GetTypeVirtualInternalEv
$_d:_CCGregorianCalendar_month_from_fixed_m4268992710
rGb:__Z21GetScriptingArraySize17ScriptingArrayPtr
Zle:_Encoding_get_ASCII_m3595602635
Zaa:__ZN9GfxDevice17ImmediateTexCoordEifff
eJf:__ZL93Interlocked_t2273387594_CustomAttributesCacheGenerator_Interlocked_CompareExchange_m388540288P21CustomAttributesCache
cic:_MethodBase_get_IsAbstract_m428833029
Kcb:__Z35Transfer_Blittable_FixedBufferFieldI24GenerateTypeTreeTransferhEvRK29SerializationCommandArgumentsR31RuntimeSerializationCommandInfo
LQg:_emscripten_glUniform4f__wrapper
KH:__ZNK6Camera16GetProjectionFarEv
wp:__Z24InverseTransformRotationRK23TransformAccessReadOnlyRKN4math7_float4E
qLe:_X509Chain_Build_m2469702749
SAf:__ZL64Path_t1605229823_CustomAttributesCacheGenerator_InvalidPathCharsP21CustomAttributesCache
OMa:__ZN7Texture34CreateFileTextureUploadInstructionE18TextureUploadFlagsj
Xrd:_BitConverterLE_ULongFromBytes_m1677445591
_gc:_TypeBuilder_DefineConstructor_m2989882735
yya:__ZN25SingleBlockMemoryFileDataC2E10MemLabelIdPvjb
eFb:__ZN27IntermediateRendererManager24GetIntermediateRenderersEi
YM:__Z23AsyncReadForceCloseFileRKN4core12basic_stringIcNS_20StringStorageDefaultIcEEEE
Cy:__ZN16BaseVideoTexture19UpdateVideoTexturesEv
ykc:_MonoField_GetValue_m3124733531
qFa:__Z28BuildSingleStreamChannelInfo17ShaderChannelMaskRK20VertexChannelsLayoutS_S2_P11ChannelInfo
hxc:_Byte_System_IConvertible_ToDecimal_m3746192770_AdjustorThunk
XQa:__ZN6Sprite23VirtualRedirectTransferER19StreamedBinaryWriteILb0EE
Kjf:__Z253RuntimeInvoker_Int32_t2950945753_RuntimeObject_Int32_t2950945753_Int32_t2950945753_RuntimeObject_Int32_t2950945753_UInt32U26_t3735378166_UInt32U26_t3735378166_RuntimeObject_DecoderFallbackBufferU26_t3866396827_ByteU5BU5DU26_t4057885439_SByte_t1669577662PFvvEPK10MethodInfoPvPS4_
Scg:__ZNK15dense_hashtableINSt3__24pairIK10KeyWrapperINS1_IPK9FieldInfoP11Il2CppClassEEEjEES9_17ReflectionMapHashIS8_EN14dense_hash_mapIS9_jSD_NS9_14EqualsComparerINS0_8equal_toIS8_EEEENS0_9allocatorISB_EEE9SelectKeyESI_SK_E5beginEv
l7:__ZNK9ShaderLab7Program19HasMatchingVariantsERK13dynamic_arrayI16ShaderKeywordSetLj4EE
Tea:__ZN14DataBufferGLES11CopySubDataEPKS_jjj
yd:_emscripten_glVertexPointer
p9f:__ZN6il2cpp2vm7Runtime47RaiseExecutionEngineExceptionIfMethodIsNotFoundEPK10MethodInfo
xZe:_PatternCompiler_GetMachineFactory_m3758869886
nCb:__Z17GetFrustumPortionPK8Vector3fffPS_
xqg:__ZN15dense_hashtableINSt3__24pairIK10KeyWrapperIP14Il2CppIUnknownEjEES5_N6il2cpp5utils11PointerHashIS3_EEN14dense_hash_mapIS5_jSB_NS5_14EqualsComparerINS0_8equal_toIS4_EEEENS0_9allocatorIS7_EEE9SelectKeyESG_SI_E14squash_deletedEv
T7c:_RuntimeTypeHandle_Equals_m2857439487_AdjustorThunk
Q8:__ZNK9GfxDevice27GetPlatformAdjustedViewportEv
EVe:_ReadOnlyCollection_1_System_Collections_Generic_IListU3CTU3E_set_Item_m88350439_gshared
Uoe:_UTF8Encoding_GetMaxCharCount_m3762459613
jNd:_String_System_IConvertible_ToChar_m863771412
uzc:_ArrayList__ctor_m3828927650
$ca:__ZThn9568_N13GfxDeviceGLES26EnableScissorRectsPlatformEv
aqa:__ZN10Matrix3x3f15InvertTransposeEv
vub:__Z11IsBatchmodev
ONe:_Enumerator_System_Collections_IEnumerator_get_Current_m713684915_gshared
Jab:__Z29Transfer_Blittable_ArrayFieldI14SafeBinaryRead8Vector3fEvRT_R9ArrayInfoRK23StaticTransferFieldInfo
Xyc:_Char_IsLetterOrDigit_m3494175785
Ruc:_SimpleEnumerator_get_Current_m72361444
To:__ZNSt3__26vectorIN4core12basic_stringIcNS1_20StringStorageDefaultIcEEEENS_9allocatorIS5_EEE8__appendEj
Jjg:_il2cpp_gc_collect
EZa:__ZN26PlayerSettingsSplashScreen8TransferI17RemapPPtrTransferEEvRT_
Hrd:_ASN1_set_Value_m2803403806
_7f:__ZN6il2cpp6icalls8mscorlib6SystemL17CollectTypeFieldsINS_5utils10functional10TrueFilterEEEvP11Il2CppClassPKS7_iRNSt3__26vectorIP9FieldInfoNSB_9allocatorISE_EEEERKT_
tsc:_Hashtable__ctor_m1815022027
Soe:_UTF8Encoding_GetChars_m1433288684
kXf:__ZL10roundUp128PyS_
KA:__ZN11UnityEngine15CloudWebService17CloudJobSchedulerD0Ev
d3d:_ArrayReadOnlyList_1_Contains_m381552673_gshared
Ase:_TimeZone_ToUniversalTime_m2789507578
fdf:__Z96RuntimeInvoker_Boolean_t97287965_RuntimeObject_RuntimeObject_Int32_t2950945753_Int32_t2950945753PFvvEPK10MethodInfoPvPS4_
F3c:_Context_get_Current_m2853615040
Bte:_Type_IsContextfulImpl_m3693603908
Yjb:__Z18Transfer_BlittableI18StreamedBinaryReadILb0EELb1EN4math12int3_storageEEvRK29SerializationCommandArgumentsR31RuntimeSerializationCommandInfo
zra:__ZN22VertexDeclarationCache5ClearEv
y9c:_CspParameters__ctor_m3852972821
sJb:__ZN17PersistentManager12SetPathRemapERKN4core12basic_stringIcNS0_20StringStorageDefaultIcEEEES6_
QDb:__ZN6Camera24PrepareCullingParametersERK23CameraCullingParameters13RenderingPathR11CullResults
X$a:__ZN19RuntimeSceneManager22EndIntegrateMainThreadEP10UnitySceneNS_11LoadingModeE
Hpc:_Buffer_BlockCopy_m2884209081
jcb:__Z26Transfer_UnityEngineObjectI17RemapPPtrTransferLb0EEvRK29SerializationCommandArgumentsR31RuntimeSerializationCommandInfo
u_e:_QuickSearch_GetShiftDistance_m2542665852
CGe:_Array_InternalArray__get_Item_TisCustomAttributeTypedArgument_t2723150157_m2639399822_gshared
Ypd:_BigInteger_GenerateRandom_m3141592944
Eeb:__Z29Transfer_Blittable_ArrayFieldI24GenerateTypeTreeTransfer4AABBEvRT_R9ArrayInfoRK23StaticTransferFieldInfo
oFd:_Interval_Contains_m1454846757
uHa:__ZN20SphericalHarmonicsL219AddDirectionalLightERKN4math7_float3ERKNS0_7_float4E
e_:__Z26ScheduleJobForEachInternalR8JobFencePFvPvjES1_iPFvS1_E11JobPriority
gub:__ZZ23InitPlayerLoopCallbacksvEN41PostLateUpdateProfilerEndFrameRegistrator7ForwardEv
jTb:__ZN9Scripting18RaiseMonoExceptionEPKcz
CSb:__ZN10GameObject17WillHandleMessageERK17MessageIdentifier
pKd:_StrongNamePublicKeyBlob_Equals_m3655422942
lLd:_SecurityContext__ctor_m1730177197
TQb:__ZN9ShaderLab16FastPropertyName15InitBy28BitHashEj
$Ne:_List_1_System_Collections_IList_Add_m2937161398_gshared
ogf:__Z96RuntimeInvoker_Void_t1185182177_Int32_t2950945753_Single_t1397266774_RuntimeObject_RuntimeObjectPFvvEPK10MethodInfoPvPS4_
qUa:__ZN17PackedFloatVector12UnpackFloatsEPfiiii
Zba:__ZN13GfxDeviceGLES21DestroyComputeProgramER12ObjectHandleI18ComputeProgram_TagPvE
TZe:_PatternCompiler_EmitIfDefined_m2075050865
GVd:_Decimal_System_IConvertible_ToInt64_m1446427516_AdjustorThunk
TX:__ZN17UniqueIDGenerator16DestroyPureIndexEj
fXc:_NotImplementedException__ctor_m3095902440
sL:__ZL21AppendNestedClassName17ScriptingClassPtrRN4core17string_with_labelILi1EEE
R1:__ZN14SafeBinaryRead21TransferSTLStyleArrayINSt3__26vectorIN9ShaderLab20SerializedSubProgram12UAVParameterENS1_9allocatorIS5_EEEEEEvRT_17TransferMetaFlags
TB:__ZN24TextDOMTransferWriteBaseI9JSONWriteE12PushMetaFlagEi
hEf:__ZL59_PropertyBuilder_t1366136710_CustomAttributesCacheGeneratorP21CustomAttributesCache
Eka:__ZN6prcoreL26RemapGenericIntegerToFloatI17TexFormatARGB888815TexFormatRFloatEEvPKNS_9InnerInfoE
s7f:__ZN6il2cpp2vm10ThreadPool10InitializeEv
Rag:__ZN6il2cpp2vm17TypeNameParseInfoD2Ev
oVd:_Decimal_System_IConvertible_ToType_m2919262279
TG:__ZNK8Renderer8GetLayerEv
iSc:_Stream_Close_m771352034
Hce:__ZN21InterfaceFuncInvoker1Ii19TimeSpan_t881159249E6InvokeEjP11Il2CppClassP12Il2CppObjectS0_
Ayb:__ZNK6Camera20GetReplacementShaderEv
kSg:_glProgramBinary__wrapper
fHg:__ZNSt3__26__treeINS_12__value_typeINS_12basic_stringIcNS_11char_traitsIcEENS_9allocatorIcEEEEPFvvEEENS_19__map_value_compareIS7_SA_NS_4lessIS7_EELb1EEENS5_ISA_EEE4findIS7_EENS_15__tree_iteratorISA_PNS_11__tree_nodeISA_PvEEiEERKT_
Tha:__ZL23stbir__calculate_memoryP11stbir__info
yEd:_Interpreter_Close_m126356671
lUe:_Collection_1_InsertItem_m168969280_gshared
Lme:_Latin1Encoding_GetMaxCharCount_m1720752733
gSa:__ZN13sorted_vectorIN4core12basic_stringIcNS0_20StringStorageDefaultIcEEEENSt3__24lessIS4_EE13stl_allocatorIS4_L18MemLabelIdentifier81ELi16EEE4findIS4_EENS5_11__wrap_iterIPS4_EERKT_
M_e:_Parser_HandleExplicitNumericGroups_m1412234891
Kcc:_CustomAttributeNamedArgument_Equals_m1414002036
D$b:__ZL26Transfer_SimpleNativeClassI8JSONRead10RectOffsetLb1EEvRK29SerializationCommandArgumentsR31RuntimeSerializationCommandInfo
eNe:_Enumerator_System_Collections_IEnumerator_Reset_m959124362_AdjustorThunk
PZd:_Enum_ToObject_m121831801
sYb:__Z18Transfer_BlittableI9JSONWriteLb1EsEvRK29SerializationCommandArgumentsR31RuntimeSerializationCommandInfo
Rub:__ZN13RenderManager37RenderCamerasWithScriptableRenderLoopEi
rH:__Z24GetExecutionRestrictionsv
Dtg:__ZN6il2cpp2os19ReleaseSocketHandleEj
Px:__ZN11AudioModule16GetDSPSampleRateEv
Hrb:__ZN15InstancingProps11NewConstantERKN9ShaderLab16FastPropertyNameEj15ShaderParamTypehhjjP6Object
WCe:_Array_InternalArray__ICollection_CopyTo_TisSlot_t384495010_m793189633_gshared
Ise:_Type_get_Attributes_m58528356
eqc:_Array_GetUpperBound_m4018715963
Gvg:__ZN6il2cpp2os5posix15PosixWaitObjectC2ENS2_4TypeE
Nwb:__ZN6Camera21PostMultiCustomRenderENS_10RenderFlagEb
aEe:_Array_InternalArray__Insert_TisMonoResource_t4103430009_m1997865927_gshared
lId:_SHA512Managed_HashFinal_m2173184560
vrb:__ZN23ShaderVariantCollection13WarmupShadersEv
JOb:__ZN13ProduceHelperI9TransformLb0EE7ProduceE10MemLabelId18ObjectCreationMode
aL:__Z25GetCommonScriptingClassesv
t0a:__Z27scripting_gc_collect_unsafei
Q_c:_MD5SHA1_HashFinal_m4115488658
Ux:__ZN11AudioModule20SuspendVideoTexturesEv
Iz:__Z59Register_UnityEngine_AudioExtensionManager_GetAudioListenerv
Xdb:__Z26Transfer_UnityEngineObjectI24GenerateTypeTreeTransferLb0EEvRK29SerializationCommandArgumentsR31RuntimeSerializationCommandInfo
OGc:_Convert_ToDouble_m278900635
MWc:_MonoType_get_Module_m2397868165
pQc:_Stream_BeginRead_m2233539237
pee:_Enumerator_System_Collections_IDictionaryEnumerator_get_Value_m684446183_AdjustorThunk
RDa:__ZN15SharedLightData7PrecalcEv
jN:__ZN10Matrix4x4fmLERKS_
thb:__Z35Transfer_Blittable_FixedBufferFieldI18StreamedBinaryReadILb1EEsEvRK29SerializationCommandArgumentsR31RuntimeSerializationCommandInfo
k_d:_Environment_InternalGetFolderPath_m468390978
qxa:__ZN15ArchiveReadFileD0Ev
y4b:__ZN11UnityEngine15PlatformWrapper18GetOperatingSystemEv
lxe:_Version_CheckedSet_m654078179
DUg:_emscripten_glReadPixels__wrapper
vHg:__ZN6il2cpp6icalls8mscorlib4Mono8Security12Cryptography18KeyPairPersistence10_CanSecureEP12Il2CppString
oye:_Array_InternalArray__ICollection_Contains_TisParameterModifier_t1461694466_m1000453323_gshared
Rhe:_Dictionary_2_System_Collections_ICollection_CopyTo_m4047192178_gshared
V9f:__ZN6il2cpp2os4File11GetFileStatERKNSt3__212basic_stringIcNS2_11char_traitsIcEENS2_9allocatorIcEEEEPNS0_8FileStatEPi
GQb:__ZN9TransformC2E10MemLabelId18ObjectCreationMode
j8:__ZN13GfxDeviceGLES14SetRasterStateEPK17DeviceRasterState
jbc:_Assembly_ToString_m2053237013
nmc:_ParameterModifier_t1461694466_marshal_pinvoke_back
aO:__ZN14SafeBinaryRead11EndTransferEv
J8a:__ZN14SafeBinaryRead8TransferI8MonoPPtrEEvRT_PKc17TransferMetaFlags
FZd:_Enum_System_IConvertible_ToUInt16_m4216751959
Jpa:__ZN21UniformBufferTFMethod13MapBoneBufferEj
TDe:_Array_InternalArray__Insert_TisInt32_t2950945753_m4073217122_gshared
pGd:_RNGCryptoServiceProvider_RngClose_m3915778345
REc:_SortedList_Remove_m2784369438
Rga:__ZN4crnd12crn_unpacker10unpack_dxnEPPhjjj
KL:__ZN14SerializedFileD2Ev
Nbg:__ZN6il2cpp2vm10Reflection17GetAssemblyObjectEPK14Il2CppAssembly
hmb:__ZNSt3__218__stable_sort_moveIRN10vector_mapI17ScriptingClassPtrPKN5Unity4TypeENS_4lessIS2_EENS_9allocatorINS_4pairIS2_S6_EEEEE13value_compareENS_11__wrap_iterIPSB_EEEEvT0_SJ_T_NS_15iterator_traitsISJ_E15difference_typeEPNSM_10value_typeE
t0:__ZN6Shader21AwakeFromLoadThreadedEv
Gja:__ZN6prcoreL17RemapGenericFloatI17TexFormatRGBFloat17TexFormatRGBAHalfEEvPKNS_9InnerInfoE
uue:_UInt16_System_IConvertible_ToSingle_m2654722405_AdjustorThunk
HIg:__ZN6il2cpp2os9SemaphoreC2Eii
L8a:__ZNSt3__26vectorI8MonoPPtr13stl_allocatorIS1_L18MemLabelIdentifier1ELi16EEE8__appendEj
qxb:__ZN14qsort_internal30FindAndMovePivotToLastPositionIP17RODataReplacementi19ROSorterReplacementEEvT_S4_T0_T1_
Upa:__ZN15UniformTFMethod20IsBoneCountSupportedEi
pVe:_ReadOnlyCollection_1_System_Collections_IList_get_Item_m3076053687_gshared
Swe:_UnauthorizedAccessException__ctor_m246605039
$Pb:__Z12BuildTextureIA4_tPFvP9Texture2DPS0_iiiiEES2_PKcii13TextureFormatRKT0_17TextureColorSpaceb
EPg:dynCall_viidi
qK:__ZN24ScriptingMethodFiltering17FilterOnSignatureENS_18MethodSearchFilterE
SIb:__ZN18ScreenManagerWebGL13SetLockCursorE14CursorLockMode
X0c:_CipherSuite_DecryptRecord_m1495386860
U:Math_max
mSc:_StreamAsyncResult_SetComplete_m1102187093
iJg:__ZN6il2cpp2os9EventImpl5ResetEv
$$c:_Alert__ctor_m3135936936
DMc:_Int64_System_IConvertible_ToInt32_m772105781
FHe:_TlsClientSettings__ctor_m3220697265
Ofg:__ZNK15dense_hashtableINSt3__24pairIK10KeyWrapperINS1_IPK9EventInfoP11Il2CppClassEEEjEES9_17ReflectionMapHashIS8_EN14dense_hash_mapIS9_jSD_NS9_14EqualsComparerINS0_8equal_toIS8_EEEENS0_9allocatorISB_EEE9SelectKeyESI_SK_E23find_position_with_hashERSA_j
GUg:b58
NUg:b59
phe:_Dictionary_2_make_pair_m2250450206_gshared
Bme:_ForwardingDecoder_GetChars_m4228908854
TEd:_InterpreterFactory_get_GroupCount_m2226373271
pUg:b53
cTg:b50
dTg:b51
yUg:b56
zUg:b57
qUg:b54
xUg:b55
Nod:_SimpleCollator_IsSafe_m310268646
pqc:_X509Certificate_get_RawData_m2387471414
oTg:_glDetachShader__wrapper
Yuc:_ArrayTypeMismatchException__ctor_m3375008173
_Rb:__ZN10GameObject12CleanupClassEv
Z8:__ZN9GfxDevice25SetShaderPropertiesSharedERK19ShaderPropertySheet
iCc:_CaseInsensitiveHashCodeProvider_GetHashCode_m2168170016
cPd:_String_CreateString_m3400201881
CRb:__ZL25InitializeDefaultMaterialv
Hhc:_PropertyBuilder_GetCustomAttributes_m3798356764
rmc:_PropertyInfo_get_MemberType_m2794839864
Eva:__ZN17PersistentManager12UnloadStreamERKN4core12basic_stringIcNS0_20StringStorageDefaultIcEEEEb
PBe:_MonoProperty_GetterAdapterFrame_TisRuntimeObject_TisRuntimeObject_m458718082_gshared
pQa:__ZN13ScreenManager17RequestResolutionEiibi
Ujg:_il2cpp_unity_liveness_calculation_from_statics
wR:__ZN8Renderer8TransferI17RemapPPtrTransferEEvRT_
GRg:_glBlitFramebuffer__wrapper
Otd:_PrivateKeyInfo_RemoveLeadingZero_m3921889925
_pe:_Thread_get_CurrentContext_m1695017876
UYf:__ZL24UnresolvedVirtualCall_71P12Il2CppObjectS0_S0_iS0_S0_S0_PK10MethodInfo
QGb:__Z24LookRotationToQuaternionRK8Vector3fS1_P11Quaternionf
OGb:__ZN16ReflectionProbes9GetCameraEv
l6:__ZL18IsGpuProgramUsable20ShaderGpuProgramTypePK6Shader
Dkc:_MonoField_SetValue_m2338106905
Dvg:__ZN6il2cpp2vm11MethodStack23CleanupForCurrentThreadEv
KIc:_Convert_ToUInt64_m388601487
NEa:__ZN20TierGraphicsSettings8TransferI24GenerateTypeTreeTransferEEvRT_
U3f:__ZN15dense_hashtableINSt3__24pairIK10KeyWrapperIN6il2cpp5utils13dynamic_arrayIPK10Il2CppTypeLj4EEEEPFvvEEESA_NS3_8metadata19Il2CppSignatureHashEN14dense_hash_mapISA_SD_SG_NSA_14EqualsComparerINSF_22Il2CppSignatureCompareEEENS0_9allocatorISE_EEE9SelectKeyESK_SM_E16reset_thresholdsEv
yab:__ZN14SafeBinaryRead21TransferSTLStyleArrayI13dynamic_arrayI4AABBLj4EEEEvRT_17TransferMetaFlags
YHb:__ZN26CustomRenderTextureManager25UpdateCustomRenderTextureEP19CustomRenderTexturei
i$:__ZNSt3__26__treeINS_12__value_typeIiN11TypeManager18TypeCallbackStructEEENS_19__map_value_compareIiS4_NS_4lessIiEELb1EEENS_9allocatorIS4_EEE7destroyEPNS_11__tree_nodeIS4_PvEE
cob:__ZN13MonoBehaviour18TransferEngineDataI24GenerateTypeTreeTransferEE4PPtrI10MonoScriptERT_
x3b:__ZN11UnityEngine7Connect17XRDeviceInfoEventD0Ev
mFf:__ZL60SoapTypeAttribute_t1750930817_CustomAttributesCacheGeneratorP21CustomAttributesCache
Ybc:_Binder_ConvertArgs_m2124461494
lF:__ZN21UnityDefaultAllocatorI17LowLevelAllocatorE10DeallocateEPv
fq:__ZN15PackedIntVector8TransferI14SafeBinaryReadEEvRT_
saf:_Vector3__ctor_m3353183577_AdjustorThunk
W5d:_InternalEnumerator_1_System_Collections_IEnumerator_get_Current_m1514266661_gshared
P_c:_MD5SHA1_Initialize_m675470944
GCe:_Array_InternalArray__ICollection_Add_TisKeyframe_t4206410242_m442111799_gshared
Xs:__ZN13AudioListener8DoUpdateEv
GWb:__ZN5Unity9rapidjson13GenericReaderINS0_4UTF8IcEES3_13JSONAllocatorE9ParseTrueILj1ENS0_25GenericInsituStringStreamIS3_EENS0_15GenericDocumentIS3_S4_S4_EEEEvRT0_RT1_
YFc:__Z13bankers_roundd
tZa:__ZN14SafeBinaryRead8TransferI5RectTIfEEEvRT_PKc17TransferMetaFlags
Kh:_emscripten_glGenFramebuffers
c$:__ZN17BaseObjectManager16StaticInitializeEPv
TPe:_List_1_CheckCollection_m2602703205_gshared
_Yb:__Z18Transfer_BlittableI9JSONWriteLb0EyEvRK29SerializationCommandArgumentsR31RuntimeSerializationCommandInfo
VIa:__ZN13RenderTexture15ThreadedCleanupEv
oAd:_X509BasicConstraintsExtension__ctor_m3721156175
$La:__ZN12CubemapArray23VirtualRedirectTransferER14SafeBinaryRead
POc:_Path_GetFileName_m1354558116
$rd:_BitConverterLE_ToDouble_m1601000678
nSg:_emscripten_glUniform3i__wrapper
V8e:_Rect_Contains_m1232228501_AdjustorThunk
MMc:_Int64_System_IConvertible_ToType_m3223988955_AdjustorThunk
srg:__ZN15dense_hashtableINSt3__24pairIK10KeyWrapperINS1_IPKcS4_EEEiEES6_24NamespaceAndNamePairHashN14dense_hash_mapIS6_iS9_NS6_14EqualsComparerI26NamespaceAndNamePairEqualsEENS0_9allocatorIS8_EEE9SelectKeyESD_SF_E6insertERKS8_
tR:__ZN24GenerateTypeTreeTransfer18BeginArrayTransferEPKcS1_Ri17TransferMetaFlags
XGe:_Array_InternalArray__get_Item_TisPlayableBinding_t354260709_m3837494573_gshared
Hl:___syscall51
hZe:_MatchCollection_get_FullList_m1829231879
Ll:___syscall54
Mtc:_Array_GetValue_m2528415604
r2d:_Guid_AppendShort_m791023083
u7:__ZN9ShaderLab9SubShader19CreateFromSubShaderERKS0_
Bsg:__ZN6il2cpp2vm5Image21GetCachedResourceDataEPK11Il2CppImageRKNSt3__212basic_stringIcNS5_11char_traitsIcEENS5_9allocatorIcEEEE
s7a:__Z18Transfer_BlittableI14SafeBinaryReadLb0E10ColorRGBAfEvRK29SerializationCommandArgumentsR31RuntimeSerializationCommandInfo
sa:invoke_iiiiiiiiii
kz:__ZN11AudioSource25GetNumExtensionPropertiesEv
dzc:_Char_ToLowerInvariant_m1926695830
L$a:__ZN18LoadSceneOperation19IntegrateTimeSlicedEi
Cr:__ZN4FMOD7SystemI11createSoundEPKcjP22FMOD_CREATESOUNDEXINFOPPNS_5SoundE
_Kb:__ZN10FileSystem19SetCurrentDirectoryERKN4core12basic_stringIcNS0_20StringStorageDefaultIcEEEE
p4e:_Component_get_gameObject_m442555142
tL:__ZN16ScriptingManager24NotifyScriptCacheReleaseEi
KUb:__Z47Register_UnityEngine_Coroutine_ReleaseCoroutinev
It:__ZN15AudioReverbZone13SetFMODValuesEv
cJ:__ZN14SafeBinaryRead4InitERK16TypeTreeIteratorxx24TransferInstructionFlags10MemLabelId
n0:__ZL19StaticDestroyShaderPv
td:_glRenderbufferStorageMultisample
ndg:__ZNK15dense_hashtableINSt3__24pairIK10KeyWrapperIPK10Il2CppTypeEjEES6_N6il2cpp8metadata14Il2CppTypeHashEN14dense_hash_mapIS6_jSB_NS6_14EqualsComparerINSA_26Il2CppTypeEqualityComparerEEENS0_9allocatorIS8_EEE9SelectKeyESF_SH_E10test_emptyEj
v_b:__ZN9JSONWrite8TransferI13dynamic_arrayIN4math12int3_storageELj4EEEEvRT_PKc17TransferMetaFlags
Gzb:__ZN22MotionVectorRenderLoopD2Ev
ZG:__ZN12BaseRenderer23RendererCullingCallbackEv
TBe:_Array_InternalArray__ICollection_Add_TisClientCertificateType_t1004704908_m2622721177_gshared
nq:__ZN17PackedFloatVector8TransferI18StreamedBinaryReadILb0EEEEvRT_
aNa:__ZN7Cubemap23VirtualRedirectTransferER17RemapPPtrTransfer
w2e:_Uri_get_Authority_m3816772302
eud:_RSAManaged_ToXmlString_m645792083
Clc:_ParameterInfo__ctor_m3269320476
nDd:_X509SubjectKeyIdentifierExtension_FromHexChars_m3244835916
GMd:_Single_CompareTo_m2785801815
xJe:_PKCS12_MAC_m3355614022
OXe:_UnityAction_1_Invoke_m272661351_gshared
Jn:stackAlloc
WUb:__Z44Camera_CUSTOM_INTERNAL_CALL_ScreenPointToRayP12Il2CppObjectRK8Vector3fR3Ray
Bya:__ZN25SingleBlockMemoryFileData4LockEPPv
HVg:_glProgramParameteri__wrapper
ZI:__ZN17PersistentManager23PostReadActivationQueueEiPK8TypeTreeb
S4e:_Debug_LogError_m2850623458
fWg:_emscripten_glGetObjectParameterivARB__wrapper
iLg:_stat
OP:__ZN9ShaderLab10SubProgram7CompileEv
Ahc:_PropertyBuilder_get_CanRead_m3783190070
YBe:_Array_InternalArray__ICollection_Add_TisKeyValuePair_2_t3699644050_m4052349323_gshared
i1c:_CipherSuiteCollection_System_Collections_IList_get_Item_m2175128671
xBa:__ZN6CameraD2Ev
ia:invoke_iiiiiiiiiiii
aSd:_DateTime_System_IConvertible_ToType_m1242864300_AdjustorThunk
Ybe:_InternalEnumerator_1_get_Current_m2446410893_AdjustorThunk
pFa:__Z29CalculateDefaultChannelsToAdd17ShaderChannelMaskS_
aBa:__ZN10TagManager13RegisterLayerEjRKN4core12basic_stringIcNS0_20StringStorageDefaultIcEEEE
Gra:__ZNSt3__26__treeI20DeviceBlendStateGLES14MemoryCompLessI16DeviceBlendStateENS_9allocatorIS1_EEE7destroyEPNS_11__tree_nodeIS1_PvEE
Ew:__ZN10AudioMixer12RebindOutputEv
nlg:__ZNK15dense_hashtableINSt3__24pairIK10KeyWrapperIP11Il2CppClassES4_EES5_N6il2cpp8metadata16SZArrayClassHashEN14dense_hash_mapIS5_S4_SA_NS5_14EqualsComparerINS9_19SZArrayClassCompareEEENS0_9allocatorIS7_EEE9SelectKeyESE_SG_E5beginEv
x$f:__ZN6il2cpp2vm17SetupFieldsLockedEP11Il2CppClassRKNS_2os12FastAutoLockE
_2e:_AnimationCurve__ctor_m1565662948
vqb:__ZNK9GfxDevice20IsViewportFullscreenEv
tma:__ZN18GlslGpuProgramGLES13SwitchProgramEj
nza:__ZN20ArchiveStorageReaderC2E10MemLabelId
Fcf:__Z132RuntimeInvoker_Int32_t2950945753_RuntimeObject_Int32_t2950945753_Int32_t2950945753_RuntimeObject_Int32_t2950945753_Int32_t2950945753PFvvEPK10MethodInfoPvPS4_
L5a:__ZN16MemoryFileSystem4NameEv
qVf:_AesTransform_SubByte_m3350159546
XHe:_TlsException__ctor_m818940807
Dqc:_X509CertificateEnumerator_System_Collections_IEnumerator_get_Current_m418791713
RTb:__Z42ScriptingGetComponentsOfTypeFromGameObjectRK26ScriptingGetComponentsArgs
oSf:__ZL73ArgumentCache_t2187958399_CustomAttributesCacheGenerator_m_ObjectArgumentP21CustomAttributesCache
wWf:_AudioListener_ReadExtensionName_m929423100
mLa:__ZNSt3__27__sort4IRPFbRKNS_4pairIN9ShaderLab16FastPropertyNameEN18UnityPropertySheet11UnityTexEnvEEES8_EPS6_EEjT0_SD_SD_SD_T_
gjb:__Z29Transfer_Blittable_ArrayFieldI18StreamedBinaryReadILb1EExEvRT_R9ArrayInfoRK23StaticTransferFieldInfo
Ad:_emscripten_glBufferSubData
zOd:_String_ReplaceUnchecked_m1381393810
Bo:__Z17CalculateGlobalRS23TransformAccessReadOnly
UFg:__ZNSt3__210__list_impIPN6il2cpp5utils10MemoryPool6RegionENS_9allocatorIS5_EEE5clearEv
Aag:__ZN6il2cpp2vm14TypeNameParser17ParseAssemblyNameEv
HTa:__ZNK9GfxDevice26GetSinglePassStereoEyeMaskEv
W4e:_DebugLogHandler_Internal_Log_m4175774469
cAg:__ZN4utf88internal15increase_safelyIPKcEENS0_9utf_errorERT_S5_
nzc:_CharEnumerator_get_Current_m525608209
_bc:__Z21ArrayElementTypeCheckP11Il2CppArrayPv
MUg:_emscripten_glTexSubImage2D__wrapper
SXd:_StackTrace_init_frames_m641783388
bAd:_PublicKey_DecodeRSA_m1824703659
$Mg:__ZNSt3__212basic_stringIcNS_11char_traitsIcEENS_9allocatorIcEEE6appendEjc
Zlb:__Z13TransferFieldI18StreamedBinaryReadILb0EELb0E16Converter_StringEvRK23StaticTransferFieldInfoR31RuntimeSerializationCommandInfoRT1_
iAc:_ArrayListWrapper_set_Item_m3849584877
he:_TTF_RenderText_Solid
GOe:_List_1__ctor_m3947764094_gshared
n1e:_Parser_IsIgnorePatternWhitespace_m2107132682
oxd:_HttpRequestCreator_Create_m400548686
u7b:__ZN11UnityEngine7Connect16PersistentValuesC2Ev
EYb:__Z18Transfer_BlittableI9JSONWriteLb0E5RectTIiEEvRK29SerializationCommandArgumentsR31RuntimeSerializationCommandInfo
Xpd:_BigInteger_get_Rng_m4216817480
ire:_WaitHandle_WaitOne_internal_m3849881646
Lma:__Z15IsIEEE754Format14GraphicsFormat
ocb:__Z19TransferField_ArrayI17RemapPPtrTransfer27Converter_UnityEngineObjectEvRK23StaticTransferFieldInfoR31RuntimeSerializationCommandInfoRT0_
Na:invoke_iifiii
UCc:_KeyNotFoundException__ctor_m541499307
$cf:__Z61RuntimeInvoker_Single_t1397266774_RuntimeObject_RuntimeObjectPFvvEPK10MethodInfoPvPS4_
UGa:__ZN14RenderSettings8TransferI18StreamedBinaryReadILb0EEEEvRT_
_8d:_InternalEnumerator_1_get_Current_m2316281569_AdjustorThunk
dRd:_DateTime__ctor_m1095105629
saa:__ZN13GfxDeviceGLES15UploadTexture2DE9TextureID16TextureDimensionPKhiii14GraphicsFormati18TextureUploadFlags16TextureUsageMode
Av:__ZN4FMOD6System9createDSPEP20FMOD_DSP_DESCRIPTIONPPNS_3DSPE
vJf:__ZL87Thread_t2300836069_CustomAttributesCacheGenerator_Thread_GetCompressedStack_m2923422412P21CustomAttributesCache
o6c:_SslClientStream_get_ClientCertificates_m998716871
Ar:__ZN4FMOD8ChannelI11EndCallbackEv
JPa:__ZN15QualitySettings23VirtualRedirectTransferER24GenerateTypeTreeTransfer
fmd:_ObjectReader_ReadValue_m3145979203
h2f:__ZN30dense_hashtable_const_iteratorINSt3__24pairIK10KeyWrapperIPK19Il2CppGenericMethodEPK26Il2CppGenericMethodIndicesEES6_N6il2cpp8metadata23Il2CppGenericMethodHashEN14dense_hash_mapIS6_SA_SE_NS6_14EqualsComparerINSD_26Il2CppGenericMethodCompareEEENS0_9allocatorISB_EEE9SelectKeyESI_SK_EppEv
nqg:__ZN6il2cpp6icalls8mscorlib6System10Reflection10MonoMethod29get_IsGenericMethodDefinitionEP22Il2CppReflectionMethod
Jmg:__ZN6il2cpp2vm6Thread21AllocThreadStaticDataEi
ccc:_Default_SelectMethod_m469311730
M6e:_Input_get_mousePosition_m1616496925
_yg:__ZN30dense_hashtable_const_iteratorINSt3__24pairIK10KeyWrapperIPK19Il2CppGenericMethodEP10MethodInfoEES6_N6il2cpp8metadata23Il2CppGenericMethodHashEN14dense_hash_mapIS6_S9_SD_NS6_14EqualsComparerINSC_26Il2CppGenericMethodCompareEEENS0_9allocatorISA_EEE9SelectKeyESH_SJ_EppEv
Pve:_UInt32_ToString_m2066897296_AdjustorThunk
My:__Z13RegisterClassI13AudioListenerEvv
z2a:__ZN24GenerateTypeTreeTransfer19TransferSTLStyleMapINSt3__23mapI4PPtrI6ShaderEN4core12basic_stringIcNS6_20StringStorageDefaultIcEEEENS1_4lessIS5_EENS1_9allocatorINS1_4pairIKS5_SA_EEEEEEEEvRT_17TransferMetaFlags
bYb:__Z18Transfer_BlittableI9JSONWriteLb0E8Vector3fEvRK29SerializationCommandArgumentsR31RuntimeSerializationCommandInfo
ff:_emscripten_glUniform4i
se:_emscripten_glUniform4f
WPb:__Z13GrayscaleRampP9Texture2DPhiiii
uJb:__ZN13sorted_vectorINSt3__24pairIN4core12basic_stringIcNS2_20StringStorageDefaultIcEEEES6_EEN10vector_mapIS6_S6_27compare_tstring_insensitiveIS6_E13stl_allocatorIS7_L18MemLabelIdentifier38ELi16EEE13value_compareESD_E9erase_oneIS6_EEjRKT_
GJd:_X509Certificate_Equals_m3784196370
uHd:_SHA1Internal_ProcessFinalBlock_m1403775421
$jd:_RemotingServices_GetOrCreateClientIdentity_m648299611
cud:_RSAManaged_ImportParameters_m1844641996
qXf:__ZL17log2withScale_128yyi
h2d:_Guid_Equals_m1866984197
Xpb:__Z11StringToKeyRKN4core12basic_stringIcNS_20StringStorageDefaultIcEEEE
Hac:_PlatformNotSupportedException__ctor_m1787918017
aZ:__ZN13RuntimeStaticI15DirectorManagerLb0EE16StaticInitializeEPv
fYa:__ZN11TimeManager6UpdateEv
drd:_BigInteger_op_Multiply_m3854773313
VRd:_DateTimeFormatInfo_ReadOnly_m890935083
aBg:__ZN6il2cpp2vm3CCW9CreateCCWEP12Il2CppObject
pLg:_fflush
cP:__ZN17LightProbeContext4InitERK16LightmapSettingsRK14RenderSettings
NCb:__ZN18DeferredRenderLoop14RenderLightingER21ActiveLightingContextP13RenderTexture9TextureIDPS3_iRK8Vector4fRK14LightingLayersR10MinMaxAABBb12ObjectHandleI17RenderSurface_TagP17RenderSurfaceBaseE
r9e:_SceneManager_Internal_ActiveSceneChanged_m3676176255
BJg:__GLOBAL__sub_I_Error_cpp
qYd:_Double_System_IConvertible_ToInt16_m3591921965
SSa:__ZN9Texture3DD2Ev
oGc:_Convert_ToChar_m2796006345
CAc:_ArrayListWrapper_GetEnumerator_m2336495952
dFb:__Z34ProcessIndexListIsNodeVisibleStep2RK22SceneCullingParametersPK9SceneNodePK4AABBR9IndexList
mob:__ZN10MonoScriptD2Ev
Hqa:__ZN19ConstantBuffersGLES8UpdateCBE5CbKeyPKvj
aWf:_AudioSource_get_spatializeInternal_m2117549793
HVb:__Z39Input_CUSTOM_INTERNAL_get_mousePositionP8Vector3f
Itc:_SimpleEnumerator__ctor_m353509656
r7:__ZN9ShaderLab4Pass16SetupPassOptionsEv
wg:_JS_Sound_ReleaseInstance
p9:__ZN13GfxDeviceGLES19DrawBuffersIndirectEP9GfxBufferPK18VertexStreamSourceiP17VertexDeclaration17ShaderChannelMask16GfxPrimitiveType15ComputeBufferIDj
V1d:_Guid_CheckArray_m921056615
Hdd:_ConfigHandler_ReadLifetine_m208994800
Rjf:__Z96RuntimeInvoker_IntPtr_t_SByte_t1669577662_SByte_t1669577662_RuntimeObject_BooleanU26_t4125257963PFvvEPK10MethodInfoPvPS4_
cue:_UInt16_System_IConvertible_ToByte_m3185614807_AdjustorThunk
Vl:FUNCTION_TABLE_diddi
Wmg:__ZN6il2cpp6icalls8mscorlib6System5Array8FastCopyEP11Il2CppArrayiS5_ii
lre:_WaitHandle_WaitOne_m2577152516
vab:__ZN9BoundsInt8TransferI14SafeBinaryReadEEvRT_
aTg:_emscripten_glUniform1f__wrapper
SOg:dynCall_di
r5e:_BaseInvokableCall_AllowInvoke_m878393606
KXb:__Z28RegisterModule_JSONSerializev
T2a:__ZN2UI13RectTransform8TransferI14SafeBinaryReadEEvRT_
WYb:__Z35Transfer_Blittable_FixedBufferFieldI9JSONWriteaEvRK29SerializationCommandArgumentsR31RuntimeSerializationCommandInfo
R3e:_Behaviour_get_enabled_m753527255
aTb:__Z20IsHumanControllingUsv
aG:__ZNK20DynamicHeapAllocatorI17LowLevelAllocatorE10GetPtrSizeEPKv
qAf:__ZL51TextInfo_t3810425522_CustomAttributesCacheGeneratorP21CustomAttributesCache
Tva:__ZN10systeminfo21GetPersistentDataPathEv
eFe:_Array_InternalArray__set_Item_TisUInt32_t2560061978_m2989465121_gshared
R6a:__Z44InitializeTransferFunctionScriptingTraitsForI18StreamedBinaryReadILb0EEEvR31TransferFunctionScriptingTraits
hBb:__ZNSt3__218__insertion_sort_3IR23CompareReflectionProbesP31RuntimeReflectionProbeBlendInfoEEvT0_S5_T_
ycb:__ZN12NativeBufferI27Converter_SimpleNativeClassI8GradientEE15SetupForWritingER9ArrayInfo
Dqd:_Kernel_RightShift_m2207393597
ET:__ZN12_GLOBAL__N_113StaticDestroyEPv
BXg:_glUnmapBuffer__wrapper
C0b:__ZN8JSONRead21TransferSTLStyleArrayINSt3__26vectorI8Gradient13stl_allocatorIS3_L18MemLabelIdentifier1ELi16EEEEEEvRT_17TransferMetaFlags
CYa:__ZNSt3__218__insertion_sort_3IRNS_6__lessINS_4pairIPKN5Unity4TypeE7Hash128EES8_EEPS8_EEvT0_SC_T_
geb:__ZN10RectOffset8TransferI24GenerateTypeTreeTransferEEvRT_
$Nc:_BinaryReader__ctor_m2266204403
W0c:__ZN21InterfaceFuncInvoker5IiP22ByteU5BU5D_t4116647657iiS1_iE6InvokeEjP11Il2CppClassP12Il2CppObjectS1_iiS1_i
sdb:__Z18Transfer_BlittableI24GenerateTypeTreeTransferLb1E5RectTIiEEvRK29SerializationCommandArgumentsR31RuntimeSerializationCommandInfo
OBa:__ZNSt3__24listI4PPtrI6CameraENS_9allocatorIS3_EEE6removeERKS3_
_Jg:_isspace
Dkd:_BinaryFormatter__ctor_m2620705134
k4b:__ZN11UnityEngine15PlatformWrapper25GetGraphicsRendererStringEv
loe:_UTF7Encoding_InternalGetBytes_m797138468
JE:__ZN11UnityEngine15CloudWebService17WebFileDownloaderINS0_20WebRequestRestClientENS0_23WebRequestRestHeaderMapEED2Ev
rb:invoke_vi
frc:_SmallXmlParser_HandleWhitespaces_m549588711
j_b:__ZN9JSONWrite8TransferI13dynamic_arrayI9BoundsIntLj4EEEEvRT_PKc17TransferMetaFlags
pb:invoke_vd
qb:invoke_vf
dZe:_Regex_get_RightToLeft_m2317867572
NO:__ZNK10GameObject8IsActiveEv
ima:__ZN18GfxFramebufferGLES23SetupDefaultFramebufferEPP17RenderSurfaceBaseS2_N2gl6HandleILNS3_10ObjectTypeE9EEE
NQa:__ZN13ScreenManager18RequestOrientationE17ScreenOrientation
W$f:__ZN6il2cpp2vm5Class12SetupMethodsEP11Il2CppClass
ATb:__Z39DeleteLastPathNameComponentWithAnySlashRKN4core12basic_stringIcNS_20StringStorageDefaultIcEEEE
Eue:_UInt16_Equals_m642257745
mtc:_Array_System_Collections_IList_IndexOf_m3301661616
sbc:_AssemblyFileVersionAttribute__ctor_m3720707642
Knc:_RuntimeResourceSet_CloneDisposableObjectIfPossible_m2725520898
Ca:invoke_iiifii
zpc:_DeriveBytes__cctor_m1212925033
K8f:__ZN6il2cpp6icalls8mscorlib6System8MonoType13IsPointerImplEP20Il2CppReflectionType
hi:_emscripten_glFramebufferRenderbuffer
SDb:__ZN19CullingGroupManager17CullAndSendEventsERK22SceneCullingParametersiRK13CullingOutputRK8JobFence
udd:_ClientIdentity_set_ClientProxy_m3470388302
zAa:__ZN9Transform30EnsureTransformHierarchyExistsEv
Fse:_Type_FilterName_impl_m2651733559
auc:_Array_GetValue_m116098292
iJb:__ZNSt3__26vectorINS_4pairIN4core12basic_stringIcNS2_20StringStorageDefaultIcEEEEPK17MessageIdentifierEENS_9allocatorISA_EEE12__move_rangeEPSA_SE_SE_
rxb:__ZN14qsort_internal17MedianOfThreeSwapIP17RODataReplacement19ROSorterReplacementEEvT_S4_S4_T0_
ENd:_String_Split_m3646115398
M_f:__ZNK15dense_hashtableINSt3__24pairIK10KeyWrapperIPK22Il2CppGenericParameterEP11Il2CppClassEES6_N6il2cpp5utils11PointerHashIS4_EEN14dense_hash_mapIS6_S9_SE_NS6_14EqualsComparerINS0_8equal_toIS5_EEEENS0_9allocatorISA_EEE9SelectKeyESJ_SL_E3endEv
teb:__Z29Transfer_Blittable_ArrayFieldI24GenerateTypeTreeTransfer11ColorRGBA32EvRT_R9ArrayInfoRK23StaticTransferFieldInfo
Ewa:__ZN17ArchiveFileSystem10ToAbsoluteEPKc
Y4b:__ZN19UnityConnectService15GetPlayerUserIdEv
yBe:_Array_InternalArray__IndexOf_TisSByte_t1669577662_m4156538463_gshared
XSb:__ZL12SetPrefValueRKN4core12basic_stringIcNS_20StringStorageDefaultIcEEEERK9PrefValue
uTa:__ZN19ShaderPropertySheet20ReservePropertyCountEj
Kzg:__ZN6il2cpp5utils11StringUtils6PrintfEPKcz
Dlg:__ZNSt3__26vectorIN6il2cpp8metadata18GenericArrayMethodENS_9allocatorIS3_EEE7reserveEj
X5:__ZN15NameToObjectMapI6ShaderNSt3__23mapI4PPtrIS0_EN4core12basic_stringIcNS5_20StringStorageDefaultIcEEEENS1_4lessIS4_EENS1_9allocatorINS1_4pairIKS4_S9_EEEEEENS1_8multimapIS9_S4_NSA_IS9_EENSC_INSD_IKS9_S4_EEEEEEE4FindERSK_
zMa:__ZN24GenerateTypeTreeTransfer21TransferResourceImageE19ActiveResourceImagePKcR13StreamingInfoPvjiPKN5Unity4TypeE
dvg:__ZN6il2cpp2vm6Object5CloneEP12Il2CppObject
tHg:__ZN6il2cpp6icalls8mscorlib6System9Threading5Mutex20CreateMutex_internalEbP12Il2CppStringPb
w4e:_Coroutine_Finalize_m1957108547
AGa:__ZNSt3__212__deque_baseI18ReflectionProbeJobNS_9allocatorIS1_EEED2Ev
G1:__ZN15dense_hashtableINSt3__24pairIKiN4core17string_with_labelILi1EEEEEi18SInt32HashFunctionN14dense_hash_mapIiS5_S7_NS0_8equal_toIiEE13stl_allocatorIS6_L18MemLabelIdentifier1ELi16EEE9SelectKeyESA_SD_E13set_empty_keyERKS6_
jle:_GenericEqualityComparer_1_Equals_m1705889345_gshared
A0b:__Z13TransferFieldI8JSONReadLb0E27Converter_SimpleNativeClassI10RectOffsetEEvRK23StaticTransferFieldInfoR31RuntimeSerializationCommandInfoRT1_
kxd:_FtpWebRequest__cctor_m699542155
Dsg:__GLOBAL__sub_I_GenericMetadata_cpp
owd:_NameObjectCollectionBase_GetEnumerator_m3677320185
GEb:__Z24CalculateSpotLightBoundsffRK10Matrix4x4fR15SpotLightBounds
Nge:_Dictionary_2_TryGetValue_m3495031886_gshared
cIa:__ZNK13RenderTexture21GetShadowSamplingModeEv
SA:__ZN23CloudWebServicesManager23VirtualRedirectTransferER14SafeBinaryRead
tvd:_PKCS12_AddCertificate_m3857004455
Zkd:_WellKnownClientTypeEntry_ToString_m1119458503
Unb:__Z19ShouldTransferFieldR32SerializationCommandQueueBuilder17ScriptingClassPtriR18TransferField_InfoRK20CoreScriptingClasses
XKd:_SecurityElement_IsValidText_m1346599242
fra:__ZN26SinglePassStereoSupportExt21SetStereoMatrixCommonE21MonoOrStereoscopicEye24BuiltinShaderMatrixParamRK10Matrix4x4f
b_c:_ARC4Managed_TransformBlock_m1687647868
E2b:__ZL21InitializeCachedStripPv
bhe:_Dictionary_2_System_Collections_Generic_ICollectionU3CSystem_Collections_Generic_KeyValuePairU3CTKeyU2CTValueU3EU3E_Add_m3652125112_gshared
Rng:__ZN6il2cpp6icalls8mscorlib6System9Threading6Thread23GetCachedCurrentCultureEP12Il2CppThread
EH:__ZNK6Camera22GetWorldToCameraMatrixEv
tvg:__ZN6il2cpp2vm12GenericClass11IsValueTypeEP18Il2CppGenericClass
Pmb:__ZN13MonoBehaviour7SetNameEPKc
eid:_MethodDictionary_IsOverridenKey_m946843558
oQc:_FileStream_BeginRead_m2419864669
D3f:__ZN10KeyWrapperIN6il2cpp5utils13dynamic_arrayIPK10Il2CppTypeLj4EEEEC2ERKS7_
NVe:_ReadOnlyCollection_1_System_Collections_IList_Remove_m4129318771_gshared
qT:__GLOBAL__sub_I_runtime_shaders_shaderimpl_0_cpp
_$a:__ZN18AwakeFromLoadQueue5ClearEv
LQc:_FileStream_SetLength_m99749826
hDb:__ZNSt3__27__sort5IR15ReflProbeSorterPP15ReflectionProbeEEjT0_S6_S6_S6_S6_T_
PZ:__ZN8Playable10DisconnectEPS_i
Nj:_glGenTransformFeedbacks
vva:__ZN13LoadOperationD2Ev
zJc:_Int16_System_IConvertible_ToType_m3672347013
vte:_Type_GetProperty_m4206634422
Orc:_AttrListImpl_GetValue_m3657391095
Fqb:__Z21PlayerStartFirstSceneb
nLa:__ZNSt3__27__sort5IRPFbRKNS_4pairIN9ShaderLab16FastPropertyNameEN18UnityPropertySheet11UnityTexEnvEEES8_EPS6_EEjT0_SD_SD_SD_SD_T_
vea:__ZNK7ApiGLES18GetExtensionStringEv
bTg:_emscripten_glVertexAttrib1f__wrapper
Cje:_DefaultComparer_GetHashCode_m402448534_gshared
U3a:__ZNK12HandlerChain4SizeERK13FileEntryData
In:FUNCTION_TABLE_iiiiiiiii
Wyc:_Char_IsLetter_m3996985877
ZRe:_Queue_1_Peek_m2302800625_gshared
m2e:_Uri__ctor_m253204164
sCg:_GC_allochblk
i0a:__Z15UnloadGameScenev
yDe:_Array_InternalArray__ICollection_CopyTo_TisKeyframe_t4206410242_m2132255743_gshared
wXg:_glCheckFramebufferStatus__wrapper
e$a:__ZNSt3__26vectorIN30RuntimeInitializeOnLoadManager15ClassMethodInfoE13stl_allocatorIS2_L18MemLabelIdentifier13ELi16EEE7reserveEj
$ef:__Z103RuntimeInvoker_Void_t1185182177_Int32_t2950945753_Int32_t2950945753_Int32_t2950945753_SByte_t1669577662PFvvEPK10MethodInfoPvPS4_
idg:__ZNK15dense_hashtableINSt3__24pairIK10KeyWrapperIPK10Il2CppTypeEjEES6_N6il2cpp8metadata14Il2CppTypeHashEN14dense_hash_mapIS6_jSB_NS6_14EqualsComparerINSA_26Il2CppTypeEqualityComparerEEENS0_9allocatorIS8_EEE9SelectKeyESF_SH_E13find_positionERS7_
UHa:__ZN7Texture5ResetEv
Ucb:__Z18Transfer_BlittableI24GenerateTypeTreeTransferLb0E8Vector2fEvRK29SerializationCommandArgumentsR31RuntimeSerializationCommandInfo
$ed:_Context_get_HasDynamicSinks_m3952434387
Dme:_Latin1Encoding_GetByteCount_m1145650505
Jcb:__Z18Transfer_BlittableI24GenerateTypeTreeTransferLb1EhEvRK29SerializationCommandArgumentsR31RuntimeSerializationCommandInfo
Djb:__Z13TransferFieldI18StreamedBinaryReadILb1EELb0E16Converter_StringEvRK23StaticTransferFieldInfoR31RuntimeSerializationCommandInfoRT1_
fPg:dynCall_iiifii
LY:__ZnwjRKSt9nothrow_t
FWe:_Nullable_1_GetHashCode_m4232053575_gshared
Hsc:_ApplicationException__ctor_m2557611022
gKa:__ZN14SafeBinaryRead19TransferSTLStyleMapINSt3__23mapI39DeprecatedFastPropertyNameSerializationN18UnityPropertySheet11UnityTexEnvENS1_4lessIS3_EENS1_9allocatorINS1_4pairIKS3_S5_EEEEEEEEvRT_17TransferMetaFlags
Vwc:_Buffer_ByteLengthInternal_m1388208719
aDe:_Array_InternalArray__ICollection_CopyTo_TisInt64_t3736567304_m2845057751_gshared
tUb:__Z35UnregisterSerializationCacheBuilderPFv17ScriptingClassPtrR23CachedSerializationDataRbE
QMc:_Int64_System_IConvertible_ToUInt32_m109903525_AdjustorThunk
vP:__Z30GetBuiltinVectorParamArraySize24BuiltinShaderVectorParam
jV:__ZNSt3__25stackIPN9ShaderLab21SerializedShaderStateENS_5dequeIS3_NS_9allocatorIS3_EEEEED2Ev
NHa:__ZN13RenderTextureC2E10MemLabelId18ObjectCreationMode
PJc:_Int32_GetFormatException_m519586683
EIf:__ZL46StringBuilder_t_CustomAttributesCacheGeneratorP21CustomAttributesCache
_Me:_Enumerator_MoveNext_m1131351993_gshared
Kac:_RankException__ctor_m2226473861
VR:__ZN21RendererUpdateManager11AddRendererER8Renderer
HNb:__Z13RegisterClassI15ResourceManagerEvv
A7a:__Z35Transfer_Blittable_FixedBufferFieldI14SafeBinaryReadsEvRK29SerializationCommandArgumentsR31RuntimeSerializationCommandInfo
wUa:__ZN14SafeBinaryRead21TransferSTLStyleArrayI13dynamic_arrayIfLj4EEEEvRT_17TransferMetaFlags
sGc:_Convert_ToDateTime_m3802186295
Lzg:__ZN6il2cpp5utils11StringUtils11Utf16ToUtf8EPKDs
J_a:__ZN18StreamedBinaryReadILb0EE21TransferSTLStyleArrayINSt3__26vectorIN15ResourceManager10DependencyE13stl_allocatorIS5_L18MemLabelIdentifier52ELi16EEEEEEvRT_17TransferMetaFlags
xwe:_UInt64_CompareTo_m1614517204_AdjustorThunk
B4b:__ZN11UnityEngine15PlatformWrapper20IsRootedOrJailbrokenEv
oub:__ZZ23InitPlayerLoopCallbacksvEN52PreLateUpdateScriptRunBehaviourLateUpdateRegistrator7ForwardEv
BEb:__Z33IntersectAABBPlaneBoundsOptimizedRK4AABBPKN4math7_float4Ei
t9:__ZN9GfxDevice19EndGeometryJobFrameEv
Dcb:__ZN27Converter_SimpleNativeClassI17AnimationCurveTplIfEE17ScriptingToNativeER18ScriptingObjectPtrPS1_
Ese:_Type__cctor_m2371893800
eIg:__ZN6il2cpp8metadata24Il2CppGenericInstCompare7CompareERK10KeyWrapperIPK17Il2CppGenericInstES8_
e2f:__ZNK15dense_hashtableINSt3__24pairIK10KeyWrapperIPK19Il2CppGenericMethodEPK26Il2CppGenericMethodIndicesEES6_N6il2cpp8metadata23Il2CppGenericMethodHashEN14dense_hash_mapIS6_SA_SE_NS6_14EqualsComparerINSD_26Il2CppGenericMethodCompareEEENS0_9allocatorISB_EEE9SelectKeyESI_SK_E5beginEv
Y7e:_PlayableAsset_Internal_CreatePlayable_m2550417712
stb:__Z31ManagerContextInitializeClassesv
uyb:__Z20LightAttenuateApproxRKfS0_
JS:__ZN9Scripting30SetCachedPtrOnScriptingWrapperE18ScriptingObjectPtrP6Object
GEd:_RepeatContext_get_IsMinimum_m3640286252
Rmd:_ObjectRecord_ChainFixup_m1889316362
dEa:__ZN18BlockRangeInternal16PopLastNodeIndexEP10BlockRangeji
STa:__ZN4MeshD0Ev
O9b:__ZL42RequestRecreateEyeTexturesBeforeNextUpdatev
$na:__ZNK6Camera20IsCurrentlyRenderingEv
bZb:__Z18Transfer_BlittableI9JSONWriteLb0EdEvRK29SerializationCommandArgumentsR31RuntimeSerializationCommandInfo
mNd:_String_System_IConvertible_ToDouble_m3740733360
YBa:__ZN6Camera8TransferI19StreamedBinaryWriteILb0EEEEvRT_
KUd:_DBNull_System_IConvertible_ToSByte_m3533624679
tKg:_wctomb
Nyc:_Char_CompareTo_m42489266
bsf:__Z67RuntimeInvoker_Void_t1185182177_Int32_t2950945753_Double_t594665363PFvvEPK10MethodInfoPvPS4_
YUb:__Z27Camera_CUSTOM_GetAllCamerasP11Il2CppArray
nc:___cxa_rethrow
gmc:_ParameterInfo_GetCustomAttributes_m2376494592
G_b:__Z18Transfer_BlittableI8JSONReadLb1EhEvRK29SerializationCommandArgumentsR31RuntimeSerializationCommandInfo
tCc:__ZN18VirtActionInvoker2IiP12Il2CppObjectE6InvokeEjS1_iS1_
hTg:_glBindRenderbuffer__wrapper
z0d:_CultureInfo_construct_internal_locale_from_name_m3254739477
T5c:_RSASslSignatureDeformatter_VerifySignature_m1061897602
Utd:_RSAManaged_remove_KeyGenerated_m2046909903
Tbd:_RandomNumberGenerator_Create_m4162970280
Fye:_Array_InternalArray__ICollection_Contains_TisWorkRequest_t1354518612_m2404463752_gshared
mce:_InternalEnumerator_1_System_Collections_IEnumerator_get_Current_m3539708496_AdjustorThunk
I4a:__ZN20LocalFileSystemPosix4ReadER13FileEntryDatayyPvPy
SBb:__ZNSt3__211__sift_downIRN23ForwardShaderRenderLoop18RenderObjectSorterILb0EEEP21ForwardRenderPassDataEEvT0_S7_T_NS_15iterator_traitsIS7_E15difference_typeES7_
JJd:_SecurityPermission__ctor_m1462427327
dnb:__ZN13MonoBehaviour5DoGUIENS_13GUILayoutTypeEii
vpc:_ChannelData_get_ClientProviders_m594662942
t_e:_QuickSearch_GetChar_m1297698557
lua:__ZNK12TLSAllocatorI14StackAllocatorE8ContainsEPKv
hYa:__ZN11TimeManager8TransferI18StreamedBinaryReadILb0EEEEvRT_
rbf:__Z68RuntimeInvoker_Boolean_t97287965_Int16_t2552820387_SByte_t1669577662PFvvEPK10MethodInfoPvPS4_
hTd:_DateTime__ParseEnum_m253019513
xIc:_Convert_ToUInt32_m2194577773
iS:__ZN15dense_hashtableINSt3__24pairIKyP17VertexDeclarationEEy14GfxGenericHashIyEN14GfxDoubleCacheIyS4_S7_NS0_8equal_toIyEEN31GfxDoubleCacheConcurrencyPolicy11LocklessGetE42GfxDoubleCacheDefaultEmptyDeletedGeneratorIyEE9SelectKeyESA_13stl_allocatorIS5_L18MemLabelIdentifier24ELi16EEE12resize_deltaEjj
vsd:_DSAManaged_GenerateKeyPair_m2236915969
lMa:__ZN7Texture25ReloadFromStorageIfNeededEPvb
WAe:_Array_InternalArray__IndexOf_TisBoolean_t97287965_m1161209222_gshared
mBc:_SynchronizedArrayListWrapper_Clear_m2191301493
dng:__ZN6il2cpp6icalls8mscorlib6SystemL15ThrowNoWideningEv
fMb:__ZNK23TransformChangeDispatch24GetChangeMaskForInterestENS_12InterestTypeE
IOg:dynCall_viiiiiiiiiii
Efc:_GenericTypeParameterBuilder_InvokeMember_m1647304778
CLb:__ZL10KeyHandleriPK23EmscriptenKeyboardEventPv
xKa:__ZNSt3__26__treeINS_12__value_typeI39DeprecatedFastPropertyNameSerializationfEENS_19__map_value_compareIS2_S3_NS_4lessIS2_EELb1EEENS_9allocatorIS3_EEE7destroyEPNS_11__tree_nodeIS3_PvEE
zRe:_Enumerator_System_Collections_IEnumerator_Reset_m1487823313_gshared
Tbb:__ZL26Transfer_SimpleNativeClassI17RemapPPtrTransfer10RectOffsetLb0EEvRK29SerializationCommandArgumentsR31RuntimeSerializationCommandInfo
PRb:__ZN16GraphicsSettings12CleanupClassEv
oMc:_Int32_ToString_m2507389746_AdjustorThunk
TWd:_Decimal_op_Explicit_m438967917
_2:__ZNSt3__26vectorIN9ShaderLab20SerializedSubProgram13BufferBindingENS_9allocatorIS3_EEEC2ERKS6_
rP:__ZNK9ShaderLab20ShaderBlendStateDesc15ToGfxBlendStateEPK19ShaderPropertySheetS3_R13GfxBlendState
z7:__ZN9ShaderLab9IntShaderC2Ev
R8f:__ZN6il2cpp6icalls8mscorlib6SystemL9IsPrivateEPK9EventInfo
OGg:__ZN6il2cpp6icalls8mscorlib6System10Reflection4Emit11TypeBuilder20setup_internal_classEP27Il2CppReflectionTypeBuilderS7_
rBe:_Array_InternalArray__IndexOf_TisILTokenInfo_t2325775114_m2602704009_gshared
qne:_StringBuilder_AppendFormat_m3255666490
Dac:_OverflowException__ctor_m4029085969
ric:_TypeBuilder_GetGenericArguments_m2872156836
w_f:__ZN13Il2CppHashMapIPK22Il2CppGenericParameterP11Il2CppClassN6il2cpp5utils11PointerHashIS1_EENSt3__28equal_toIS2_EENS9_9allocatorINS9_4pairIK10KeyWrapperIS2_ES4_EEEEEC2EjRKS8_RKSB_
htd:_KeyPairPersistence_Remove_m1876145547
Vva:__Z15CreateDirectoryRKN4core12basic_stringIcNS_20StringStorageDefaultIcEEEE
pHa:__Z21CalculateGlobalMatrix23TransformAccessReadOnly
sic:_TypeBuilder_GetGenericTypeDefinition_m1632720438
Yxe:_Array_InternalArray__ICollection_Contains_TisLink_t544317964_m163190451_gshared
_Td:_DateTimeOffset_System_IComparable_CompareTo_m176229495_AdjustorThunk
c7e:_ManagedStreamHelpers_ValidateLoadFromStream_m580138133
mYa:__ZNK13BuildSettings22GetTypeVirtualInternalEv
qOd:_String_LastIndexOf_m578673845
z:tempBigIntI
dFd:_Interval_get_Empty_m3617514670
fbc:_Assembly_GetName_m981771927
rvg:__ZN6il2cpp2vm12GenericClass8GetClassEP18Il2CppGenericClass
U9:__ZNK9GfxDevice27GetActiveRenderSurfaceWidthEv
m4b:__ZN11UnityEngine15PlatformWrapper28GetCleanGraphicsFixedVersionEv
Gpf:__Z80RuntimeInvoker_Void_t1185182177_ScriptableRenderContext_t274343796_RuntimeObjectPFvvEPK10MethodInfoPvPS4_
zUc:_UnmanagedMemoryStream_SetLength_m3752964620
qbg:__ZN6il2cpp2vm4Type7GetTypeEPK10Il2CppType
DMb:__ZN16SpriteRenderData28PrepareRenderingDataIfNeededEv
G8d:_InternalEnumerator_1_get_Current_m165106323_AdjustorThunk
aoe:_UTF32Encoding_GetByteCount_m3610769032
Nja:__ZN6prcoreL17RemapGenericFloatI18TexFormatRGBAFloat17TexFormatRGBAHalfEEvPKNS_9InnerInfoE
Sub:__Z16FindCameraStacksRKNSt3__24listI4PPtrI6CameraENS_9allocatorIS3_EEEERNS_6vectorI11CameraStackNS4_ISA_EEEE
lZe:_MatchCollection_CopyTo_m3807326147
KOa:__ZN10GISettings8TransferI14SafeBinaryReadEEvRT_
Bm:FUNCTION_TABLE_vifff
Ibd:_MD5CryptoServiceProvider__ctor_m3271163125
nIb:__ZN19CustomRenderTexture12ClearGPUDataEv
bIa:__ZN13RenderTexture13ApplySettingsEv
Rld:_ObjectReader_RegisterObject_m1853376334
ehc:_ModuleBuilderTokenGenerator_GetToken_m2588853565
gwc:_Boolean_System_IConvertible_ToDecimal_m3176932461_AdjustorThunk
le:_JS_Sound_SetListenerPosition
um:FUNCTION_TABLE_fiffi
ncc:_Default_check_arguments_with_score_m3467814020
bTc:_StreamWriter_LowLevelWrite_m1081676583
e2a:__ZNK8Material16MarkDependenciesER27GarbageCollectorThreadState
mUd:_DateTimeOffset_ToString_m3985341516_AdjustorThunk
eZb:__ZL17Transfer_GUIStyleI9JSONWriteLb0EEvRK29SerializationCommandArgumentsR31RuntimeSerializationCommandInfo
mzb:__Z28GetHaloVertexPositionsStereoP8Vector3fRKS_S2_f
Cka:__ZN6prcoreL27StretchGenericFloatBilinearI15TexFormatRGHalfEEvPKNS_9InnerInfoE
mT:__GLOBAL__sub_I_runtime_misc_0_cpp
H1d:_SortKey_GetHashCode_m3547067087
ikb:__Z18Transfer_BlittableI18StreamedBinaryReadILb0EELb1E9BoundsIntEvRK29SerializationCommandArgumentsR31RuntimeSerializationCommandInfo
cAd:_PublicKey_DecodeDSA_m3490622362
YHe:_TlsException__ctor_m3242533711
JZc:_BitConverterLE_GetUIntBytes_m795219058
xEc:_SortedList__ctor_m3676552745
__f:__ZN15dense_hashtableINSt3__24pairIK10KeyWrapperIPK22Il2CppGenericParameterEP11Il2CppClassEES6_N6il2cpp5utils11PointerHashIS4_EEN14dense_hash_mapIS6_S9_SE_NS6_14EqualsComparerINS0_8equal_toIS5_EEEENS0_9allocatorISA_EEE9SelectKeyESJ_SL_E3endEv
oz:__ZN11AudioSource24ClearExtensionPropertiesE12PropertyName
e5:__ZN9ShaderLab22SerializedBindChannels8TransferI19StreamedBinaryWriteILb0EEEEvRT_
dab:__ZN15SerializeTraitsI5RectTIiEE8TransferI14SafeBinaryReadEEvRS1_RT_
j1:__ZNSt3__26__treeINS_12__value_typeIN4core12basic_stringIcNS2_20StringStorageDefaultIcEEEES6_EENS_19__map_value_compareIS6_S7_NS_4lessIS6_EELb1EEE13stl_allocatorIS7_L18MemLabelIdentifier1ELi16EEE7destroyEPNS_11__tree_nodeIS7_PvEE
bdc:_AssemblyBuilder_get_Location_m384539722
vqe:_Thread_get_ManagedThreadId_m1068113671
Cfa:__Z13IsDepthFormat14GraphicsFormat
USd:_DateTime_Parse_m3729096069
kWc:_MonoType_GetFields_m4176012508
c2b:__Z12FormatBufferPciPKcz
af:_emscripten_glUniform1fv
l$f:__ZN6il2cpp2vm5Class13GetArrayClassEP11Il2CppClassj
Rqb:__ZN19RuntimeSceneManager18LoadSceneAsyncIntoER10UnitySceneRKN4core12basic_stringIcNS2_20StringStorageDefaultIcEEEENS_11LoadingModeEb
zYb:__Z35Transfer_Blittable_FixedBufferFieldI9JSONWritetEvRK29SerializationCommandArgumentsR31RuntimeSerializationCommandInfo
xa:invoke_difi
HTg:_glDeleteSamplers__wrapper
Fvd:_HybridDictionary_set_Item_m2997363718
am:FUNCTION_TABLE_iiffi
pwe:_UInt64_System_IConvertible_ToUInt32_m2784653358
hfa:__ZN21GLESGpuProgramApplier11ApplyVectorERKN20GpuProgramParameters14ValueParameterEPK8Vector4ft
XDb:__Z17PrepareSceneNodesP11CullResults
ZV:__ZN19RuntimeSceneManager19UnloadSceneInternalEP10UnityScene
b8c:_SByte_System_IConvertible_ToDecimal_m2548745278
wEb:__ZN29ExtractProjectionPlanesHelperILb1EE5ApplyERK10Matrix4x4fP5Plane
bSb:__ZN13ProduceHelperI7CubemapLb0EE7ProduceE10MemLabelId18ObjectCreationMode
FIb:__ZN6Camera34UpdatePreviousViewProjectionMatrixEv
foe:_UTF32Decoder_GetChars_m1925558948
g7e:_Mathf_Abs_m3281243566
CTc:_SynchronizedWriter_WriteLine_m1552352268
oTb:__Z26scripting_class_has_parent17ScriptingClassPtrS_
lX:__ZN13RuntimeStaticI21AssetReferenceStorageLb0EE16StaticInitializeEPv
uLc:_Int32_System_IConvertible_ToByte_m3832391412_AdjustorThunk
Wz:__Z71Register_UnityEngine_AudioSource_INTERNAL_CALL_ClearExtensionPropertiesv
sae:_InternalEnumerator_1_System_Collections_IEnumerator_get_Current_m4088805473_gshared
ifd:_Context_GetServerContextSinkChain_m3154465897
AHc:_Convert_ToInt64_m2075293963
nHg:__GLOBAL__sub_I_Il2CppCodeRegistration_cpp
UEa:__ZN20TierGraphicsSettings8TransferI18StreamedBinaryReadILb0EEEEvRT_
TLc:_Int32_System_IConvertible_ToUInt64_m2502338186_AdjustorThunk
U_:__Z33CleanupCubemapGPUUtilityMaterialsPv
nKa:__ZN14SafeBinaryRead8TransferINSt3__24pairIN9ShaderLab16FastPropertyNameE10ColorRGBAfEEEEvRT_PKc17TransferMetaFlags
gXf:__ZL9rshift128PyS_
lig:__ZN14dense_hash_mapI10KeyWrapperINSt3__24pairIPK12PropertyInfoP11Il2CppClassEEEj17ReflectionMapHashIS8_ENS9_14EqualsComparerINS1_8equal_toIS8_EEEENS1_9allocatorINS2_IKS9_jEEEEE13set_empty_keyERSH_
eg:_glRenderbufferStorage
vrg:__ZNK15dense_hashtableINSt3__24pairIK10KeyWrapperINS1_IPKcS4_EEEiEES6_24NamespaceAndNamePairHashN14dense_hash_mapIS6_iS9_NS6_14EqualsComparerI26NamespaceAndNamePairEqualsEENS0_9allocatorIS8_EEE9SelectKeyESD_SF_E13find_positionERS7_
q4b:__ZN11UnityEngine15PlatformWrapper28GetTextureFormatSupportFlagsEv
xJb:__ZNSt3__26vectorINS_4pairIN4core12basic_stringIcNS2_20StringStorageDefaultIcEEEES6_EE13stl_allocatorIS7_L18MemLabelIdentifier38ELi16EEE26__swap_out_circular_bufferERNS_14__split_bufferIS7_RSA_EEPS7_
O1e:_Uri_EscapeString_m3864445955
hUa:__ZN14SafeBinaryRead21TransferSTLStyleArrayI13dynamic_arrayI12BoneWeights4Lj16EEEEvRT_17TransferMetaFlags
vde:_Enumerator_MoveNext_m465222849_AdjustorThunk
Ptb:__ZZ23InitPlayerLoopCallbacksvEN35PreUpdateSendMouseEventsRegistrator7ForwardEv
boa:__ZNK6Camera25GetNormalizedViewportRectEP13RenderTextureb
rg:_glDisable
kb:invoke_vffff
eAg:__ZN6il2cpp5utils11StringUtils15StringDuplicateEPKDsj
C$e:_Regex_Match_m4145799399
uOd:_String_IsNullOrEmpty_m2969720369
gqd:_BigInteger_LowestSetBit_m3082714978
Nub:__ZNK8Material12GetPassCountEv
NGd:_RSAParameters_t1728406613_marshal_pinvoke
mFd:_Interval_IsDisjoint_m1532171337_AdjustorThunk
kOg:_bitshift64Ashr
Ald:_BinaryFormatter__ctor_m971003555
Q3d:_ArrayReadOnlyList_1_ReadOnlyError_m865416608_gshared
rCc:_CollectionBase_System_Collections_IList_get_Item_m3743372945
aha:__ZN4crnd12crn_unpacker22decode_alpha_endpointsEv
bFb:__Z23CullDynamicObjectsUmbraPK4AABBPKN5Umbra15OcclusionBufferER9IndexList
wJ:__ZN4core8hash_mapIi17ThreadedAwakeDataNS_4hashIiEENSt3__28equal_toIiEEE4growEi
bcf:__Z50RuntimeInvoker_Boolean_t97287965_Int16_t2552820387PFvvEPK10MethodInfoPvPS4_
IGc:_Convert_ToDecimal_m1233667008
tXf:__ZL7log2_32j
vJ:__ZN4core8hash_mapIi17ThreadedAwakeDataNS_4hashIiEENSt3__28equal_toIiEEE4growEv
SS:__GLOBAL__sub_I_runtime_assetbundles_1_cpp
fu:__ZN4FMOD7Channel11setPositionEjj
jh:_glBindSampler
_0c:_ClientContext_get_ClientHelloProtocol_m1654639078
nh:_glGetVertexAttribiv
UZe:_PatternCompiler_EmitSub_m193323684
rMc:_Int64_System_IConvertible_ToByte_m375085029
j0b:__ZN8JSONRead8TransferIbEEvRT_PKc17TransferMetaFlagsb
kse:_TimeSpan_ToString_m1128692466
rVf:_AesManaged_CreateEncryptor_m2294080233
N5:__ZN9ShaderLab9SubShaderD2Ev
aCg:_GC_promote_black_lists
u0d:_CultureInfo_construct_datetime_format_m1928121315
Z0b:__Z29Transfer_Blittable_ArrayFieldI8JSONRead8Vector4fEvRT_R9ArrayInfoRK23StaticTransferFieldInfo
kn:FUNCTION_TABLE_vf
$bc:_Binder_GetDerivedLevel_m3216810447
jn:FUNCTION_TABLE_vd
kU:__ZN13RuntimeStaticI37UnityShaderCompilerExtPluginConfigureLb0EE16StaticInitializeEPv
L5b:__ZN11UnityEngine7Connect17DeviceStatusEvent20SetDeviceAspectRatioEf
rne:_StringBuilder_AppendFormat_m2403596038
uad:_DSASignatureDeformatter_SetHashAlgorithm_m3186995552
_Ue:_ReadOnlyCollection_1_System_Collections_Generic_ICollectionU3CTU3E_Clear_m2772202961_gshared
m_b:__ZN9JSONWrite8TransferI13dynamic_arrayI4AABBLj4EEEEvRT_PKc17TransferMetaFlags
Fnc:_ResourceSet_ReadResources_m3663669011
Upe:_SynchronizationContext_SetSynchronizationContext_m1249070039
ugf:__Z99RuntimeInvoker_Void_t1185182177_RuntimeObject_Int32_t2950945753_SByte_t1669577662_SByte_t1669577662PFvvEPK10MethodInfoPvPS4_
h9f:__ZN6il2cpp2vm7Runtime9SetConfigEPKc
_Wb:__ZN5Unity9rapidjson12PrettyWriterI16TempBufferWriterNS0_4UTF8IcEES4_13JSONAllocatorE10StartArrayEv
oa:invoke_iiifiii
bpg:__ZN6il2cpp2vm9Exception11FromNameMsgEPK11Il2CppImagePKcS6_S6_
m_:__Z14GetTimeManagerv
Z7b:__ZN19TransportJavaScript7CleanupEv
$ya:__Z12GUIDToStringRK9UnityGUIDPc
jX:__ZN15FileSystemEntry4LockE12FileLockModeP12FileAccessor
hWg:_emscripten_glDrawArrays__wrapper
aMc:_Int32_Equals_m2976157357
WHe:_TlsException__ctor_m3717683709
bAg:__ZN4utf88internal20is_overlong_sequenceIiEEbjT_
c3f:__ZN6il2cpp2vm13MetadataCache8RegisterEPK22Il2CppCodeRegistrationPK26Il2CppMetadataRegistrationPK20Il2CppCodeGenOptions
Fc:_glReadBuffer
FAa:__Z9SetLocalR15TransformAccessRKN4math7_float4Ey
_Ab:__Z30SetupBakedOcclusionForGeometrybRK26SharedLightmapSettingsDataRK15LightmapIndicesR17ShaderPassContext
wAb:__Z14SetupLightmapsRK8Vector4fS1_R17ShaderPassContext
Lgg:__ZN14dense_hash_mapI10KeyWrapperIPK14Il2CppAssemblyEPK22Il2CppMonoAssemblyNameN6il2cpp5utils11PointerHashIS2_EENS4_14EqualsComparerINSt3__28equal_toIS3_EEEENSD_9allocatorINSD_4pairIKS4_S7_EEEEE13set_empty_keyERSJ_
kJa:__ZL20InitializeGUIShadersv
e2d:_Guid_CompareTo_m243656946
WF:__ZN20DynamicHeapAllocatorI17LowLevelAllocatorED0Ev
XOb:__ZN11TimeManagerC2E10MemLabelId18ObjectCreationMode
Uxb:__ZN9DepthPassD2Ev
Zs:__ZN11AudioFilter6GetDSPEv
MGd:_RSACryptoServiceProvider_OnKeyGenerated_m863837376
YV:__ZN19RuntimeSceneManager14CanUnloadSceneEP10UnityScene
Wxb:__Z22ExtractRenderNodeQueueRK11CullResults15ExtractionFlagsR15RenderNodeQueue
Ube:_InternalEnumerator_1_System_Collections_IEnumerator_get_Current_m3854084659_AdjustorThunk
mWb:__ZN8JSONRead32GetValueForKeyWithNameConversionEPKN5Unity9rapidjson12GenericValueINS1_4UTF8IcEE13JSONAllocatorEEPKc
T2d:_U3CGetEnumeratorU3Ec__Iterator0_System_Collections_IEnumerator_get_Current_m283764921_gshared
h$d:_CultureInfo_get_IcuName_m2258611679
YXb:__Z18Transfer_BlittableI9JSONWriteLb0EfEvRK29SerializationCommandArgumentsR31RuntimeSerializationCommandInfo
nga:__Z21GetAsyncUploadManagerv
aj:_emscripten_glDetachShader
bga:__ZN17GenericDynamicVBO20ReleaseChunkInternalERK21DynamicVBOChunkHandlejj
POa:__ZN14SafeBinaryRead21TransferSTLStyleArrayI13dynamic_arrayI7Hash128Lj8EEEEvRT_17TransferMetaFlags
QKg:_fmodl
rud:_SymmetricTransform_OFB_m3842617151
ohb:__Z18Transfer_BlittableI18StreamedBinaryReadILb1EELb1E4AABBEvRK29SerializationCommandArgumentsR31RuntimeSerializationCommandInfo
Wqb:__ZN19RuntimeSceneManager11CreateSceneEv
BZe:_PatternCompiler_Emit_m1540115729
ZAb:__Z27SetupBakedOcclusionForLightbRK15SharedLightDataR17ShaderPassContext
FHg:__ZN6il2cpp2os5Mutex6UnlockEv
nle:_EncoderFallbackException__ctor_m1051987327
u3c:_Context_set_RandomSC_m2364786761
oqd:_BigInteger_ToString_m3278248272
qVd:_Decimal_System_IConvertible_ToBoolean_m1123794670
DJf:__ZL99WaitHandle_t1743403487_CustomAttributesCacheGenerator_WaitHandle_t1743403487____Handle_PropertyInfoP21CustomAttributesCache
czd:_WebRequest_AddPrefix_m3187775913
qvb:__Z18RenderImageFiltersR10RenderLoopb
Nza:__ZN10GameObjectD2Ev
s1b:__ZN8JSONRead21TransferSTLStyleArrayI13dynamic_arrayI11QuaternionfLj4EEEEvRT_17TransferMetaFlags
QZ:__ZN13PlayableGraph17ConnectionChangedEv
_jc:_MonoEventInfo_GetEventInfo_m873645389
F_c:_MD4Managed_Encode_m386285215
CX:__ZN10InputEventD2Ev
fJ:__ZL23OutOfBoundsReadingErrorPKN5Unity4TypeEiiR6Object
e9b:__ZN22UnityWebRequestManagerD2Ev
$tf:__Z112RuntimeInvoker_Boolean_t97287965_CustomAttributeNamedArgument_t287865710_CustomAttributeNamedArgument_t287865710PFvvEPK10MethodInfoPvPS4_
zKg:_isalpha
nGc:_Convert_ToChar_m1442101407
M6c:_SslClientStream_OnLocalPrivateKeySelection_m1934775249
oUd:_DateTimeOffset_get_Offset_m2040541042_AdjustorThunk
d7f:__ZN6il2cpp2vmL17IsSocketAsyncCallEP14Il2CppDelegate
bEc:_Slot_t3975888750_marshal_pinvoke_back
Bzg:__ZN6il2cpp2vm6String6NewLenEPKcj
Qob:__ZN17PersistentManager9AddStreamEv
rk:_time
iJd:_TripleDESCryptoServiceProvider_CreateDecryptor_m740960117
eId:_SHA512Managed_HashCore_m2377807474
$Mc:_Int64_Parse_m3309897583
O$d:_CompareInfo_IndexOf_m667936183
jQe:_List_1_System_Collections_IList_Insert_m1011775503_gshared
mra:__ZN26SinglePassStereoSupportExt18AfterSetViewMatrixEv
Fzd:_X509EnhancedKeyUsageExtension_ToString_m350388564
xcg:__ZN15dense_hashtableINSt3__24pairIK10KeyWrapperINS1_IPK9FieldInfoP11Il2CppClassEEEjEES9_17ReflectionMapHashIS8_EN14dense_hash_mapIS9_jSD_NS9_14EqualsComparerINS0_8equal_toIS8_EEEENS0_9allocatorISB_EEE9SelectKeyESI_SK_E4findERSA_
aBc:_SimpleEnumerator_MoveNext_m3113120129
Vqb:__ZN13LoadOperationC2E10MemLabelId
EGb:__ZN13RenderTexture19SetAutoGenerateMipsEb
Jha:__Z20GetTextureFormatInfo13TextureFormat
Qwd:_TypeConverterAttribute_Equals_m1580461255
J$c:_RSAManaged_ToXmlString_m2369501989
yhd:_LogicalCallContext__ctor_m1263247987
lFd:_Interval_get_Size_m4163671410_AdjustorThunk
E$f:__ZN6il2cpp2vm5Class4InitEP11Il2CppClass
ivf:__ZL64String_t_CustomAttributesCacheGenerator_String_Split_m3580120853P21CustomAttributesCache
XJd:_String_memcpy4_m979367827
XFg:__ZN6il2cpp5utils10MemoryPool6MallocEj
wr:__ZN11SoundHandle8InstanceD2Ev
nnc:_ResourceEnumerator_Reset_m3754276504
Q_:__ZN31CanvasBatchIntermediateRenderer13StaticDestroyEPv
HK:__ZNSt3__23mapIiP15MonoScriptCacheNS_4lessIiEE13stl_allocatorINS_4pairIKiS2_EEL18MemLabelIdentifier78ELi16EEEixERS7_
eUg:_emscripten_glBindProgramARB__wrapper
pVb:__Z41Register_UnityEngine_CullingGroup_Disposev
YZe:_PatternCompiler_EmitRepeat_m697083858
Mxa:__ZN25MultiBlocksMemoryFileData5WriteEyyPKv
Qmc:_ResourceReader_Read7BitEncodedInt_m3568166465
Hhg:__ZN14dense_hash_mapI10KeyWrapperIPK10Il2CppTypeEjN6il2cpp8metadata14Il2CppTypeHashENS4_14EqualsComparerINS6_26Il2CppTypeEqualityComparerEEENSt3__29allocatorINSB_4pairIKS4_jEEEEE13set_empty_keyERSE_
wtc:_Array_get_LongLength_m978104875
rla:__ZL17ProgramUniform2fvPK7ApiGLESjiihPKv
$Xg:b83
p3a:__ZNSt3__227__insertion_sort_incompleteIRPFbRK23TransformAccessReadOnlyS3_EPS1_EEbT0_S8_T_
ybf:__Z32RuntimeInvoker_Boolean_t97287965PFvvEPK10MethodInfoPvPS4_
eFd:_Interval_get_IsDiscontiguous_m3016063288
a7c:_SslStreamBase_get_CheckCertRevocationStatus_m2739906607
PLg:_htonl
rda:__Z20GetBufferManagerGLESv
_Xg:b82
oId:_SHA512Managed_Sigma1_m922902398
elb:__ZN18StreamedBinaryReadILb0EE21TransferSTLStyleArrayI31ArrayOfManagedObjectsTransfererEEvRT_17TransferMetaFlags
h$b:__Z18Transfer_BlittableI8JSONReadLb0EtEvRK29SerializationCommandArgumentsR31RuntimeSerializationCommandInfo
aJd:_TripleDES_IsWeakKey_m2147489852
Cyb:__Z16Projector_RenderRK15RenderNodeQueuejR17ShaderPassContext
ITa:__ZNK19ShaderPropertySheet11HasPropertyERKN9ShaderLab16FastPropertyNameE
_Vg:_emscripten_glUniform1fv__wrapper
hbd:_HMACRIPEMD160__ctor_m2981281487
gxg:__ZN6il2cpp2os10ThreadImpl33UnregisterCurrentThreadForCleanupEv
v7a:__Z18Transfer_BlittableI14SafeBinaryReadLb1E4AABBEvRK29SerializationCommandArgumentsR31RuntimeSerializationCommandInfo
Qvg:__ZN6il2cpp6icalls8mscorlib6System4Enum12get_hashcodeEP12Il2CppObject
_Eg:_GC_set_no_dls
vJg:__ZN6il2cpp8metadata26Il2CppGenericMethodCompare6EqualsEPK19Il2CppGenericMethodS4_
pbe:_InternalEnumerator_1_get_Current_m1007906068_gshared
Z0f:__ZN15dense_hashtableINSt3__24pairIK10KeyWrapperIPK11Il2CppClassEPKcEES6_N6il2cpp5utils11PointerHashIS3_EEN14dense_hash_mapIS6_S9_SE_NS6_14EqualsComparerINS0_8equal_toIS5_EEEENS0_9allocatorISA_EEE9SelectKeyESJ_SL_E15set_deleted_keyERKSA_
cBc:_SimpleEnumerator_Reset_m1520014659
ks:__ZN9AudioClip7WWWOpenEPKciPjPPvS4_
Y2c:_Context_set_ProtocolNegotiated_m2904861662
trg:__ZN15dense_hashtableINSt3__24pairIK10KeyWrapperINS1_IPKcS4_EEEiEES6_24NamespaceAndNamePairHashN14dense_hash_mapIS6_iS9_NS6_14EqualsComparerI26NamespaceAndNamePairEqualsEENS0_9allocatorIS8_EEE9SelectKeyESD_SF_E12resize_deltaEjj
Xjd:_RemotingServices_GetRemoteObject_m2117098022
m7b:__ZN13dynamic_arrayIiLj4EE6insertEPiPKiS3_
MVb:__Z53Register_UnityEngine_Input_INTERNAL_get_mousePositionv
kda:__ZN7ApiGLES12DrawElementsE16GfxPrimitiveTypePKvjjjj
Itd:_EncryptedPrivateKeyInfo_get_Salt_m3453455261
jTd:_DateTime__ParseNumber_m1240316250
xMd:_Single_System_IConvertible_ToSingle_m1939829239_AdjustorThunk
F7d:_InternalEnumerator_1_get_Current_m3839250771_gshared
g0d:_CultureInfo_get_TextInfo_m2342840448
BBe:_Array_InternalArray__IndexOf_TisMark_t3471605523_m2905388260_gshared
teg:__ZN15dense_hashtableINSt3__24pairIK10KeyWrapperINS1_IPK11Il2CppImageP11Il2CppClassEEEjEES9_17ReflectionMapHashIS8_EN14dense_hash_mapIS9_jSD_NS9_14EqualsComparerINS0_8equal_toIS8_EEEENS0_9allocatorISB_EEE9SelectKeyESI_SK_E6insertERKSB_
IEb:__Z21CreateShadowCullerJobP30CreateUmbraShadowCullerJobData
jla:__ZL18ProgramUniform2uivPK7ApiGLESjiihPKv
AVg:_glUniform4iv__wrapper
IBb:__Z33GenerateShadowCasterPartsSortDataRK16ShadowCasterDatajRK15RenderNodeQueueRKNSt3__26vectorI20ShadowCasterPartData13stl_allocatorIS7_L18MemLabelIdentifier2ELi16EEEERK10Matrix4x4fRjP20ShadowCasterSortData
cub:__ZZ23InitPlayerLoopCallbacksvEN51PostLateUpdateTriggerEndOfFrameCallbacksRegistrator7ForwardEv
Pre:_TimeSpan_Compare_m753151303
tab:__Z29Transfer_Blittable_ArrayFieldI14SafeBinaryRead9BoundsIntEvRT_R9ArrayInfoRK23StaticTransferFieldInfo
rlc:_MonoPropertyInfo_get_property_info_m1599555644
T9c:_DESTransform_CipherFunct_m3527261721
wCg:_GC_expand_hp_inner
jtg:__ZNK15dense_hashtableI10KeyWrapperIP18Il2CppGenericClassES3_N6il2cpp8metadata22Il2CppGenericClassHashEN14dense_hash_setIS3_S6_NS3_14EqualsComparerINS5_25Il2CppGenericClassCompareEEENSt3__29allocatorIS3_EEE8IdentityESA_SD_E12test_deletedEj
ipa:__ZN13ComputeShader20GetCompatibleVariantE17GfxDeviceRendereri
Szg:__ZN4utf812find_invalidIPKcEET_S3_S3_
vyf:__ZL72RuntimeCompatibilityAttribute_t1169614002_CustomAttributesCacheGeneratorP21CustomAttributesCache
GXd:_StackFrame__ctor_m343464319
QC:__ZN11UnityEngine15CloudWebService20WebRequestRestClient7PrepareEv
Akc:_MonoField_CheckGeneric_m453069507
dmd:_ObjectReader_ReadArrayOfString_m3550800559
kVc:_MonoCustomAttrs_GetCustomAttributesInternal_m648304078
TQg:_emscripten_glDepthRange__wrapper
GL:__ZN14SerializedFile7ReleaseEv
w5a:__ZN16MemoryFileSystem4OpenER13FileEntryData14FilePermission16FileAutoBehavior
J$d:_CompareInfo_GetSortKey_m1915852346
F_:__ZN13RuntimeStaticI13RendererSceneLb0EE13StaticDestroyEPv
Bce:_DefaultComparer_Compare_m1297750557_gshared
YF:__ZN20DynamicHeapAllocatorI17LowLevelAllocatorE10ReallocateEPvji
Adb:__Z18Transfer_BlittableI24GenerateTypeTreeTransferLb1E12PropertyNameEvRK29SerializationCommandArgumentsR31RuntimeSerializationCommandInfo
uYa:__ZN14SafeBinaryRead21TransferSTLStyleArrayI10vector_mapIPKN5Unity4TypeE7Hash128NSt3__24lessIS5_EENS7_9allocatorINS7_4pairIS5_S6_EEEEEEEvRT_17TransferMetaFlags
js:__ZN9AudioClip18GetQueuedAudioDataEPPvj
Nvg:__ZN6il2cpp2os5posix15PosixWaitObject13InterruptWaitEv
nfb:__Z18Transfer_BlittableI19StreamedBinaryWriteILb0EELb0E9BoundsIntEvRK29SerializationCommandArgumentsR31RuntimeSerializationCommandInfo
kig:__ZN14dense_hash_mapI10KeyWrapperINSt3__24pairIPK12PropertyInfoP11Il2CppClassEEEj17ReflectionMapHashIS8_ENS9_14EqualsComparerINS1_8equal_toIS8_EEEENS1_9allocatorINS2_IKS9_jEEEEEC2EjRKSB_RKSF_
yRb:__ZN17CollisionMeshDataC2Ev
ydd:_ConfigHandler_CheckPath_m3079311646
Goc:_Marshal_Copy_m1222846562
BOa:__ZN16LightmapSettings23VirtualRedirectTransferER19StreamedBinaryWriteILb0EE
fub:__ZZ23InitPlayerLoopCallbacksvEN47PostLateUpdateMemoryFrameMaintenanceRegistrator7ForwardEv
mda:__ZN7ApiGLES20SetVertexArrayAttribEjj12VertexFormathjPKv
nn:FUNCTION_TABLE_viiififii
hDg:_GC_push_next_marked
nke:_EqualityComparer_1_System_Collections_IEqualityComparer_GetHashCode_m3539775155_gshared
c1a:__ZN18IDCollectorFunctor18GenerateInstanceIDEi17TransferMetaFlags
swd:_NameObjectCollectionBase_BaseAdd_m3437748750
bN:__ZNSt3__27__sort4IRNS_6__lessI14ObjectLoadDataS2_EEPS2_EEjT0_S6_S6_S6_T_
kwb:__ZNK25CameraStackRenderingState16GetCurrentCameraEv
_Qf:__ZL57AnimationCurve_t3046754366_CustomAttributesCacheGeneratorP21CustomAttributesCache
_Za:__ZN15ResourceManagerD2Ev
iVb:__Z41Register_UnityEngine_Camera_GetAllCamerasv
m$e:_Assertion__ctor_m2128950829
v6b:__ZN28PerformanceReportingSettings8TransferI14SafeBinaryReadEEvRT_
p$b:__Z18Transfer_BlittableI8JSONReadLb1E5RectTIiEEvRK29SerializationCommandArgumentsR31RuntimeSerializationCommandInfo
Fng:__ZN6il2cpp2vm22EmbeddedResourceRecordC2ERKS1_
Arb:__ZL20DrawVBOChunkWithPassP6ShaderPN9ShaderLab4PassER17ShaderPassContextR10DynamicVBORK21DynamicVBOChunkHandle
VMa:__ZN9Texture2D13AwakeFromLoadE17AwakeFromLoadMode
s7e:_PlayerConnection_get_instance_m1750121257
ivg:__ZN6il2cpp2vm3RCW14QueryInterfaceILb0EEEP14Il2CppIUnknownP15Il2CppComObjectRK10Il2CppGuid
AWa:__ZThn328_N14SpriteRendererD0Ev
kLe:_X509Store_get_Certificates_m56224934
pja:__ZN6prcoreL17RemapGenericFloatI15TexFormatRFloat18TexFormatARGBFloatEEvPKNS_9InnerInfoE
t0c:_CipherSuite__ctor_m2440635082
RGd:_RSAPKCS1KeyExchangeFormatter_SetRSAKey_m1477802943
XZe:_PatternCompiler_EmitJump_m3915926156
JKd:_EvidenceEnumerator_get_Current_m1264365535
s7b:__ZN11UnityEngine15PlatformWrapper20GetPlayerPrefsUInt64ERKN4core12basic_stringIcNS1_20StringStorageDefaultIcEEEEy
Foc:_Marshal_copy_from_unmanaged_m2834266824
NPg:dynCall_iiiifii
mBb:__ZN20ReflectionProbeCacheC2ER13BatchRendererR15RenderLoopStats
Clf:__Z59RuntimeInvoker_Int32_t2950945753_DateTimeOffset_t3229287507PFvvEPK10MethodInfoPvPS4_
u4a:__ZNK12HandlerChain6ExistsERK13FileEntryData
O_d:_Calendar__ctor_m106290643
YBb:__Z30FindDirectAttenuationFromProbeP18ForwardLightsBlockbiRK10RenderNodeRK23FindForwardLightsParamsf
HXa:__ZN12InputManager23VirtualRedirectTransferER24GenerateTypeTreeTransfer
z3a:__ZN9Transform23VirtualRedirectTransferER24GenerateTypeTreeTransfer
fxe:_ValueType_DefaultEquals_m2927252100
W6:__ZNSt3__26vectorIN9ShaderLab20SerializedSubProgram12UAVParameterENS_9allocatorIS3_EEE21__push_back_slow_pathIKS3_EEvRT_
enf:__Z87RuntimeInvoker_RuntimeObject_Byte_t1134296376_RuntimeObject_RuntimeObject_RuntimeObjectPFvvEPK10MethodInfoPvPS4_
$1c:_HandshakeMessage_Process_m810828609
Ceb:__Z29Transfer_Blittable_ArrayFieldI24GenerateTypeTreeTransfer9BoundsIntEvRT_R9ArrayInfoRK23StaticTransferFieldInfo
pya:__ZN10MemoryFile4ReadEyyPvPy
Ufc:_GenericTypeParameterBuilder_GetGenericArguments_m2988765390
x8:__ZN13GfxDeviceGLES26UpdateViewProjectionMatrixEv
Lq:__ZN4FMOD3DSP12setParameterEif
lpb:__ZN13MemoryManager16StaticInitializeEv
i0d:_CultureInfo_Equals_m1360976324
De:___cxa_free_exception
DSf:__ZL69PersistentCall_t3407714124_CustomAttributesCacheGenerator_m_CallStateP21CustomAttributesCache
Pu:__ZN4FMOD22FakeModChannelCallbackEPv
Je:_emscripten_glValidateProgram
aFa:__ZN4Mesh10CreateMeshEv
qcd:_RijndaelManagedTransform__ctor_m1033522223
ISd:_DateTime_CompareTo_m3889078633
qKc:_NumberFormatter_set_CurrentCulture_m1358228087
FGb:__ZN7Texture13SetAnisoLevelEi
cB:__ZNSt3__26__treeINS_12__value_typeIN4core12basic_stringIcNS2_20StringStorageDefaultIcEEEEjEENS_19__map_value_compareIS6_S7_NS_4lessIS6_EELb1EEE13stl_allocatorIS7_L18MemLabelIdentifier88ELi16EEE7destroyEPNS_11__tree_nodeIS7_PvEE
gS:__ZN19EndOfFrameCallbacks7EnqueueEP18EndOfFrameCallbackb
x9c:_CspParameters__ctor_m2741097571
Pjf:__Z78RuntimeInvoker_IntPtr_t_SByte_t1669577662_RuntimeObject_BooleanU26_t4125257963PFvvEPK10MethodInfoPvPS4_
BWd:_Decimal_decimalSetExponent_m3707787243
IU:__ZN33InstancedMeshIntermediateRenderer13StaticDestroyEPv
tqg:__ZN14dense_hash_mapI10KeyWrapperIP14Il2CppIUnknownEjN6il2cpp5utils11PointerHashIS1_EENS3_14EqualsComparerINSt3__28equal_toIS2_EEEENS9_9allocatorINS9_4pairIKS3_jEEEEE13set_empty_keyERSF_
bfa:__ZN15dense_hashtableINSt3__24pairIK9TextureIDiEES2_14GfxGenericHashIS2_EN14GfxDoubleCacheIS2_iS6_NS0_8equal_toIS2_EEN31GfxDoubleCacheConcurrencyPolicy11LocklessGetE42GfxDoubleCacheDefaultEmptyDeletedGeneratorIS2_EE9SelectKeyES9_13stl_allocatorIS4_L18MemLabelIdentifier24ELi16EEE12resize_deltaEjj
hDa:__Z21DestroyShadowMapCacheP14ShadowMapCache
EGe:_Array_InternalArray__get_Item_TisLabelFixup_t858502054_m3276643490_gshared
Khg:__ZN15dense_hashtableINSt3__24pairIK10KeyWrapperIPK10Il2CppTypeEjEES6_N6il2cpp8metadata14Il2CppTypeHashEN14dense_hash_mapIS6_jSB_NS6_14EqualsComparerINSA_26Il2CppTypeEqualityComparerEEENS0_9allocatorIS8_EEE9SelectKeyESF_SH_E14squash_deletedEv
Dog:__ZN6il2cpp2vm13LivenessState5ResetEv
zXb:__ZN9JSONWrite8TransferI11KeyframeTplIfEEEvRT_PKc17TransferMetaFlags
HEc:_SortedList_GetImpl_m3689246167
mga:__ZN24BuiltinShaderParamValuesC2Ev
OXb:__ZL41CreateJSONTransferFunctionScriptingTraitsv
B0:__ZN6Shader23VirtualRedirectTransferER14SafeBinaryRead
nnb:__Z23GetLateBehaviourManagerv
Pgf:__Z33RuntimeInvoker_Single_t1397266774PFvvEPK10MethodInfoPvPS4_
B9a:__ZN14SafeBinaryRead21TransferSTLStyleArrayINSt3__26vectorI8Gradient13stl_allocatorIS3_L18MemLabelIdentifier1ELi16EEEEEEvRT_17TransferMetaFlags
pH:__ZN10MemoryPool10DeallocateEPv
APg:dynCall_vif
BPg:dynCall_vid
RHc:_Convert_ToSByte_m4075629912
CPg:dynCall_vii
etd:_KeyPairPersistence_FromXml_m746585742
IPd:_Decoder__ctor_m4046021500
Vkb:__Z18Transfer_BlittableI18StreamedBinaryReadILb0EELb0EdEvRK29SerializationCommandArgumentsR31RuntimeSerializationCommandInfo
Y7f:__ZN6il2cpp6icalls8mscorlib6System8MonoType18GetFields_internalEP20Il2CppReflectionTypeiS5_
ON:__ZN5Unity9Component16CheckConsistencyEv
ilc:_MonoMethod_get_ContainsGenericParameters_m3860345224
nQ:__ZN19ShaderPropertySheet37CreateTextureAuxPropertyUninitializedEN9ShaderLab16FastPropertyNameES1_PKc
Rfb:__ZL26Transfer_SimpleNativeClassI19StreamedBinaryWriteILb0EE10RectOffsetLb1EEvRK29SerializationCommandArgumentsR31RuntimeSerializationCommandInfo
G5b:__ZN11UnityEngine7Connect17DeviceStatusEventD2Ev
ddg:__ZN15dense_hashtableINSt3__24pairIK10KeyWrapperIPK10Il2CppTypeEjEES6_N6il2cpp8metadata14Il2CppTypeHashEN14dense_hash_mapIS6_jSB_NS6_14EqualsComparerINSA_26Il2CppTypeEqualityComparerEEENS0_9allocatorIS8_EEE9SelectKeyESF_SH_E3endEv
Bba:__ZN13GfxDeviceGLES17SetGpuProgramNameEP10GpuProgramPKc
bD:__ZNK11UnityEngine15CloudWebService25WebRequestDownloadHandler11GetProgressEv
TFa:__Z43IsVertexFormatCompatibleWithDynamicBatchingRK14VertexDataInfo
k6f:__ZN6il2cpp2vm13MetadataCache28GetMethodDefinitionFromIndexEi
uyg:__ZN6il2cpp2os20FileErrnoToErrorCodeEi
iKa:__ZN14SafeBinaryRead19TransferSTLStyleMapINSt3__23mapI39DeprecatedFastPropertyNameSerialization10ColorRGBAfNS1_4lessIS3_EENS1_9allocatorINS1_4pairIKS3_S4_EEEEEEEEvRT_17TransferMetaFlags
dVd:_Decimal_ThrowAtPos_m1170269346
KQf:__ZL98GameObject_t1113636619_CustomAttributesCacheGenerator_GameObject_SendMessage_m3720186693____value1P21CustomAttributesCache
tg:_atexit
YAe:_Array_InternalArray__IndexOf_TisChar_t3634460470_m1022396423_gshared
lgg:__ZN6il2cpp2vmL31GetObjectForMissingDefaultValueEj
kQd:_DecoderReplacementFallbackBuffer_GetNextChar_m2858228391
D3b:__ZN11UnityEngine15PlatformWrapper30GetVRPlayAreaBoundaryDimensionEv
vKe:_X509Certificate_get_Hash_m410033711
r3:__ZN9ShaderLab14SerializedPassC2ERKS0_
XXb:__Z35Transfer_Blittable_FixedBufferFieldI9JSONWritehEvRK29SerializationCommandArgumentsR31RuntimeSerializationCommandInfo
l:STACKTOP
c4a:__ZNK12HandlerChain8IsHiddenERK13FileEntryData
SOa:__ZN21EnlightenSceneMapping16BuildRemapTablesEv
vNg:__ZNK10__cxxabiv117__class_type_info16search_above_dstEPNS_19__dynamic_cast_infoEPKvS4_ib
A:tempBigIntD
bGb:__ZNK25CameraStackRenderingState25CalculateCameraTargetTypeEv
Mhc:_PropertyBuilder_GetSetMethod_m128670376
y:tempBigIntR
x:tempBigIntS
w:tempBigIntP
wRc:_MemoryStream_SetLength_m974389318
fN:__ZN6Object18RegisterInstanceIDEPS_
fdb:__Z18Transfer_BlittableI24GenerateTypeTreeTransferLb1EsEvRK29SerializationCommandArgumentsR31RuntimeSerializationCommandInfo
Eug:__ZN15dense_hashtableINSt3__24pairIK10KeyWrapperIP12Il2CppObjectEN6il2cpp2gc9CachedCCWEEES5_NS7_5utils11PointerHashIS3_EEN14dense_hash_mapIS5_S9_SD_NS5_14EqualsComparerINS0_8equal_toIS4_EEEENS0_9allocatorISA_EEE9SelectKeyESI_SK_E11set_deletedER30dense_hashtable_const_iteratorISA_S5_SD_SM_SI_SK_E
H8:__ZNK9GfxDevice18GetWorldViewMatrixEv
Bwb:__Z20LookRotationToMatrixRK8Vector3fS1_P10Matrix3x3f
mIc:_Convert_ToUInt16_m3902921832
_ac:_Assembly_GetTypes_m1724781913
EBf:__ZL54TypeBuilder_t1073948154_CustomAttributesCacheGeneratorP21CustomAttributesCache
OAg:__ZN6il2cpp6icalls8mscorlib6System7Convert17Base64ToByteArrayEPDsib
krc:_SmallXmlParser_ReadComment_m1578426707
mOe:_List_1_AddEnumerable_m376418521_gshared
jnf:__Z79RuntimeInvoker_Void_t1185182177_Byte_t1134296376_Byte_t1134296376_RuntimeObjectPFvvEPK10MethodInfoPvPS4_
r3f:__ZNSt3__218__insertion_sort_3IRN6il2cpp5utils11collections13ArrayValueMapIPK10Il2CppType17Il2CppInteropData26InteropDataToTypeConverterNS1_8metadata14Il2CppTypeLessENSA_26Il2CppTypeEqualityComparerEE12SortComparerEPS8_EEvT0_SH_T_
L8:__ZNK9GfxDevice25GetDeviceProjectionMatrixEv
ja:invoke_iidiii
ldb:__Z18Transfer_BlittableI24GenerateTypeTreeTransferLb1EtEvRK29SerializationCommandArgumentsR31RuntimeSerializationCommandInfo
gz:__ZN12AudioManager33GetCurrentAmbisonicDefinitionNameE31UnityAudioEffectDefinitionFlags
qTb:__ZN10systeminfo24GetRuntimePlatformStringEv
uPc:_MonoIO_DeleteFile_m3839141322
Fta:__ZN10SpookyHash5ShortEPKvjPyS2_
ewg:__ZN6il2cpp6icalls8mscorlib6System6String22RedirectToCreateStringEv
rBf:__ZL99ILGenerator_t1388622344_CustomAttributesCacheGenerator_ILGenerator_Mono_GetCurrentOffset_m993338688P21CustomAttributesCache
F8e:_PropertyName_op_Implicit_m1633828199
DQ:__ZN9ShaderLab6TexEnvC2ERKNS_25SerializedTexturePropertyE
CAa:__ZN9Transform32SetLocalScaleWithoutNotificationERKN4math7_float3Ey
P6f:__ZN6il2cpp2vm19SocketPollingThread14DequeueRequestEv
byg:__ZL10RevealLinkPv
aRd:_DateTime__ctor_m12900168_AdjustorThunk
K2c:_ClientSessionCache_FromContext_m343076119
Zh:___cxa_end_catch
WId:_ToBase64Transform_TransformBlock_m2497349397
Iwd:_NameValueCollection_Add_m2418530856
_id:_ReturnMessage_get_MethodSignature_m399735125
Wod:_SortKeyBuffer_AppendLevel5_m3963841125
u1e:_PositionAssertion_Compile_m2500980346
IAc:_ArrayListWrapper_ToArray_m3192696690
zz:__Z36AudioSource_Get_Custom_PropIsPlayingP12Il2CppObject
flb:__Z19TransferField_ArrayI18StreamedBinaryReadILb0EE27Converter_UnityEngineObjectEvRK23StaticTransferFieldInfoR31RuntimeSerializationCommandInfoRT0_
ivc:_Attribute_GetCustomAttribute_m4034845276
SWb:__ZNK5Unity9rapidjson12GenericValueINS0_4UTF8IcEE13JSONAllocatorE6AcceptINS0_12PrettyWriterI16TempBufferWriterS3_S3_S4_EEEEbRT_
vV:__Z33InitializeBuiltinShaderParamNamesv
Dte:_Type_GetConstructor_m2219014380
mO:__ZNK16TypeTreeIterator4TypeEv
ftb:__ZN10FileSystem25MountDataFolderFileSystemERKN4core12basic_stringIcNS0_20StringStorageDefaultIcEEEES6_
Jpc:_ArgumentOutOfRangeException__ctor_m282481429
Ii:_glGetUniformLocation
caa:__ZN13GfxDeviceGLES32CreateColorRenderSurfacePlatformEP17RenderSurfaceBase19RenderTextureFormat
Sr:__ZN12AudioManager24CreateFMODSoundFromMovieEP9AudioClip
j5f:__ZN6il2cpp2vm13MetadataCache24GetGenericInstanceMethodEPK10MethodInfoPK20Il2CppGenericContext
GCg:_GC_hblk_fl_from_blocks
pkc:_MonoField_GetParentType_m2478933781
$Ud:_Decimal_Parse_m942471224
uM:__Z24ConvertSeparatorsToUnityPc
Dfg:__ZN6il2cpp2gc19AppendOnlyGCHashMapINSt3__24pairIPK9EventInfoP11Il2CppClassEEP21Il2CppReflectionEvent17ReflectionMapHashIS9_ENS2_8equal_toIS9_EEE3AddERKS9_SB_
FSe:_Collection_1_System_Collections_ICollection_CopyTo_m46221116_gshared
qmg:__ZN6il2cpp2vm6Thread20FreeThreadStaticDataEP12Il2CppThread
VAe:_Array_InternalArray__IndexOf_TisClientCertificateType_t1004704908_m3457772631_gshared
Oaf:__Z28RuntimeInvoker_RuntimeObjectPFvvEPK10MethodInfoPvPS4_
FHf:__ZL56SecurityAction_t569814076_CustomAttributesCacheGeneratorP21CustomAttributesCache
AJd:_X509Certificate_GetPublicKey_m4184729161
lAc:_ArrayListWrapper_set_Capacity_m2373297383
QPg:dynCall_viififi
VMe:_Enumerator_System_Collections_IEnumerator_Reset_m502339360_AdjustorThunk
ozf:__ZL58DictionaryEntry_t3123975638_CustomAttributesCacheGeneratorP21CustomAttributesCache
dmg:__ZN15dense_hashtableINSt3__24pairIK10KeyWrapperINS1_IP11Il2CppClassjEEES4_EES6_N6il2cpp8metadata14ArrayClassHashEN14dense_hash_mapIS6_S4_SB_NS6_14EqualsComparerINSA_17ArrayClassCompareEEENS0_9allocatorIS8_EEE9SelectKeyESF_SH_E12maybe_shrinkEv
o9c:_CryptoConfig_EncodeLongNumber_m4127306320
S0c:_CipherSuite_createEncryptionCipher_m2533565116
kB:__ZN11UnityEngine15CloudWebService14DataDispatcher25OnDataBlockConsumedStaticEPv
rjb:__Z29Transfer_Blittable_ArrayFieldI18StreamedBinaryReadILb1EE11QuaternionfEvRT_R9ArrayInfoRK23StaticTransferFieldInfo
dpc:_ActivatedServiceTypeEntry_ToString_m1591455874
RKd:_SecurityElement_ToXml_m3664345083
cEe:_Array_InternalArray__Insert_TisParameterModifier_t1461694466_m3664994573_gshared
U1:__Z14resize_trimmedINSt3__26vectorIN9ShaderLab20SerializedSubProgram16SamplerParameterENS0_9allocatorIS4_EEEEEvRT_j
mrc:_SmallXmlParser_ReadUntil_m2715581630
eNg:__ZNSt3__212basic_stringIcNS_11char_traitsIcEENS_9allocatorIcEEE6insertEjPKcj
QXb:__Z44InitializeTransferFunctionScriptingTraitsForI8JSONReadEvR31TransferFunctionScriptingTraits
Vrb:__ZNSt3__27__sort4IRNS_4lessIN22BuiltinResourceManager8ResourceEEEPS3_EEjT0_S7_S7_S7_T_
$vd:_ListDictionary_Add_m3918308031
tug:__ZNK15dense_hashtableINSt3__24pairIK10KeyWrapperIP12Il2CppObjectEN6il2cpp2gc9CachedCCWEEES5_NS7_5utils11PointerHashIS3_EEN14dense_hash_mapIS5_S9_SD_NS5_14EqualsComparerINS0_8equal_toIS4_EEEENS0_9allocatorISA_EEE9SelectKeyESI_SK_E23find_position_with_hashERS6_j
zVf:_AesManaged_CreateEncryptor_m1611897367
UQc:_DelegatePInvokeWrapper_WriteDelegate_t4270993571
uHb:__ZN10GameObject34AddFirstTransformComponentInternalEP9Transform
QT:__ZNSt3__26__treeINS_12__value_typeINS_4pairIPcS3_EENS_3setIS3_15compare_tstringIPKcENS_9allocatorIS3_EEEEEENS_19__map_value_compareIS4_SD_20smaller_tstring_pairIS8_ELb1EEENSA_ISD_EEE7destroyEPNS_11__tree_nodeISD_PvEE
ix:__ZN12AudioManager29GetCurrentAmbisonicDefinitionE31UnityAudioEffectDefinitionFlags
FYa:__ZN15SerializeTraitsINSt3__24pairIPKN5Unity4TypeE7Hash128EEE8TransferI14SafeBinaryReadEEvRS7_RT_
bCg:_GC_number_stack_black_listed
FWd:_Decimal_ToString_m4018746482_AdjustorThunk
HEb:__Z37GenerateCombinedDynamicVisibleListJobP11CullResults
Oge:_Dictionary_2_ToTKey_m2055624458_gshared
FQa:__ZNK13ScreenManager21GetCursorInsideWindowEv
Acc:_CustomAttributeData_GetCustomAttributes_m1033457578
Ooc:_SafeHandle_DangerousAddRef_m614714386
HBb:__Z20IntersectAABBFrustumRK4AABBPK5Planej
URb:__ZN13RenderManager15InitializeClassEv
hmf:__Z74RuntimeInvoker_RuntimeObject_RuntimeObject_Double_t594665363_RuntimeObjectPFvvEPK10MethodInfoPvPS4_
U9a:__ZN15SerializeTraitsI12PropertyNameE8TransferI14SafeBinaryReadEEvRS0_RT_
rhd:_Header__ctor_m1921907550
Ayc:_Convert_ToSByte_m1350241137
TS:__GLOBAL__sub_I_runtime_baseclasses_2_cpp
XZb:__ZN9JSONWrite8TransferI11ColorRGBA32EEvRT_PKc17TransferMetaFlags
D0b:__Z22TransferField_NonArrayI8JSONRead27Converter_SimpleNativeClassI8GradientEEvRK23StaticTransferFieldInfoR31RuntimeSerializationCommandInfoRT0_
pob:__ZN10MonoScript13AwakeFromLoadE17AwakeFromLoadMode
bFd:_Interval__ctor_m4022869013
zwc:_Boolean_System_IConvertible_ToUInt16_m3465173538
jza:__ZN10MemoryFile21CreateFileSystemEntryE10MemLabelId14FilePermissionPvjb
Zoa:__ZNK18GfxFramebufferGLES15DiscardContentsER12ObjectHandleI17RenderSurface_TagP17RenderSurfaceBaseE
UZc:_ARC4Managed_KeySetup_m2449315676
e6f:__ZN6il2cpp2vm13MetadataCache27GetEventDefinitionFromIndexEi
EIc:_Convert_ToUInt64_m92315402
cZb:__Z18Transfer_BlittableI9JSONWriteLb1EdEvRK29SerializationCommandArgumentsR31RuntimeSerializationCommandInfo
tTg:_glGetIntegerv__wrapper
H:Math_pow
g8d:_InternalEnumerator_1_System_Collections_IEnumerator_get_Current_m435848551_gshared
MO:__ZN10GameObject28FinalizeAddComponentInternalEPN5Unity9ComponentE
VNa:__ZN9Texture2DD2Ev
NWf:_AudioExtensionManager_GetReadyToPlay_m1557263244
$Hc:_Convert_ToSingle_m164367433
FGe:_Array_InternalArray__get_Item_TisILTokenInfo_t2325775114_m3110830457_gshared
HGc:_Convert_ToDecimal_m1284410333
j4e:_Camera_INTERNAL_CALL_RaycastTry2D_m3172975827
FTd:_DateTime_CheckStyle_m1392838900
hwd:_NameObjectCollectionBase__ctor_m2090733912
VDd:_Group__cctor_m2230627219
F$c:_RSAManaged_EncryptValue_m4149543654
yp:__ZN13dynamic_arrayIhLj1EE18resize_initializedEjRKh12ResizePolicy
QY:__ZN27IntermediateRendererManagerD2Ev
l1a:__ZN17PersistentManager27GetLoadErrorMessageFromPathERKN4core12basic_stringIcNS0_20StringStorageDefaultIcEEEE
mJe:_NetscapeCertTypeExtension_ToString_m1800688476
vl:_glGenRenderbuffers
hog:__ZN6il2cpp6icalls8mscorlib6System2IO6MonoIO19GetCurrentDirectoryEPi
uCb:__Z21IntersectSegmentPlaneRK8Vector3fS1_RK5PlanePS_
cjf:__Z81RuntimeInvoker_Void_t1185182177_Int64_t3736567304_RuntimeObject_Int32_t2950945753PFvvEPK10MethodInfoPvPS4_
KFc:_Convert_ToBoolean_m4098720762
y2e:_Uri_get_IsFile_m2450018824
eX:__ZN14CachingManager7DisposeEv
fx:__ZN12AudioManager31GetCurrentSpatializerDefinitionEv
Ivd:_HybridDictionary_Add_m912320053
GVa:__ZN12MeshRenderer16UpdateCachedMeshEv
PUf:_KeyBuilder_IV_m3340234014
A9a:__Z19TransferField_ArrayI14SafeBinaryRead27Converter_SimpleNativeClassI8GradientEEvRK23StaticTransferFieldInfoR31RuntimeSerializationCommandInfoRT0_
Lye:_Array_InternalArray__ICollection_Remove_TisDictionaryEntry_t3123975638_m3699186409_gshared
dac:_Object_Equals_m1397037629
A3e:_AsyncOperation_t1445031843_marshal_pinvoke_back
Uj:_emscripten_glGenVertexArrays
ZGb:__ZN6Camera15SetOrthographicEb
S8:__ZN13GfxDeviceGLES14DisableScissorEv
Xmf:__Z240RuntimeInvoker_RuntimeObject_Int16_t2552820387_RuntimeObject_Int32_t2950945753_Int32_t2950945753_Int32_t2950945753_SByte_t1669577662_SByte_t1669577662_SByte_t1669577662_SByte_t1669577662_Int16_t2552820387_SByte_t1669577662_SByte_t1669577662PFvvEPK10MethodInfoPvPS4_
lgf:__Z64RuntimeInvoker_Double_t594665363_RuntimeObject_Int32_t2950945753PFvvEPK10MethodInfoPvPS4_
E5d:_InternalEnumerator_1_System_Collections_IEnumerator_get_Current_m2141782011_AdjustorThunk
hWd:_Decimal_decimalMult_m3812462972
j5c:_RecordProtocol_BeginSendRecord_m615249746
Vb:_glVertexAttrib4f
OOe:_List_1_System_Collections_IList_Insert_m4074493513_gshared
u2e:_Uri_GetOpaqueWiseSchemeDelimiter_m1909471550
FDg:_GC_set_hdr_marks
tFa:__Z17SetupObjectMatrixRK10Matrix4x4fi
TT:__ZN13RuntimeStaticINSt3__23mapINS0_4pairIPcS3_EEPFbPvR14SafeBinaryReadE20smaller_tstring_pairIPKcENS0_9allocatorINS2_IKS4_S9_EEEEEELb0EE13StaticDestroyES5_
bQc:_FileStream_FlushBufferIfDirty_m4249802951
JFe:_Array_swap_TisRuntimeObject_m3281757310_gshared
PHc:_Convert_ToSByte_m2653811524
MQb:__ZZL31RegisterOtherRendererPropertiesR22GenericPropertyBindingEN30Wrapper_RendererReceiveShadows13SetFloatValueEPvf
pVc:_MonoCustomAttrs_GetCustomAttributes_m1347331976
J9:__ZN9GfxDevice24CreateRenderDepthSurfaceE9TextureIDiiii16TextureDimension17DepthBufferFormat18SurfaceCreateFlags
Ufd:_SynchronizationAttribute_set_Locked_m2760363037
JJc:_Int16_Equals_m82811458
d2d:_Guid_Compare_m231009821
n$c:_PrivateKeyInfo_Decode_m986145117
Kr:__ZN4FMOD5Sound11setUserDataEPv
X0:__ZN14SafeBinaryRead21TransferSTLStyleArrayINSt3__26vectorIN9ShaderLab19SerializedSubShaderENS1_9allocatorIS4_EEEEEEvRT_17TransferMetaFlags
Eff:__Z137RuntimeInvoker_Void_t1185182177_Int32_t2950945753_RuntimeObject_RuntimeObject_RuntimeObject_RuntimeObject_RuntimeObject_SByte_t1669577662PFvvEPK10MethodInfoPvPS4_
A2d:_Guid_op_Equality_m4289903222
Gya:__ZNK25SingleBlockMemoryFileData4SizeEv
QTf:__ZL68TypeInferenceRuleAttribute_t254868554_CustomAttributesCacheGeneratorP21CustomAttributesCache
Iv:__ZL50UnityAudioEffect_InternalSetFloatParameterCallbackP14FMOD_DSP_STATEif
aug:__ZNK15dense_hashtableINSt3__24pairIK10KeyWrapperIP12Il2CppObjectEN6il2cpp2gc9CachedCCWEEES5_NS7_5utils11PointerHashIS3_EEN14dense_hash_mapIS5_S9_SD_NS5_14EqualsComparerINS0_8equal_toIS4_EEEENS0_9allocatorISA_EEE9SelectKeyESI_SK_E3endEv
dSd:_DateTime_System_IConvertible_ToUInt32_m3781235049
Ccf:__Z92RuntimeInvoker_Int32_t2950945753_RuntimeObject_RuntimeObject_SByte_t1669577662_RuntimeObjectPFvvEPK10MethodInfoPvPS4_
LMc:_Int64_System_IConvertible_ToType_m3223988955
BDb:__ZN14qsort_internal5QSortIP16RenderObjectDatai25RenderPrePassObjectSorterEEvT_S4_T0_T1_
yId:_SymmetricAlgorithm_Dispose_m1120980942
XW:__ZL19StaticCleanupPlayerPv
qVc:_MonoCustomAttrs_RetrieveAttributeUsage_m2717094301
QOc:_DirectoryInfo_Initialize_m1389772934
$2e:_AnimationCurve_Init_m425927913
Fw:__ZN12AudioManager37RebindAudioSourcesAndSubMixersToMixerEP10AudioMixer
kta:__ZN9Behaviour10DeactivateE19DeactivateOperation
uMa:__ZN13StreamingInfo8TransferI14SafeBinaryReadEEvRT_
y1:__ZN15dense_hashtableINSt3__24pairIKiN4core17string_with_labelILi1EEEEEi18SInt32HashFunctionN14dense_hash_mapIiS5_S7_NS0_8equal_toIiEE13stl_allocatorIS6_L18MemLabelIdentifier1ELi16EEE9SelectKeyESA_SD_E15insert_noresizeERKS6_
Kxg:__ZN6il2cpp2vmL22RaiseOverflowExceptionEv
zo:__Z23CalculateGlobalRotation23TransformAccessReadOnly
b6:__ZNK9ShaderLab7Program11IsSupportedEPK6Shader
iL:__ZNK4core8hash_mapIPKcPK4RTTIN11TypeManager23ConstCharPtrHashFunctorENS6_19ConstCharPtrEqualToEE6lookupERKS2_
eic:_TypeBuilder_GetMethodImpl_m3583143647
JQb:__Z43InitializeRendererAnimationBindingInterfacev
mW:__ZL26DestroyGameObjectRecursiveR10GameObjectR11BatchDelete
WDg:_GC_allochblk_nth
eVf:_SymmetricTransform_FinalEncrypt_m748885414
XPb:__Z7HaloTexP9Texture2DPhiiii
pQg:dynCall_i
lab:__ZN14SafeBinaryRead21TransferSTLStyleArrayI13dynamic_arrayIxLj8EEEEvRT_17TransferMetaFlags
Yvd:_ListDictionary_GetEnumerator_m3395631195
Mdb:__Z35Transfer_Blittable_FixedBufferFieldI24GenerateTypeTreeTransferjEvRK29SerializationCommandArgumentsR31RuntimeSerializationCommandInfo
ftd:_KeyPairPersistence_Save_m3111435398
rPg:dynCall_v
ina:__ZN7ApiGLES14TextureSamplerEjjRK24GfxTextureSamplingParams17TextureColorSpace
zEc:_SortedList_System_Collections_IEnumerable_GetEnumerator_m2738760439
Img:__ZN6il2cpp2vm6Thread8SetStateEP12Il2CppThreadNS0_11ThreadStateE
IBa:__ZN6Camera23VirtualRedirectTransferER14SafeBinaryRead
nIg:__ZNSt3__26vectorINS_12basic_stringIDsNS_11char_traitsIDsEENS_9allocatorIDsEEEENS4_IS6_EEE8__appendEj
b5b:__ZN11UnityEngine7Connect13ConnectConfig11ConfigValueD2Ev
foa:__ZNSt3__26__treeINS_12__value_typeIjP14DataBufferGLESEENS_19__map_value_compareIjS4_NS_4lessIjEELb1EEENS_9allocatorIS4_EEE7destroyEPNS_11__tree_nodeIS4_PvEE
LZc:_ASN1Convert_ToInt32_m2228176117
x3e:_AssetBundleRequest_t699759206_marshal_pinvoke_back
ab:invoke_viiiiiiii
kJc:_Int16_System_IConvertible_ToDateTime_m3080274979_AdjustorThunk
koa:__ZN18GfxFramebufferGLES24UpdateDefaultFramebufferEP17RenderSurfaceBaseS1_N2gl6HandleILNS2_10ObjectTypeE9EEE
HZa:__ZN18StreamedBinaryReadILb0EE21TransferSTLStyleArrayI13dynamic_arrayIiLj4EEEEvRT_17TransferMetaFlags
zOa:__ZN16LightmapSettings5ResetEv
gwa:__ZN12FileAccessor4ReadEyPvPy
scf:__Z67RuntimeInvoker_Void_t1185182177_Int16_t2552820387_Int32_t2950945753PFvvEPK10MethodInfoPvPS4_
Ydc:_EnumBuilder_get_BaseType_m1707640163
TWb:__ZN5Unity9rapidjson12PrettyWriterI16TempBufferWriterNS0_4UTF8IcEES4_13JSONAllocatorE12PrettyPrefixENS0_4TypeE
Hne:_UnicodeEncoding_GetString_m332467280
aN:__ZNK15FileSystemEntry6ExistsEv
ITd:_DateTime_ToString_m884486936
B_c:_MD4Managed_HashCore_m3384203071
Ns:__ZN13AudioListener23VirtualRedirectTransferER19StreamedBinaryWriteILb0EE
T1c:_ClientRecordProtocol_createClientHandshakeMessage_m3325677558
Aaa:__ZN13GfxDeviceGLES11CopyTextureE9TextureIDS0_
MEc:_SortedList_get_Capacity_m919184864
FSg:_emscripten_glViewport__wrapper
mD:__ZN11UnityEngine15CloudWebService23WebRequestUploadHandler13GetUploadDataERj
hOd:_String_IndexOfOrdinalUnchecked_m460601827
Idd:_ConfigHandler_ReadChannel_m781299361
Vnf:__Z99RuntimeInvoker_Void_t1185182177_Int32_t2950945753_Int32_t2950945753_SByte_t1669577662_RuntimeObjectPFvvEPK10MethodInfoPvPS4_
eTe:_Collection_1_set_Item_m2229506155_gshared
FSd:_DateTime_Compare_m2855073242
_dd:_InternalRemotingServices_GetCachedSoapAttribute_m1042302982
CB:__ZN11UnityEngine15CloudWebService17SessionEventQueue15RestoreFromFileER12FileAccessorPvy
Gdc:_ConstructorBuilder_GetILGenerator_m1421260830
Wog:__ZN6il2cpp2vm9Exception25RaiseOutOfMemoryExceptionEv
YYa:__ZN14PlayerSettingsD2Ev
vuf:__ZL51Attribute_t861562559_CustomAttributesCacheGeneratorP21CustomAttributesCache
KCg:_GC_reclaim_all
JZ:__ZN13PlayableGraph14DestroyOutputsEv
nSe:_Enumerator_System_Collections_IEnumerator_get_Current_m3895111131_gshared
Ce:___syscall122
LGc:_Convert_ToDecimal_m2858622624
sac:_OperatingSystem__ctor_m1545635730
sy:__ZN9AudioClip16EnableLegacyModeEv
ufd:_Context_DoCallBack_m749197451
jVb:__Z52Register_UnityEngine_Camera_INTERNAL_CALL_RaycastTryv
YLg:_mkdir
vxd:_HttpWebRequest_get_ServicePoint_m3916606901
xGg:__GLOBAL__sub_I_MemoryMappedFile_cpp
_ud:_PKCS12_ReadSafeBag_m1585166574
gSb:__Z16CreateRenderLoopR6Camera
znb:__ZN32SerializationCommandQueueBuilder3AddERK20SerializationCommand
qG:_tlsf_create
j_a:__ZN14SafeBinaryRead21TransferSTLStyleArrayINSt3__26vectorIN15ResourceManager10DependencyE13stl_allocatorIS4_L18MemLabelIdentifier52ELi16EEEEEEvRT_17TransferMetaFlags
Smb:__ZN13MonoBehaviour23VirtualRedirectTransferER18StreamedBinaryReadILb0EE
X2:__ZN9ShaderLab20SerializedSubProgramC2ERKS0_
HPc:_FileLoadException__ctor_m3879680456
YNg:__ZNK10__cxxabiv121__vmi_class_type_info27has_unambiguous_public_baseEPNS_19__dynamic_cast_infoEPvi
YWc:_MulticastDelegate_CombineImpl_m2857239134
Axe:_Version_op_Inequality_m1696193441
Ioc:_Marshal_ReadByte_m1960935664
GPa:__ZN15QualitySettings23VirtualRedirectTransferER19StreamedBinaryWriteILb0EE
Jzb:__Z20RenderFullScreenQuadR9GfxDeviceRK6Camera17ShaderChannelMaskRK5RectTIfEf21MonoOrStereoscopicEye
AAc:_ArrayListWrapper_CopyTo_m3756520478
onc:_ResourceInfo_t2872965302_marshal_pinvoke
WQb:__ZN8Material8GetFloatEN9ShaderLab16FastPropertyNameE
Df:_glGetActiveUniform
dBe:_Array_InternalArray__IndexOf_TisSlot_t3975888750_m4250446283_gshared
Kf:_emscripten_glGetObjectParameterivARB
K0e:_CharacterClass_AddCharacter_m2370152363
vS:__ZN15SerializeTraitsI10ColorRGBAfE8TransferI14SafeBinaryReadEEvRS0_RT_
UW:__ZN22BuiltinResourceManager13StaticDestroyEPv
eW:__ZN10GameObject17GetComponentIndexEPN5Unity9ComponentE
kRa:__ZN14SafeBinaryRead21TransferSTLStyleArrayI13dynamic_arrayI7SubMeshLj4EEEEvRT_17TransferMetaFlags
TEe:_Array_InternalArray__set_Item_TisILTokenInfo_t2325775114_m309595583_gshared
uv:__ZN29AudioEffectInternalDefinition9CreateDSPEPN4FMOD6SystemEPvPfP23UnityAudioAmbisonicDataPP25UnityAudioSpatializerData
apd:_SimpleCollator_ClearBuffer_m2975394169
yIe:_TlsStream_ReadInt24_m3096782201
XIb:__ZN35RegisterRuntimeInitializeAndCleanup22ExecuteInitializationsEv
kJd:_TripleDESCryptoServiceProvider_CreateEncryptor_m450924958
e2e:_UriParser_GetParser_m544052729
sUe:_Collection_1_set_Item_m3051224697_gshared
i:DYNAMICTOP_PTR
Dgc:_MethodBuilder_fixup_m1765890582
emd:_ObjectReader_ReadSimpleArray_m428957657
IYa:__ZN13BuildSettings8TransferI18StreamedBinaryReadILb0EEEEvRT_
XUc:_MissingFieldException__ctor_m4282575076
bWd:_Decimal_Equals_m2592017260
qed:_ConfigHandler_OnEndParsing_m3764034673
ted:_RemotingConfiguration_RegisterTypes_m2378540395
Q9d:_InternalEnumerator_1_System_Collections_IEnumerator_get_Current_m767948013_gshared
x4e:_DelegatePInvokeWrapper_CSSMeasureFunc_t1554030124
k3e:_UnityAction_Invoke_m893829196
uva:__ZN14AsyncOperationD0Ev
Jea:__Z29TextureIdMapGLES_QueryOrAlloc9TextureID
oXf:__ZL11decimalLog2P19il2cpp_decimal_repr
s_a:__ZN15ResourceManager10Dependency8TransferI14SafeBinaryReadEEvRT_
mCg:_GC_extend_size_map
GKc:_NumberFormatter_RoundDecimal_m2957290908
Yv:__ZN4FMOD6System9setDriverEi
TH:__ZNK9Transform11GetRotationEv
dw:__ZN12AudioManager15DidReloadDomainEv
yCe:_Array_InternalArray__ICollection_Add_TisSingle_t1397266774_m1873979703_gshared
Ndb:__Z18Transfer_BlittableI24GenerateTypeTreeTransferLb0EyEvRK29SerializationCommandArgumentsR31RuntimeSerializationCommandInfo
VSc:_Math_Max_m1873195862
PJa:__ZN8Material14CreateMaterialER6ShaderN6Object9HideFlagsEb
Cre:_TimeSpan_get_Minutes_m4278980001_AdjustorThunk
HQ:__Z25GetBuiltinResourceManagerv
ztg:__ZN6il2cpp2gc8GCHandle15GetTargetHandleEP12Il2CppObjectii
tLc:_Int32_System_IConvertible_ToByte_m3832391412
ah:_llvm_trap
BV:__ZNSt3__27__sort5IRNS_6__lessIN12_GLOBAL__N_114ParamNameIndexES3_EEPS3_EEjT0_S7_S7_S7_S7_T_
NKe:_X509Certificate_VerifySignature_m3988463526
JCg:_get_index
TIc:_GuidParser_AtEnd_m3409982497
Lsd:_KeyBuilder_Key_m876696100
uCa:__Z26scripting_method_get_class18ScriptingMethodPtr
ccg:__ZN15dense_hashtableINSt3__24pairIK10KeyWrapperINS1_IPK14Il2CppAssemblyP11Il2CppClassEEEjEES9_17ReflectionMapHashIS8_EN14dense_hash_mapIS9_jSD_NS9_14EqualsComparerINS0_8equal_toIS8_EEEENS0_9allocatorISB_EEE9SelectKeyESI_SK_EC2ERKSN_j
$6f:__ZN6il2cpp2vm21ThreadPoolCompartment12DetachThreadEP12Il2CppThread
g8c:_SByte_System_IConvertible_ToInt16_m885121451_AdjustorThunk
cVd:_Decimal_stripStyles_m1823381019
Z9:__ZN13GfxDeviceGLES30SetBackBufferColorDepthSurfaceEP17RenderSurfaceBaseS1_
USb:__ZN16StreamedResource8TransferI18StreamedBinaryReadILb0EEEEvRT_
x1:__ZN15dense_hashtableINSt3__24pairIKiN4core17string_with_labelILi1EEEEEi18SInt32HashFunctionN14dense_hash_mapIiS5_S7_NS0_8equal_toIiEE13stl_allocatorIS6_L18MemLabelIdentifier1ELi16EEE9SelectKeyESA_SD_E12resize_deltaEjj
WFb:__ZNK20OcclusionCullingData22GetStaticRendererCountEv
N1b:__GLOBAL__sub_I_runtime_particlesystem_modules_5_cpp
gXg:_emscripten_glDisableVertexAttribArray__wrapper
bWc:_MonoType_GetAttributeFlagsImpl_m167182975
_$c:_EncryptedData_get_EncryptedContent_m3205649670
IVa:__ZN12MeshRenderer18CalculateLocalAABBER4AABBRKS_RK4Mesh
jF:__ZN21UnityDefaultAllocatorI17LowLevelAllocatorE8AllocateEji
Gqb:__ZN10UnityScene10ClearRootsEv
p4a:__ZN12HandlerChain10AtomicMoveER13FileEntryDataS1_
nqa:__ZN9GfxDevice17HasGPUFencePassedEPv
nZ:__ZZN15DirectorManager15InitializeClassEvEN48PreLateUpdateDirectorDeferredEvaluateRegistrator7ForwardEv
M2b:__ZN20SpeedTreeWindManager6UpdateEf
ihf:__Z68RuntimeInvoker_Int64_t3736567304_IntPtr_t_MonoIOErrorU26_t1548853198PFvvEPK10MethodInfoPvPS4_
dVa:__ZN14CompressedMesh8TransferI19StreamedBinaryWriteILb0EEEEvRT_
RDe:_Array_InternalArray__Insert_TisDouble_t594665363_m675699942_gshared
GXe:_UnityAction_1_Invoke_m3535252839_gshared
HAg:__ZNK6il2cpp5utils13VmStringUtils21CaseSensitiveComparerclERKNSt3__212basic_stringIcNS3_11char_traitsIcEENS3_9allocatorIcEEEEPKc
OEa:__ZN24GenerateTypeTreeTransfer8TransferI21PlatformShaderDefinesEEvRT_PKc17TransferMetaFlags
a_a:__ZNK15ResourceManager22GetTypeVirtualInternalEv
qrg:__ZN6il2cpp2vmL36AddNestedTypesToNametoClassHashTableEPK11Il2CppImagePK20Il2CppTypeDefinition
w7e:_PlayerConnection_MessageCallbackInternal_m1914517467
K3e:_AttributeHelperEngine__cctor_m1900959362
yzd:_X509SubjectKeyIdentifierExtension_ToString_m12089275
Vwe:_UnhandledExceptionEventArgs__ctor_m224348470
qLb:__ZL16MouseMoveHandleriPK20EmscriptenMouseEventPv
XAe:_Array_InternalArray__IndexOf_TisByte_t1134296376_m929524687_gshared
kzb:__ZN11HaloManager17RenderGeometryJobEP25DynamicVBOGeometryJobDataj
nZd:_Enum_System_IConvertible_ToDateTime_m3823814707
sXg:_emscripten_glBlendEquation__wrapper
wlg:__ZN15dense_hashtableINSt3__24pairIK10KeyWrapperIP11Il2CppClassES4_EES5_N6il2cpp8metadata16SZArrayClassHashEN14dense_hash_mapIS5_S4_SA_NS5_14EqualsComparerINS9_19SZArrayClassCompareEEENS0_9allocatorIS7_EEE9SelectKeyESE_SG_E13set_empty_keyERKS7_
RMg:__ZNSt3__212basic_stringIcNS_11char_traitsIcEENS_9allocatorIcEEE6__initEPKcj
hj:_emscripten_set_fullscreenchange_callback
d_e:_PatternCompiler_NewLink_m3699449496
vE:__ZN11UnityEngine15CloudWebService14DataDispatcher22ResetNetworkRetryIndexEv
mj:_emscripten_glDrawArrays
Dtb:__ZZ23InitPlayerLoopCallbacksvEN43EarlyUpdateExecuteMainThreadJobsRegistrator7ForwardEv
YD:__ZN11UnityEngine15CloudWebService19SessionEventManagerC2Ev
Dyc:_Char_System_IConvertible_ToSingle_m2690985411_AdjustorThunk
Qvd:_DictionaryNodeEnumerator_FailFast_m2494733641
cS:__ZN14GfxDoubleCacheIyP17VertexDeclaration14GfxGenericHashIyENSt3__28equal_toIyEEN31GfxDoubleCacheConcurrencyPolicy11LocklessGetE42GfxDoubleCacheDefaultEmptyDeletedGeneratorIyEE3GetI15VertDeclCreatorEERKS1_RKyT_
G9b:__ZN13RuntimeStaticI14dynamic_bitsetLb0EE16StaticInitializeEPv
W$:__ZNSt3__222__merge_move_constructIRNS_4lessIN4core12basic_stringIcNS2_20StringStorageDefaultIcEEEEEENS_11__wrap_iterIPS6_EESB_EEvT0_SC_T1_SD_PNS_15iterator_traitsISC_E10value_typeET_
cVb:__Z41Register_UnityEngine_Camera_get_eventMaskv
$y:__ZL19CleanupModule_Audiov
GFd:_IntervalCollection_CopyTo_m2976848759
X9f:__ZN6il2cpp2os4File10DeleteFileERKNSt3__212basic_stringIcNS2_11char_traitsIcEENS2_9allocatorIcEEEEPi
Ama:__ZN18GlslGpuProgramGLES25LoadFromBinaryShaderCacheERjRKN4core12basic_stringIcNS1_20StringStorageDefaultIcEEEER17ShaderChannelMaskPKc
Rab:__Z29Transfer_Blittable_ArrayFieldI14SafeBinaryReadiEvRT_R9ArrayInfoRK23StaticTransferFieldInfo
R7f:__ZN6il2cpp6icalls8mscorlib6System8MonoType8GetFieldEP20Il2CppReflectionTypeP12Il2CppStringi
W3f:__ZN15dense_hashtableINSt3__24pairIK10KeyWrapperIN6il2cpp5utils13dynamic_arrayIPK10Il2CppTypeLj4EEEEPFvvEEESA_NS3_8metadata19Il2CppSignatureHashEN14dense_hash_mapISA_SD_SG_NSA_14EqualsComparerINSF_22Il2CppSignatureCompareEEENS0_9allocatorISE_EEE9SelectKeyESK_SM_E5clearEv
HHd:_SHA256Managed_ProcessBlock_m2297835517
ZTg:_emscripten_glVertexAttrib3fv__wrapper
z4e:_CSSMeasureFunc_Invoke_m3910201085
tze:_Array_InternalArray__ICollection_Remove_TisOrderBlock_t1585977831_m1449044465_gshared
KTg:_emscripten_glGetIntegerv__wrapper
vbc:_AssemblyName__ctor_m1753467291
SUa:__ZN18StreamedBinaryReadILb0EE21TransferSTLStyleArrayI13dynamic_arrayI10Matrix4x4fLj16EEEEvRT_17TransferMetaFlags
zEg:_GC_generic_malloc
daa:__ZN13GfxDeviceGLES32CreateDepthRenderSurfacePlatformEP17RenderSurfaceBase17DepthBufferFormat
eo:__ZN14SafeBinaryRead21TransferSTLStyleArrayI13dynamic_arrayIiLj4EEEEvRT_17TransferMetaFlags
PIb:__ZNK18ScreenManagerWebGL13GetShowCursorEv
qAc:_ArrayListWrapper_Clear_m2625302714
JXg:_emscripten_glIsTexture__wrapper
n1c:_CipherSuiteCollection_System_Collections_IEnumerable_GetEnumerator_m3240848888
mOg:_llvm_bswap_i32
GIc:_Convert_ToUInt64_m1627266664
B9:__ZN9GfxDevice25ReleaseAsyncCommandHeaderEPN21GfxDeviceAsyncCommand3ArgE
zLe:_X509Crl_Parse_m3164013387
Zdb:__ZL22Transfer_ManagedObjectI24GenerateTypeTreeTransferLb0EEvRK29SerializationCommandArgumentsR31RuntimeSerializationCommandInfo
Tmb:__ZN13MonoBehaviour23VirtualRedirectTransferER17RemapPPtrTransfer
Npa:__ZN21UniformBufferTFMethod20IsBoneCountSupportedEi
lyg:__ZN6il2cpp6icalls8mscorlib6System11Environment11get_NewLineEv
oZd:_Enum_System_IConvertible_ToDecimal_m3435237785
Pmc:_ResourceReader_CreateResourceInfo_m1818330740
E2c:_ClientSessionInfo_Dispose_m3253728296
LJa:__ZN6Shader27MarkShaderStateNotSupportedEPKS_
opa:__ZN25TransformFeedbackSkinning8SkinMeshERK18VertexStreamSourceP9GfxBufferP17GPUSkinPoseBufferS4_ii17ShaderChannelMaskb
Rqg:__ZN15dense_hashtableINSt3__24pairIK10KeyWrapperIP14Il2CppIUnknownEjEES5_N6il2cpp5utils11PointerHashIS3_EEN14dense_hash_mapIS5_jSB_NS5_14EqualsComparerINS0_8equal_toIS4_EEEENS0_9allocatorIS7_EEE9SelectKeyESG_SI_E12resize_deltaEjj
Fmc:_ResolveEventArgs__ctor_m1455935166
dte:_Type_Equals_m1673304139
uTc:_SynchronizedReader_Read_m1388613247
qgb:__Z22TransferField_NonArrayI19StreamedBinaryWriteILb0EE27Converter_SimpleNativeClassI8GUIStyleEEvRK23StaticTransferFieldInfoR31RuntimeSerializationCommandInfoRT0_
j1b:__ZN8JSONRead8TransferIN4math12int3_storageEEEvRT_PKc17TransferMetaFlagsb
yub:__ZN27IntermediateRendererManager29ClearAllIntermediateRenderersEv
Ao:__Z17CalculateGlobalSM23TransformAccessReadOnlyRKN4math7_float4E
PA:__ZN23CloudWebServicesManager23VirtualRedirectTransferER18StreamedBinaryReadILb0EE
nCc:_CollectionBase_System_Collections_IList_Contains_m2994901969
ml:_emscripten_glLoadIdentity
jJb:__ZNSt3__26vectorINS_4pairIN4core12basic_stringIcNS2_20StringStorageDefaultIcEEEEPK17MessageIdentifierEENS_9allocatorISA_EEE26__swap_out_circular_bufferERNS_14__split_bufferISA_RSC_EEPSA_
hHc:_Convert_ToInt16_m2896657713
qEb:__Z29CullShadowCastersWithoutUmbraR9IndexListRK17CullingParametersPK4AABBjj
C7:__ZN6Shader16GetDefaultOrNullEv
$n:__ZN4AABB8TransferI14SafeBinaryReadEEvRT_
sT:__GLOBAL__sub_I_runtime_utilities_4_cpp
RVa:__ZN12MeshRenderer23VirtualRedirectTransferER19StreamedBinaryWriteILb0EE
lPa:__ZN18StreamedBinaryReadILb0EE21TransferSTLStyleArrayI13dynamic_arrayI12LightmapDataLj4EEEEvRT_17TransferMetaFlags
cxa:__ZNK17ArchiveFileSystem9EnumerateEPKcP19dynamic_block_arrayI13FileEntryInfoLj32EEbPPv19FileEnumerationFlag
w0f:__ZN6il2cpp2vm5Class19GetArrayElementSizeEPK11Il2CppClass
Gud:_ContentInfo_get_ASN1_m1776225219
YB:__ZN9JSONWrite8TransferIN4core12basic_stringIcNS1_20StringStorageDefaultIcEEEEEEvRT_PKc17TransferMetaFlags
bIc:_Convert_ToSingle_m2533452644
_Mg:__ZNSt3__212basic_stringIcNS_11char_traitsIcEENS_9allocatorIcEEE6resizeEjc
$Ya:__ZN14PlayerSettings16CheckConsistencyEv
Yx:__ZN11AudioModule30GetOrCreateDSPFromCustomFilterEP17AudioCustomFilter
ZCa:__ZN19AtomicPageAllocatorD2Ev
Em:FUNCTION_TABLE_viiiiiiiiiiiiii
cqg:__ZN6il2cpp6icalls8mscorlib6System13GlobalizationL20culture_lcid_locatorEPKvS5_
nJd:_X509Certificate__ctor_m1413707489
jMa:__ZNK12CubemapArray16ExtractImageImplEP14ImageReferenceNS0_8BlitModeEbi
mRg:_glTexStorage3D__wrapper
VVe:_ReadOnlyCollection_1_IndexOf_m1305514714_gshared
lZa:__ZN10VRSettings8TransferI14SafeBinaryReadEEvRT_
Cte:_Type_IsMarshalByRefImpl_m914778231
cDc:_Hashtable__ctor_m2302711321
n4d:_InternalEnumerator_1_get_Current_m2100201398_gshared
KPg:dynCall_viiiiiif
S8b:__ZN20UnityWebRequestProtoI24UnityWebRequestTransport16AtomicRefCounter14RedirectHelper14ResponseHelper15DownloadHandler13UploadHandler12HeaderHelper14AsyncOperationE8FinalizeEv
fP:__ZN22PerThreadPageAllocator14AcquireNewPageEj
ew:__ZN24AudioScriptBufferManager15DidReloadDomainEv
HOd:_String_ToString_m3872792296
ddb:__Z18Transfer_BlittableI24GenerateTypeTreeTransferLb1E9BoundsIntEvRK29SerializationCommandArgumentsR31RuntimeSerializationCommandInfo
APc:_FileStream_GetSecureFileName_m449783930
xAb:__ZN6Camera13ClearNoSkyboxEb
lUc:_UnexceptionalStreamWriter_Flush_m82278468
H9d:_InternalEnumerator_1_get_Current_m3911557813_gshared
j3f:__ZNK15dense_hashtableI10KeyWrapperIPK17Il2CppGenericInstES4_N6il2cpp8metadata21Il2CppGenericInstHashEN14dense_hash_setIS4_S7_NS4_14EqualsComparerINS6_24Il2CppGenericInstCompareEEENSt3__29allocatorIS4_EEE8IdentityESB_SE_E12test_deletedEj
pBa:__ZN19StreamedBinaryWriteILb0EE21TransferSTLStyleArrayI13dynamic_arrayI17SortingLayerEntryLj4EEEEvRT_17TransferMetaFlags
KZc:_ASN1Convert_FromOid_m3844102704
Mid:_RemotingSurrogate_SetObjectData_m2713731796
lQd:_DecoderReplacementFallbackBuffer_Reset_m3943028589
Ona:__ZN18GfxFramebufferGLES10InvalidateEv
Mga:__ZN4crnd11crnd_deleteINS_13prefix_coding14decoder_tablesEEEvPT_
dpe:_CompressedStack_CreateCopy_m2591279216
SGd:_RSAPKCS1KeyExchangeFormatter_CreateKeyExchange_m1611814432
OU:__ZN10MemoryPoolD2Ev
szd:_AsnEncodedData_KeyUsageExtension_m1792651780
Hvg:__ZN6il2cpp2os5posix15PosixWaitObjectD2Ev
fwb:__ZNK25CameraStackRenderingState28GetDstTextureForImageFiltersEv
KLg:___mmap
WSd:_DateTime_CoreParse_m428043272
CG:__ZL18InternalLogConsolePKcz
KKg:_lseek
l7d:_InternalEnumerator_1_get_Current_m685192625_gshared
fUc:_UnexceptionalStreamReader_Read_m16956299
Zmc:_ResourceReader_ReadValueVer1_m183253382
$K:__Z37scripting_method_get_nth_argumenttype18ScriptingMethodPtri
hx:__ZN11AudioSource16UpdatePauseStateEv
oY:__ZL52StaticUnregisterSceneLoadedCallback_LightmapSettingsPv
yIg:__ZN6il2cpp5utils25NativeDelegateMethodCache17AddNativeDelegateEPFvvEPK10MethodInfo
Izb:__ZN27DeviceViewProjMatricesStateD2Ev
E9e:_SendMouseEvents__cctor_m2378365934
qVe:_ReadOnlyCollection_1_System_Collections_IList_set_Item_m3582274843_gshared
Z_:__ZL39CreateRegisteredMessageIdentifiersArrayPv
Qcb:__Z18Transfer_BlittableI24GenerateTypeTreeTransferLb0E8Vector3fEvRK29SerializationCommandArgumentsR31RuntimeSerializationCommandInfo
_tf:__Z86RuntimeInvoker_Boolean_t97287965_DateTimeOffset_t3229287507_DateTimeOffset_t3229287507PFvvEPK10MethodInfoPvPS4_
Lod:_SimpleCollator_FilterExtender_m72900315
tud:_SymmetricTransform_CheckInput_m1829858759
L_a:__ZN19StreamedBinaryWriteILb0EE21TransferSTLStyleArrayINSt3__26vectorIN15ResourceManager10DependencyE13stl_allocatorIS5_L18MemLabelIdentifier52ELi16EEEEEEvRT_17TransferMetaFlags
acc:_Binder_FindMostDerivedMatch_m239579024
BRd:_DateTime_System_IConvertible_ToSingle_m2193708681_AdjustorThunk
VBc:_BitArrayEnumerator_MoveNext_m3806676766
Kha:__ZN6prcoreL10inner_flipILj2EEEvPhS1_j
MSa:__ZNK14Texture2DArray16ExtractImageImplEP14ImageReferenceNS0_8BlitModeEbi
Zpg:__ZL23get_current_locale_namev
yZb:__ZN9JSONWrite8TransferIbEEvRT_PKc17TransferMetaFlags
jua:__ZN12TLSAllocatorI14StackAllocatorED0Ev
ZXa:__ZN11TimeManager16CheckConsistencyEv
dxb:__ZN21GfxDeviceAsyncCommand10ArgScratch15ThreadedCleanupEv
PSb:__Z14DoubleToStringd
pPd:_StringComparer_GetHashCode_m2080455020
pcb:__ZN12NativeBufferI27Converter_UnityEngineObjectE15SetupForWritingER9ArrayInfo
EQe:_List_1_CheckCollection_m2118769249_gshared
Id:_glTexImage3D
Yy:__Z20RegisterModule_Audiov
VOc:_Path_IsPathRooted_m3515805419
yEe:_Array_InternalArray__set_Item_TisChar_t3634460470_m741842250_gshared
fIe:_TlsServerSettings_set_RsaParameters_m853026166
eKa:__ZNSt3__26vectorINS_4pairI11ShaderTagIDS2_EENS_9allocatorIS3_EEE6insertENS_11__wrap_iterIPKS3_EERS8_
Lle:_Encoding_GetByteCount_m1264711659
Xbd:_RC2_Create_m2052783340
xte:_Type_GetProperty_m2258969843
PGc:_Convert_ToDouble_m217737046
aUb:__ZL34GetComponentsImplementationRecurseILb1ELi0ELi1EEbR10GameObjectbRK17CompareParametersRK39GetComponentsImplementation_ReturnValue
IYd:_Double_Equals_m1674752021
TEc:_SortedList_Clone_m928094797
JZa:__ZN10VRSettings8TransferI18StreamedBinaryReadILb0EEEEvRT_
fFa:__ZN17MeshRenderingData7ReleaseEv
z4a:__ZN22LocalFileSystemHandler4NameEv
g4c:_TlsClientFinished_ProcessAsSsl3_m3094597606
a4e:_Camera_get_allCamerasCount_m528453758
w7f:__ZN6il2cpp2vm10ThreadPool5QueueEP14Il2CppDelegatePPvS3_P12Il2CppObject
wgb:__Z19TransferField_ArrayI19StreamedBinaryWriteILb0EE27Converter_SimpleNativeClassI8GradientEEvRK23StaticTransferFieldInfoR31RuntimeSerializationCommandInfoRT0_
Oxd:_IPv6Address__ctor_m2700673633
w$b:__Z18Transfer_BlittableI8JSONReadLb0E12PropertyNameEvRK29SerializationCommandArgumentsR31RuntimeSerializationCommandInfo
Ytc:_Array_CreateInstance_m2696293787
vne:_UnicodeEncoding__ctor_m1074918879
JRa:__ZN7SubMesh8TransferI18StreamedBinaryReadILb0EEEEvRT_
ohc:_OpCode_Equals_m1376200488_AdjustorThunk
ve:_emscripten_glIsEnabled
yib:__ZN18StreamedBinaryReadILb1EE21TransferSTLStyleArrayI13dynamic_arrayIdLj8EEEEvRT_17TransferMetaFlags
qJ:__Z29scripting_class_instance_size17ScriptingClassPtr
T0b:__Z29Transfer_Blittable_ArrayFieldI8JSONRead5RectTIiEEvRT_R9ArrayInfoRK23StaticTransferFieldInfo
Ztf:__Z68RuntimeInvoker_Boolean_t97287965_SByte_t1669577662_SByte_t1669577662PFvvEPK10MethodInfoPvPS4_
yE:__ZN11UnityEngine15CloudWebService19SessionEventManager26ProcessEventQueueJobStaticEPv
R9e:_StackTraceUtility_ExtractStringFromExceptionInternal_m2686726792
eXa:__ZL19SpriteMeshExtractorPv17ShaderChannelMaskiR11MeshBuffersR16DrawBuffersRangeRiS5_
SE:__ZN11UnityEngine15CloudWebService19SessionEventManager37OnTimerExpiredPerformArchiveJobStaticEPv
qYb:__Z18Transfer_BlittableI9JSONWriteLb1E9BoundsIntEvRK29SerializationCommandArgumentsR31RuntimeSerializationCommandInfo
uod:_MSCompatUnicodeTable_FillCJKCore_m2347268515
b1e:_Group_GetWidth_m3299755715
WWd:_Decimal_op_Implicit_m1920400487
eHa:__ZN10builtintex15GetWhiteTextureEv
Cid:_MonoMethodMessage_get_TypeName_m3758247133
ODc:_Enumerator_get_Entry_m2184304359
MSd:_DateTime_FromBinary_m2489276715
H_:__Z29GetOcclusionPortalManagerListv
dXf:__ZL10rescale128PyS_Piiiii
ns:__ZN9AudioClip7WWWSeekEPvjS0_
syf:__ZL63FixedBufferAttribute_t3759792648_CustomAttributesCacheGeneratorP21CustomAttributesCache
dU:__ZL32StaticInitializeIUnityInterfacesPv
Iwb:__Z13CameraProjectRK8Vector3fRK10Matrix4x4fS4_RK5RectTIiERS_b
E$a:__ZN30RuntimeInitializeOnLoadManager15ClassMethodInfo8TransferI19StreamedBinaryWriteILb0EEEEvRT_
wX:__Z22CreateMutexLockedStackv
Wrb:__ZNSt3__27__sort5IRNS_4lessIN22BuiltinResourceManager8ResourceEEEPS3_EEjT0_S7_S7_S7_S7_T_
yKc:_NumberFormatter_FormatNumber_m1763569482
P5:__ZN9ShaderLab11ShaderStateD2Ev
LOe:_List_1_System_Collections_IList_Add_m1681258361_gshared
dob:__Z23TransferScriptingObjectI24GenerateTypeTreeTransferEvRT_18ScriptingObjectPtr17ScriptingClassPtrPK15MonoScriptCache
h_e:_PatternLinkStack_GetOffset_m3697714525
cgb:__ZL17Transfer_GUIStyleI19StreamedBinaryWriteILb0EELb0EEvRK29SerializationCommandArgumentsR31RuntimeSerializationCommandInfo
BAb:__ZN10TextureRef4InitEP7Textureb
TPc:_MonoIO_GetFileType_m101289143
kha:__Z19ScheduleJobInternalR8JobFencePFvPvES1_11JobPriority
Ewd:_KeysCollection_get_Count_m3943311735
f6d:_InternalEnumerator_1_get_Current_m2832154098_gshared
x6f:__ZNSt3__211__tree_nextIPNS_16__tree_node_baseIPvEEEET_S5_
Ksg:__ZN15dense_hashtableI10KeyWrapperIP18Il2CppGenericClassES3_N6il2cpp8metadata22Il2CppGenericClassHashEN14dense_hash_setIS3_S6_NS3_14EqualsComparerINS5_25Il2CppGenericClassCompareEEENSt3__29allocatorIS3_EEE8IdentityESA_SD_E14squash_deletedEv
jka:__ZN6prcoreL17RemapGenericFloatI17TexFormatRGBAHalf17TexFormatRGBFloatEEvPKNS_9InnerInfoE
Sdf:__Z52RuntimeInvoker_Double_t594665363_Decimal_t2948259380PFvvEPK10MethodInfoPvPS4_
Nae:_InternalEnumerator_1_get_Current_m784835552_gshared
UUg:_pthread_cond_wait__wrapper
m3f:__ZNSt3__26__sortIRN6il2cpp5utils11collections13ArrayValueMapIPK10Il2CppType17Il2CppInteropData26InteropDataToTypeConverterNS1_8metadata14Il2CppTypeLessENSA_26Il2CppTypeEqualityComparerEE12SortComparerEPS8_EEvT0_SH_T_
v1a:__ZN11PreloadDataD2Ev
i8b:__ZN15DownloadHandler14ProcessHeadersERK9HeaderMap
yb:invoke_iifi
syc:_Char_System_IConvertible_ToInt16_m975497224_AdjustorThunk
pXd:_Delegate_CreateDelegate_m995503480
f9f:__ZNK6il2cpp5utils10StringViewIcE5RFindEc
ZDa:__ZN15SharedLightData15UpdateTransformERK9Transform
s$:__ZN18AssetBundleManagerD2Ev
bIg:__ZN6il2cpp2vm9LastError31InitializeLastErrorThreadStaticEv
XSc:_StreamWriter_Dispose_m2818839127
Rv:__ZN4FMOD6System17setSoftwareFormatEi17FMOD_SOUND_FORMATii18FMOD_DSP_RESAMPLER
oZ:__ZZN15DirectorManager15InitializeClassEvEN43PostLateUpdateDirectorLateUpdateRegistrator7ForwardEv
yg:_JS_SystemInfo_GetCurrentCanvasHeight
w3d:_ArrayReadOnlyList_1_IndexOf_m1911574180_gshared
XCd:_X509EnhancedKeyUsageExtension_CopyFrom_m3750050754
WJa:__ZNK8Material22GetTypeVirtualInternalEv
ayg:__ZN6il2cpp2gc16GarbageCollector11GetWeakLinkEPPv
iwg:__GLOBAL__sub_I_Console_cpp
$ja:__ZN6prcoreL17RemapGenericFloatI14TexFormatRHalf17TexFormatRGBAHalfEEvPKNS_9InnerInfoE
gYc:_BigInteger_GetBytes_m1259701831
t9f:__ZN6il2cpp2vm7Runtime11InvokeArrayEPK10MethodInfoPvP11Il2CppArrayPP15Il2CppException
_Od:_String_memcpy_m2826223007
pcd:_RijndaelManaged_CreateDecryptor_m1421727258
jba:__ZN9GfxDevice15BeginFrameStatsEv
fne:_StringBuilder_Replace_m1682610486
dna:__ZN4gles20EnsureTextureCreatedEP7ApiGLESP17RenderSurfaceGLES
sxb:__ZN15ReplacementPass13PrepareSubsetEjRK10RenderNodeifRK17ShaderReplaceData
Qw:__Z32AudioMeasurement_GetTimeConstantff
Dyg:__ZN6il2cpp8metadata11FieldLayout12LayoutFieldsEjjjRKNSt3__26vectorIPK10Il2CppTypeNS2_9allocatorIS6_EEEERNS1_15FieldLayoutDataE
h5a:__ZNK20LocalFileSystemPosix9EnumerateEPKcP19dynamic_block_arrayI13FileEntryInfoLj32EEbPPv19FileEnumerationFlag
kjc:_MethodInfo_MakeGenericMethod_m1996785325
Zed:_Context_get_HasGlobalDynamicSinks_m3672814609
XYe:_Match__ctor_m2464595873
UEb:__ZL27PrepareSceneNodesJobCombineP25ScheduleSceneNodesJobData
cLe:_X509CertificateEnumerator_Reset_m1825523691
f9a:__Z22TransferField_NonArrayI14SafeBinaryRead27Converter_SimpleNativeClassI8GUIStyleEEvRK23StaticTransferFieldInfoR31RuntimeSerializationCommandInfoRT0_
Ghg:__ZN14dense_hash_mapI10KeyWrapperIPK10Il2CppTypeEjN6il2cpp8metadata14Il2CppTypeHashENS4_14EqualsComparerINS6_26Il2CppTypeEqualityComparerEEENSt3__29allocatorINSB_4pairIKS4_jEEEEEC2EjRKS7_RKSA_
T7:__ZN13GfxDeviceGLESD2Ev
b1:__ZNSt3__26vectorIN9ShaderLab26SerializedShaderDependencyENS_9allocatorIS2_EEE6resizeEj
XY:__ZN18AsyncUploadManager13StaticDestroyEPv
w0:__ZN6Shader7SetNameEPKc
iwc:_Convert_ToDouble_m954895424
pIb:__ZN19CustomRenderTexture22HandleBoundaryWrappingERKNS_14UpdateZoneInfoEj
t6f:__ZN6il2cpp2vm13MetadataCache32GenerateCustomAttributeTypeCacheEi
LMd:_Single_Equals_m438106747
kte:_Type_GetTypeCodeInternal_m1968182887
Inc:_RuntimeResourceSet__ctor_m2765575100
W3c:_TlsClientCertificate_ProcessAsSsl3_m3265529850
APd:_ASCIIEncoding_GetChars_m2543669481
Pqd:_BigInteger_IsProbablePrime_m567194283
uie:_Dictionary_2_System_Collections_IDictionary_Remove_m3518952519_gshared
RLd:_SecurityFrame_InitFromRuntimeFrame_m1714852458_AdjustorThunk
Agc:_MethodBuilder_GetCustomAttributes_m731278908
Jkf:__Z51RuntimeInvoker_Single_t1397266774_Double_t594665363PFvvEPK10MethodInfoPvPS4_
Vh:_glClearDepthf
r3a:__ZN19RuntimeSceneManager14GetActiveSceneEv
Xrb:__ZNSt3__218__insertion_sort_3IRNS_4lessIN22BuiltinResourceManager8ResourceEEEPS3_EEvT0_S7_T_
Fmd:_MultiArrayFixupRecord_FixupImpl_m1721674130
S8f:__ZN6il2cpp6icalls8mscorlib6SystemL8IsStaticEPK9EventInfo
dEf:__ZL49_Module_t135161706_CustomAttributesCacheGeneratorP21CustomAttributesCache
gDb:__ZNSt3__27__sort4IR15ReflProbeSorterPP15ReflectionProbeEEjT0_S6_S6_S6_T_
BDa:__ZN16GraphicsSettings10SmartResetEv
Ppf:__Z75RuntimeInvoker_Void_t1185182177_PropertyName_t3749835189_Single_t1397266774PFvvEPK10MethodInfoPvPS4_
NQc:_FileStream_Flush_m948103572
H_f:__ZN15dense_hashtableINSt3__24pairIK10KeyWrapperIPK22Il2CppGenericParameterEP11Il2CppClassEES6_N6il2cpp5utils11PointerHashIS4_EEN14dense_hash_mapIS6_S9_SE_NS6_14EqualsComparerINS0_8equal_toIS5_EEEENS0_9allocatorISA_EEE9SelectKeyESJ_SL_E9copy_fromERKSO_j
Srd:_ASN1Convert_ToInt32_m254930636
UZa:__ZN26PlayerSettingsSplashScreen16CheckConsistencyEv
oGa:__ZN20SphericalHarmonicsL28TransferI19StreamedBinaryWriteILb0EEEEvRT_
Dwe:_UInt64_ToString_m1529093114
COb:__ZNK28RectTransformPropertyBinding9BindValueER6ObjectRKN11UnityEngine9Animation14GenericBindingERNS3_10BoundCurveE
OZe:_PatternCompiler_EmitBalanceStart_m3310909460
L6e:_Input_GetMouseButtonDown_m2081676745
oJc:_Int16_System_IConvertible_ToDouble_m1661805412_AdjustorThunk
pVa:__ZN4Mesh14UploadMeshDataEb
zPb:__ZN14RenderSettings12CleanupClassEv
Gx:__ZN21AudioScriptingClasses26InvokeOnAudioManagerUpdateEP21ScriptingExceptionPtr
mha:__ZN18AsyncUploadManager15DoDeCruncherJobEP26FileAssetUploadInstruction
Waa:__ZN9GfxDevice15ImmediateNormalEfff
X9e:_Enumerator__ctor_m1351041375
jpe:_CompressedStack_IsEmpty_m1305135551
cTa:__ZN9Texture3D23VirtualRedirectTransferER14SafeBinaryRead
Dgf:__Z85RuntimeInvoker_Void_t1185182177_Int32_t2950945753_SByte_t1669577662_SByte_t1669577662PFvvEPK10MethodInfoPvPS4_
WKe:_X509CertificateCollection_Contains_m743657353
cCe:_Array_InternalArray__ICollection_Add_TisSlot_t384495010_m3656484468_gshared
eOa:__ZN9Texture2D13UploadTextureEi
Yla:__ZN7ApiGLES9MapBufferEjN2gl12BufferTargetEllj
Sv:__ZN4FMOD6System19setSoftwareChannelsEi
oca:__ZN9GfxDevice19SetSinglePassStereoE16SinglePassStereo
QTg:_emscripten_glGenBuffers__wrapper
lOg:_bitshift64Lshr
VIg:__ZN6il2cpp8metadata19Il2CppSignatureHash4HashERKNS_5utils13dynamic_arrayIPK10Il2CppTypeLj4EEE
hDc:_Hashtable_System_Collections_IEnumerable_GetEnumerator_m2751657639
vhd:_HeaderHandler_Invoke_m3513051789
Sef:__Z144RuntimeInvoker_RuntimeObject_RuntimeObject_Int32_t2950945753_RuntimeObject_RuntimeObject_RuntimeObject_RuntimeObject_RuntimeObject_RuntimeObjectPFvvEPK10MethodInfoPvPS4_
Wse:_Type_get_IsPointer_m4067542339
Q3e:_Component__ctor_m1928064382
zPg:dynCall_viiiii
KEc:_SortedList_PutImpl_m3408406199
o2c:_Context_get_Protocol_m1078422015
aVb:__Z44Register_UnityEngine_Camera_get_farClipPlanev
up:__Z25InverseTransformDirection23TransformAccessReadOnlyRKN4math7_float3Eb
g0:__ZN13RuntimeStaticINSt3__28multimapIj25DeferredSkinningOperationNS0_4lessIjEENS0_9allocatorINS0_4pairIKjS2_EEEEEELb0EE13StaticDestroyEPv
XYa:__ZNK17IAnimationBinding30CurveAttributeToSerializedPathERKN11UnityEngine9Animation10BoundCurveE
wug:__ZN6il2cpp2gc16GarbageCollector14GetOrCreateCCWEP12Il2CppObjectRK10Il2CppGuid
msg:__ZN6il2cpp2vm5Image21FromTypeNameParseInfoEPK11Il2CppImageRKNS0_17TypeNameParseInfoEb
zVc:_MonoCustomAttrs_IsDefined_m2996012389
sda:__ZN17BufferManagerGLES13AcquireBufferEjN14DataBufferGLES11BufferUsageEb
SUd:_Decimal__ctor_m3650533794
hJd:_TripleDESTransform_GetStrongKey_m292426577
R6b:__ZN16UnityAdsSettingsD0Ev
Pfa:__ZNK7ApiGLES10DebugLabelEN2gl10ObjectTypeEjPKc
ZFe:_Dictionary_2_Do_CopyTo_TisRuntimeObject_TisRuntimeObject_m976542334_gshared
pPc:_DirectoryNotFoundException__ctor_m4004339866
XNg:__ZNK10__cxxabiv121__vmi_class_type_info16search_below_dstEPNS_19__dynamic_cast_infoEPKvib
T8b:__ZN20UnityWebRequestProtoI24UnityWebRequestTransport16AtomicRefCounter14RedirectHelper14ResponseHelper15DownloadHandler13UploadHandler12HeaderHelper14AsyncOperationE35Task_FinalizeAfterDHCompleteContentEPv
Nld:_ObjectReader_ReadObjectGraph_m1689734232
vjg:_il2cpp_class_has_attribute
zsd:_DSAManaged_get_KeySize_m2738463749
DK:__Z27FindOrCreateMonoScriptCache17ScriptingClassPtr22InitScriptingCacheTypeP6Objecti
Wjb:__Z18Transfer_BlittableI18StreamedBinaryReadILb0EELb1E8Vector3fEvRK29SerializationCommandArgumentsR31RuntimeSerializationCommandInfo
sPg:dynCall_viiiiiiiiii
x0d:_CultureInfo_GetFormat_m732021304
VK:__Z35scripting_method_get_argument_count18ScriptingMethodPtr
fva:__ZN18AssetBundleManager18SortPreloadObjectsER13dynamic_arrayIiLj4EEb
Wjf:__Z46RuntimeInvoker_RuntimeObject_Double_t594665363PFvvEPK10MethodInfoPvPS4_
ple:_EncoderReplacementFallback__ctor_m2980727890
cAc:_ArrayList_Synchronized_m1327684267
bjc:_MethodBase_get_IsPublic_m2180846589
ZPc:_FileStream_get_CanWrite_m1199612770
YEb:__ZL21CullDynamicObjectsJobP14CullingJobDataj
uic:_TypeBuilder_get_IsGenericParameter_m1751799710
aJb:__ZN14ManagerContext17InitializeClassesEv
Gua:__ZN19StreamedBinaryWriteILb0EE21TransferSTLStyleArrayINSt3__26vectorI14ConstantStringNS2_9allocatorIS4_EEEEEEvRT_17TransferMetaFlags
mib:__ZN18StreamedBinaryReadILb1EE21TransferSTLStyleArrayI31ArrayOfManagedObjectsTransfererEEvRT_17TransferMetaFlags
K3b:__ZN11UnityEngine15PlatformWrapper24GetVRTrackedAreaGeometryER13dynamic_arrayI8Vector3fLj4EE
CWc:_MonoType_get_AssemblyQualifiedName_m2662925380
J6e:_GUILayer_INTERNAL_CALL_HitTest_m1069802956
_Xc:_BigInteger_GenerateRandom_m3872771375
kuf:__Z75RuntimeInvoker_RuntimeObject_Single_t1397266774_RuntimeObject_RuntimeObjectPFvvEPK10MethodInfoPvPS4_
Mu:__ZN4FMOD7Channel11getUserDataEPPv
Zsd:_KeyPairPersistence_ProtectMachine_m1313131097
THc:_Convert_ToSByte_m1679390684
Al:_JS_Sound_SetPitch
aqe:_Thread_FreeLocalSlotValues_m1195763560
HLd:_String_IndexOf_m1977622757
ikg:_il2cpp_runtime_invoke_convert_args
y0b:__Z19TransferField_ArrayI8JSONRead27Converter_SimpleNativeClassI10RectOffsetEEvRK23StaticTransferFieldInfoR31RuntimeSerializationCommandInfoRT0_
Zff:__Z114RuntimeInvoker_Int32_t2950945753_RuntimeObject_Int32_t2950945753_Int32_t2950945753_RuntimeObject_Int32_t2950945753PFvvEPK10MethodInfoPvPS4_
xzc:_ArrayList__cctor_m3052737821
jog:__ZN6il2cpp6icalls8mscorlib6System2IO6MonoIO11GetFileStatEP12Il2CppStringPNS3_8FileStatEPi
Jba:__ZN9GfxDevice33InsertCustomMarkerCallbackAndDataEPFviPvEiS0_j
q7b:__ZN11UnityEngine15PlatformWrapper16GenerateRandomIdEv
MBc:_BitArray_Set_m2486900776
fNd:_String__ctor_m229724522
_Bf:__ZL54AssemblyName_t270931938_CustomAttributesCacheGeneratorP21CustomAttributesCache
qIa:__ZNK13RenderTexture37IsBoundMultisampledOnSecondaryTextureEv
ACg:_GC_freehblk
RHe:_X509ExtensionCollection__ctor_m551870633
Igc:_MethodBuilder_MakeGenericMethod_m2175748754
s_e:_QuickSearch_Search_m3063517397
Tie:_Dictionary_2_TryGetValue_m1996088172_gshared
Yc:_glClearColor
OUf:_KeyBuilder_Key_m2503211157
dvc:_AsyncCallback_Invoke_m3156993048
OFb:__ZNK6Camera48AreVRStereoViewMatricesWithinSingleCullToleranceEv
iVg:_glGetRenderbufferParameteriv__wrapper
Aud:_SymmetricTransform_FinalDecrypt_m1677319445
XLc:_Int32_Equals_m3996243976_AdjustorThunk
k4:__ZN24GenerateTypeTreeTransfer8TransferINSt3__26vectorIN9ShaderLab20SerializedSubProgram12UAVParameterENS1_9allocatorIS5_EEEEEEvRT_PKc17TransferMetaFlags
Kb:invoke_iiiiiiiiiiiiiii
Gwg:__ZN6il2cpp2os6Thread33UnregisterCurrentThreadForCleanupEv
LXg:_emscripten_glIsRenderbuffer__wrapper
lPc:_DirectoryInfo__ctor_m1000259829
o$d:_CultureInfo_ConstructInvariant_m3774343375
LPa:__ZN15QualitySettings8TransferI14SafeBinaryReadEEvRT_
iuc:_Array_ClearInternal_m532048538
XQd:_DateTime__ctor_m12900168
fGe:_Array_FindLast_TisRuntimeObject_m1088586648_gshared
G4e:_CullingGroup_t2096318768_marshal_pinvoke_back
xsg:__ZNSt3__26vectorIN6il2cpp2vm5Image20EmbeddedResourceDataENS_9allocatorIS4_EEE21__push_back_slow_pathIS4_EEvOT_
rT:__GLOBAL__sub_I_runtime_utilities_0_cpp
IHg:__ZN6il2cpp2os9FastMutexD2Ev
YI:__ZN14SerializedFile10ReadObjectEx18ObjectCreationModebPPK8TypeTreePbR6Object
z0e:_Expression_GetFixedWidth_m945658
e1e:_Literal_Compile_m2228022079
_rb:__ZN14dynamic_bitset6resizeEjb
Zxe:_Array_InternalArray__ICollection_Contains_TisSlot_t3975888750_m58971838_gshared
uC:__ZN11UnityEngine15CloudWebService10RestClientINS0_23WebRequestRestHeaderMapEE7SetDataEPKhj
Y0f:__ZN14dense_hash_mapI10KeyWrapperIPK11Il2CppClassEPKcN6il2cpp5utils11PointerHashIS1_EENS4_14EqualsComparerINSt3__28equal_toIS3_EEEENSC_9allocatorINSC_4pairIKS4_S6_EEEEE15set_deleted_keyERSI_
m8:__ZN9GfxDevice34SetStencilRefWhenStencilWasSkippedEi
OAd:_X509Certificate2_Reset_m3988214799
S4b:__ZN11UnityEngine7Connect13ConnectConfig20RestoreTimeoutConfigERK13dynamic_arrayIiLj4EEjRS3_
Jb:invoke_fi
MGg:__ZN6il2cpp6icalls8mscorlib6System10Reflection4Emit11TypeBuilder20create_runtime_classEP27Il2CppReflectionTypeBuilderS7_
BG:__ZL21InternalAssertConsolePKcz
Hb:invoke_ff
Ttd:_RSAManaged_add_KeyGenerated_m3688329863
Kee:_Enumerator_get_CurrentKey_m3735262888_gshared
Mad:_HashAlgorithm_TransformFinalBlock_m3005451348
p2d:_Guid_NewGuid_m923091018
Rc:_emscripten_glVertexAttrib3f
Neg:__ZN30dense_hashtable_const_iteratorINSt3__24pairIK10KeyWrapperINS1_IPK11Il2CppImageP11Il2CppClassEEEjEES9_17ReflectionMapHashIS8_EN14dense_hash_mapIS9_jSD_NS9_14EqualsComparerINS0_8equal_toIS8_EEEENS0_9allocatorISB_EEE9SelectKeyESI_SK_EppEv
aHd:_RSAPKCS1SignatureDeformatter_SetKey_m614724234
yne:_UnicodeEncoding_GetByteCount_m3498858619
lze:_Array_InternalArray__ICollection_Remove_TisX509ChainStatus_t133602714_m3635989134_gshared
nRg:_emscripten_glDrawRangeElements__wrapper
vCa:__Z28scripting_class_is_valuetype17ScriptingClassPtr
yLb:__ZNSt3__25dequeI10InputEventNS_9allocatorIS1_EEE19__add_back_capacityEv
epa:__ZN13ComputeShader13SetValueParamERKN9ShaderLab16FastPropertyNameEiPKv
uVa:__ZN14BlendShapeDataD2Ev
kla:__ZL18ProgramUniform3uivPK7ApiGLESjiihPKv
Ccd:_RijndaelTransform_Encrypt128_m1940909042
OVc:_MonoEnumInfo_get_Cache_m752167006
Wka:__ZN5Image8SetImageEii13TextureFormatb
kL:__ZN17MessageIdentifier21GetRegisteredMessagesEv
aF:__Z13RegisterClassI23CloudWebServicesManagerEvv
v7d:_InternalEnumerator_1_get_Current_m3900374024_gshared
IFd:_DelegatePInvokeWrapper_CostDelegate_t1722821004
vBc:_SynchronizedArrayListWrapper_CopyTo_m2886332653
Kvd:_HybridDictionary_Remove_m2295600623
krg:__GLOBAL__sub_I_Image_cpp
bId:_SHA512Managed__ctor_m330347986
gLa:__ZNSt3__27__sort5IRPFbRKNS_4pairIN9ShaderLab16FastPropertyNameEfEES6_EPS4_EEjT0_SB_SB_SB_SB_T_
Cqd:_Kernel_LeftShift_m3302851050
Nyg:__ZN14dense_hash_mapI10KeyWrapperIPK19Il2CppGenericMethodEP10MethodInfoN6il2cpp8metadata23Il2CppGenericMethodHashENS4_14EqualsComparerINS8_26Il2CppGenericMethodCompareEEENSt3__29allocatorINSD_4pairIKS4_S6_EEEEE15set_deleted_keyERSG_
xab:__Z29Transfer_Blittable_ArrayFieldI14SafeBinaryRead4AABBEvRT_R9ArrayInfoRK23StaticTransferFieldInfo
i5c:_RecordProtocol_SendRecord_m515492272
Jdd:_ConfigHandler_ReadProvider_m3620509535
NLa:__ZN18DelayedCallManager8ClearAllEv
vdf:__Z180RuntimeInvoker_RuntimeObject_RuntimeObject_Int32_t2950945753_RuntimeObject_Int32U26_t1369213839_BooleanU26_t4125257963_BooleanU26_t4125257963_Int32U26_t1369213839_SByte_t1669577662PFvvEPK10MethodInfoPvPS4_
MDb:__ZNK25RenderPrePassObjectSorterclERK16RenderObjectDataS2_
ync:_ResourceSet_Dispose_m1823973062
xib:__Z22TransferField_NonArrayI18StreamedBinaryReadILb1EE27Converter_SimpleNativeClassI8GUIStyleEEvRK23StaticTransferFieldInfoR31RuntimeSerializationCommandInfoRT0_
Fd:_Mix_LoadWAV_RW
f$c:_EncryptedPrivateKeyInfo__ctor_m25839594
Ka:invoke_viififiii
XFd:_RIPEMD160Managed_HH_m90236373
xgc:_MethodBuilder_Invoke_m3837446660
utg:__ZN6il2cpp2gcL12alloc_handleEPNS0_10HandleDataEP12Il2CppObjectb
XUg:_emscripten_glGetAttribLocation__wrapper
LYe:_Enumerator_MoveNext_m55255603
bzd:_WebRequest_AddDynamicPrefix_m4246631209
$Db:__Z13InitIndexListR9IndexListj
rCe:_Array_InternalArray__ICollection_Add_TisRefEmitPermissionSet_t484390987_m1720891963_gshared
gM:__ZL16ReadTypeTreeImplILb1EEbR8TypeTreeRK16TypeTreeIteratorRPKhS6_i
pHg:__ZN6il2cpp6icalls8mscorlib6System11Diagnostics10StackTrace9get_traceEP15Il2CppExceptionib
Xd:_glBlendEquationSeparate
Kl:_emscripten_glDeleteVertexArrays
bca:__ZN13GfxDeviceGLES17SetComputeUniformE12ObjectHandleI18ComputeProgram_TagPvER18ComputeShaderParamjPKv
o$e:_Parser_IsNameChar_m698176442
GQe:_List_1_RemoveAt_m3459335427_gshared
_Wg:_emscripten_glValidateProgram__wrapper
dJe:_GeneralNames_ToString_m489778282
ce:_emscripten_glUniform3fv
aGc:_Convert_ToByte_m1442000130
BGd:_RSACryptoServiceProvider_get_KeySize_m2654153358
mpg:__ZN6il2cpp2vm9Exception20GetArgumentExceptionEPKcS3_
L1b:__Z29Transfer_Blittable_ArrayFieldI8JSONReadiEvRT_R9ArrayInfoRK23StaticTransferFieldInfo
vFe:_Array_Resize_TisCustomAttributeTypedArgument_t2723150157_m3021884250_gshared
hVg:_glDrawArrays__wrapper
py:__ZN9AudioClip27IsFormatSupportedByPlatformERKN4core12basic_stringIcNS0_20StringStorageDefaultIcEEEE
AMa:__ZN29SerializeTraitsForStringTypesIN4core12basic_stringIcNS0_20StringStorageDefaultIcEEEEE8TransferI24GenerateTypeTreeTransferEEvRS4_RT_
X3:__ZN9ShaderLab26SerializedShaderDependency8TransferI24GenerateTypeTreeTransferEEvRT_
ZZe:_PatternCompiler_EmitUntil_m3644194775
gtd:_KeyPairPersistence_ToXml_m812591779
jWc:_MonoType_GetFields_internal_m776921855
pue:_UInt16_System_IConvertible_ToInt64_m3635199533
eCa:__ZN12ImageFilters17RemoveImageFilterERK11ImageFilter
zsc:_Hashtable_CalcPrime_m550773117
Kba:__ZN9GfxDevice31InsertCustomBlitCallbackAndDataEPFviPvER33UnityRenderingExtCustomBlitParams
dtb:__Z32AddPathRemapsForBuiltinResourcesRKN4core12basic_stringIcNS_20StringStorageDefaultIcEEEE
MGa:__ZN14RenderSettings23VirtualRedirectTransferER24GenerateTypeTreeTransfer
Pbb:__ZL26Transfer_SimpleNativeClassI17RemapPPtrTransfer17AnimationCurveTplIfELb0EEvRK29SerializationCommandArgumentsR31RuntimeSerializationCommandInfo
Ml:_glDeleteTransformFeedbacks
rWe:_U3CCreateWhereIteratorU3Ec__Iterator1D_1_MoveNext_m612748497_gshared
Ie:_JS_WebRequest_Send
DBg:__ZN6il2cpp2os4Time31GetTicks100NanosecondsMonotonicEv
qxg:__ZNSt3__26__treeINS_12basic_stringIcNS_11char_traitsIcEENS_9allocatorIcEEEENS_4lessIS6_EENS4_IS6_EEE16__construct_nodeIJRKS6_EEENS_10unique_ptrINS_11__tree_nodeIS6_PvEENS_22__tree_node_destructorINS4_ISH_EEEEEEDpOT_
kPc:_MonoIO_GetFileSystemEntries_m37351365
UHc:_Convert_ToSByte_m516918950
D5b:__ZN18UnityConnectClient32OnVrControllerStateChangedStaticEPS_13dynamic_arrayIN4core12basic_stringIcNS2_20StringStorageDefaultIcEEEELj4EE
yNg:__ZNK10__cxxabiv117__class_type_info24process_found_base_classEPNS_19__dynamic_cast_infoEPvi
b9e:_ReapplyDrivenProperties_Invoke_m1151937880
Bcd:_RijndaelTransform_ECB_m670662322
v6f:__ZN6il2cpp2vm13MetadataCache21GetFieldInfoFromIndexEj
bA:__ZN5physx14PxLightCpuTaskD2Ev
Zo:__ZNSt3__26vectorIN4core12basic_stringIcNS1_20StringStorageDefaultIcEEEENS_9allocatorIS5_EEE6assignINS_11__wrap_iterIPS5_EEEENS_9enable_ifIXaasr21__is_forward_iteratorIT_EE5valuesr16is_constructibleIS5_NS_15iterator_traitsISE_E9referenceEEE5valueEvE4typeESE_SE_
Mig:_il2cpp_init
pif:__Z105RuntimeInvoker_RuntimeObject_RuntimeObject_StreamingContext_t3711869237_ISurrogateSelectorU26_t3801502798PFvvEPK10MethodInfoPvPS4_
taa:__ZN13GfxDeviceGLES22UploadTextureSubData2DE9TextureIDPKhiiiiii14GraphicsFormat
b0b:__ZN8JSONRead8TransferIxEEvRT_PKc17TransferMetaFlagsb
x2b:__ZN13SpeedTreeWind7AdvanceEbd
I5d:_InternalEnumerator_1_get_Current_m923139215_AdjustorThunk
X3f:__ZN15dense_hashtableINSt3__24pairIK10KeyWrapperIN6il2cpp5utils13dynamic_arrayIPK10Il2CppTypeLj4EEEEPFvvEEESA_NS3_8metadata19Il2CppSignatureHashEN14dense_hash_mapISA_SD_SG_NSA_14EqualsComparerINSF_22Il2CppSignatureCompareEEENS0_9allocatorISE_EEE9SelectKeyESK_SM_E12expand_arrayEjN21dense_hash_map_traits17integral_constantIbLb0EEE
IAe:_Array_FindLastIndex_TisRuntimeObject_m2929523835_gshared
xDe:_Array_InternalArray__ICollection_CopyTo_TisOrderBlock_t1585977831_m3156935870_gshared
VLb:__ZN10BootConfig4Data12InitFromFileEPPKcjS2_
Tjb:__Z15Transfer_StringI18StreamedBinaryReadILb0EELb0EEvRK29SerializationCommandArgumentsR31RuntimeSerializationCommandInfo
yv:__ZN12SoundManagerC2Ev
QVg:_emscripten_glGetUniformfv__wrapper
Vla:__ZN14DataBufferGLES3MapEjjj
nJc:_Int16_System_IConvertible_ToDouble_m1661805412
lWa:__ZN14SpriteRenderer23VirtualRedirectTransferER19StreamedBinaryWriteILb0EE
cWg:_emscripten_glGetShaderiv__wrapper
TNb:__Z13RegisterClassI9TransformEvv
G1e:_Repetition_Compile_m988726715
UKa:__ZN18UnityPropertySheet11UnityTexEnv8TransferI19StreamedBinaryWriteILb0EEEEvRT_
VH:__ZNK6Camera33CalculateFarPlaneWorldSpaceLengthEv
TEg:_GC_make_descriptor
Leg:__ZNK15dense_hashtableINSt3__24pairIK10KeyWrapperINS1_IPK11Il2CppImageP11Il2CppClassEEEjEES9_17ReflectionMapHashIS8_EN14dense_hash_mapIS9_jSD_NS9_14EqualsComparerINS0_8equal_toIS8_EEEENS0_9allocatorISB_EEE9SelectKeyESI_SK_E5beginEv
fje:_DefaultComparer_Equals_m1163494476_gshared
ML:__ZN20dynamic_block_vectorI14FileIdentifierE5clearEv
DXc:_NumberFormatter_NumberToString_m2529982306
Is:__ZN13AudioListenerD2Ev
BHg:__ZN6il2cpp2os5MutexC2Eb
WJe:_PKCS12__cctor_m3271060407
a_c:_ARC4Managed_CheckInput_m1562172012
FPa:__ZNK15QualitySettings22GetTypeVirtualInternalEv
nT:___cxx_global_var_init_66
CHe:_TlsStream_ReadBytes_m2334803179
ktg:__ZNK15dense_hashtableI10KeyWrapperIP18Il2CppGenericClassES3_N6il2cpp8metadata22Il2CppGenericClassHashEN14dense_hash_setIS3_S6_NS3_14EqualsComparerINS5_25Il2CppGenericClassCompareEEENSt3__29allocatorIS3_EEE8IdentityESA_SD_E23find_position_with_hashERKS3_j
gWb:__GLOBAL__sub_I_runtime_imgui_0_cpp
tQc:_FileStream_EndRead_m3904255625
ypb:__ZL8MainLoopv
Kgd:_CallContextRemotingData_Clone_m14303327
SWf:_AudioConfigurationChangeHandler_Invoke_m1233557945
NXg:_emscripten_glIsShader__wrapper
Asd:_DSAManaged_get_PublicOnly_m3575594967
Mpe:_Mutex_ReleaseMutex_m3169074890
YIa:__ZN7TextureD0Ev
Qs:__ZN13AudioListener23VirtualRedirectTransferER24GenerateTypeTreeTransfer
s4a:__ZNK12HandlerChain9EnumerateEPKcP19dynamic_block_arrayI13FileEntryInfoLj32EEbPPv19FileEnumerationFlag
ZVa:__ZThn32_N12MeshRendererD1Ev
YHa:__ZN13RenderTexture23VirtualRedirectTransferER19StreamedBinaryWriteILb0EE
pAg:__ZN6il2cpp2vm13ComObjectBase17GetMarshalSizeMaxERK10Il2CppGuidPvjS5_jPj
uMg:_truncate
P4:__ZN9ShaderLab27SerializedShaderVectorValue8TransferI18StreamedBinaryReadILb0EEEEvRT_
PG:__ZN8Renderer21RendererBecameVisibleEv
SLg:___stpncpy
YU:__ZN10MemoryPool16StaticInitializeEPv
g$:__ZN11TypeManager21CleanupGlobalInstanceEv
ZZd:_Enum_ToString_m2240012010
N:Math_atan
sbg:__ZNSt3__212basic_stringIcNS_11char_traitsIcEENS_9allocatorIcEEE6__initIPKcEENS_9enable_ifIXsr21__is_forward_iteratorIT_EE5valueEvE4typeESA_SA_
ps:__ZNK10SampleClip11GetResourceEv
ckc:_MonoEvent_get_Name_m3774595291
A8:__ZN9GfxDevice15GetStereoMatrixE21MonoOrStereoscopicEye24BuiltinShaderMatrixParamR10Matrix4x4f
Wxa:__ZN4core12basic_stringIcNS_20StringStorageDefaultIcEEE6resizeEj
P1b:__GLOBAL__sub_I_CmEventProfiler_cpp
Ine:_UnicodeEncoding_GetMaxByteCount_m3053620432
qgd:_ArgInfo__ctor_m1950205784
EWe:_Nullable_1_Equals_m4046255732_AdjustorThunk
Lza:__ZN17GlobalGameManager23VirtualRedirectTransferER24GenerateTypeTreeTransfer
f6b:__ZN19UnityConnectServiceD0Ev
z2b:___cxx_global_var_init_128
vlc:_MonoProperty_get_PropertyType_m4138957578
xDa:__ZNSt3__26vectorIfNS_9allocatorIfEEE8__appendEjRKf
u4b:__ZN11UnityEngine15PlatformWrapper21GetCopyTextureSupportEv
iSd:_DateTime_get_Month_m1566006993_AdjustorThunk
h6c:_SslClientStream__ctor_m3478574780
Xx:__ZN11AudioModule27IsFormatSupportedByPlatformEPKc
NL:__ZN14SerializedFile14SerializedTypeD2Ev
zbd:_MACTripleDES_Setup_m560957914
vRb:__ZZN10MeshFilter15InitializeClassEvEN31FunctorImpl_108kDidAddComponent4CallEPviR11MessageData
u4f:__ZN15dense_hashtableINSt3__24pairIK10KeyWrapperIPK19Il2CppGenericMethodEPK26Il2CppGenericMethodIndicesEES6_N6il2cpp8metadata23Il2CppGenericMethodHashEN14dense_hash_mapIS6_SA_SE_NS6_14EqualsComparerINSD_26Il2CppGenericMethodCompareEEENS0_9allocatorISB_EEE9SelectKeyESI_SK_E6insertERKSB_
UDb:__Z19SetupShadowCullDataRK27ScriptableCullingParametersRK17ShaderReplaceDataPK22SceneCullingParametersf16ShadowProjectionR14ShadowCullData
eua:__ZNK25ThreadsafeLinearAllocator22GetAllocatedMemorySizeEv
wWb:__ZN5Unity9rapidjson13GenericReaderINS0_4UTF8IcEES3_13JSONAllocatorE11ParseObjectILj0ENS0_19GenericStringStreamIS3_EENS0_15GenericDocumentIS3_S4_S4_EEEEvRT0_RT1_
Eu:__ZN4FMOD7Channel11set3DSpreadEf
XHg:__ZN6il2cpp2os6Memory14AlignedReAllocEPvjj
W:Math_fround
xMa:__ZN24GenerateTypeTreeTransfer16TransferTypelessEPjPKc17TransferMetaFlags
mId:_SHA512Managed_processLength_m2162821715
lla:__ZL18ProgramUniform4uivPK7ApiGLESjiihPKv
Kpe:_Mutex_CreateMutex_internal_m3763633491
em:FUNCTION_TABLE_viiiiiiiiiiiiiii
zN:__Z15GetGraphicsCapsv
Pna:__ZN7ApiGLES15BindVertexArrayEN2gl6HandleILNS0_10ObjectTypeE3EEE
_ge:_Dictionary_2_System_Collections_IDictionary_Remove_m316877720_gshared
jBb:__Z20IntersectionAABBAABBRK10MinMaxAABBS1_PS_
h7c:_SslStreamBase_get_SecurityProtocol_m596101988
omf:__Z121RuntimeInvoker_Void_t1185182177_Int32_t2950945753_Int32_t2950945753_Int32_t2950945753_Int32_t2950945753_Int32_t2950945753PFvvEPK10MethodInfoPvPS4_
_Mb:__ZN18BackgroundJobQueue29ScheduleMainThreadJobInternalEPFvPvES0_
Epc:_DeriveBytes_set_Salt_m441577179
DYe:_UnityEvent_3_FindMethod_Impl_m1640458315_gshared
bBf:__ZL61ConstructorBuilder_t2813524108_CustomAttributesCacheGeneratorP21CustomAttributesCache
b7a:__Z18Transfer_BlittableI14SafeBinaryReadLb1EhEvRK29SerializationCommandArgumentsR31RuntimeSerializationCommandInfo
R$:__ZNSt3__224__buffered_inplace_mergeIRNS_4lessIN4core12basic_stringIcNS2_20StringStorageDefaultIcEEEEEENS_11__wrap_iterIPS6_EEEEvT0_SC_SC_T_NS_15iterator_traitsISC_E15difference_typeESG_PNSF_10value_typeE
Cb:invoke_viifff
aW:__Z22DestroyObjectHighLevelP6Objectb
C9c:_KeySizes__ctor_m3113946058
wyb:__Z26BeginRenderQueueExtractionR15RenderNodeQueuePK16RendererCullDataRK13CullingOutputPK12LODDataArray15ExtractionFlagsP18JobBatchDispatcher
Hi:_emscripten_glVertexAttrib3fv
pgd:_LifetimeServices__cctor_m2128864873
Oue:_UInt16_TryParse_m3193697465
Lng:__ZN6il2cpp6icalls8mscorlib6System9Threading6Thread16SetName_internalEP12Il2CppThreadP12Il2CppString
WFd:_RIPEMD160Managed_GG_m3020389474
Gef:__Z92RuntimeInvoker_RuntimeObject_Int32_t2950945753_Int32_t2950945753_RuntimeObject_RuntimeObjectPFvvEPK10MethodInfoPvPS4_
MWd:_Decimal_op_Division_m2407964042
lEa:__ZN18JobBatchDispatcherC2E11JobPriorityi
vWa:__ZThn32_N14SpriteRendererD0Ev
Had:_HashAlgorithm_Create_m644612360
Q7e:_Playable_get_Null_m3556999077
dqd:_BigInteger_TestBit_m1507066813
kba:__ZN9GfxDevice13EndFrameStatsEv
cQb:__Z7Empty2DP9Texture2DPhiiii
VEe:_Array_InternalArray__set_Item_TisRefEmitPermissionSet_t484390987_m3786305619_gshared
Nmg:__ZN6il2cpp6icalls8mscorlib6System7Runtime15InteropServices7Marshal19copy_from_unmanagedEiiP11Il2CppArrayi
Hs:__ZL34StaticDestroyAudioCustomFilterRootPv
v3d:_ArrayReadOnlyList_1_GetEnumerator_m3931906247_gshared
kpa:__ZN19ComputeShaderKernelD2Ev
vMb:__ZN10systeminfo21GetTemporaryCachePathEv
HQb:__ZZN8Renderer15InitializeClassEvEN28FunctorImpl_138kLayerChanged4CallEPviR11MessageData
CBg:__ZN6il2cpp2os4Time29GetTicksMillisecondsMonotonicEv
epe:_CompressedStack_Capture_m3327262890
udb:__Z18Transfer_BlittableI24GenerateTypeTreeTransferLb1E10Matrix4x4fEvRK29SerializationCommandArgumentsR31RuntimeSerializationCommandInfo
Toe:_UTF8Encoding_GetMaxByteCount_m420651053
_Zb:__ZN9JSONWrite8TransferI10Matrix4x4fEEvRT_PKc17TransferMetaFlags
LQe:_List_1_get_Item_m1651423686_gshared
CDa:__ZNK16GraphicsSettings22GetTypeVirtualInternalEv
DZe:_PatternCompiler_EmitCount_m1087322477
hab:__ZN15SerializeTraitsI5RectTIfEE8TransferI14SafeBinaryReadEEvRS1_RT_
tme:_UnicodeEncoding__ctor_m3604373700
Hlf:__Z77RuntimeInvoker_RuntimeObject_DateTime_t3738529785_RuntimeObject_RuntimeObjectPFvvEPK10MethodInfoPvPS4_
cH:__ZThn32_NK8Renderer11GetMaterialEi
KBg:__ZN6il2cpp6icalls8mscorlib6System7Runtime15InteropServices8GCHandle15GetTargetHandleEP12Il2CppObjectii
d4e:_CameraCallback_Invoke_m3308824940
TXa:__ZN9InputAxis8TransferI18StreamedBinaryReadILb0EEEEvRT_
TF:__ZN13MemoryManager12GetAllocatorE10MemLabelId
hYc:_BigInteger_ToString_m3260066955
d8:__ZN9GfxDevice29GetMinimumNodesPerGraphicsJobEv
NUa:__ZN17BlendShapeChannel8TransferI24GenerateTypeTreeTransferEEvRT_
gJe:_KeyUsageExtension_Encode_m2561267096
qoc:_GCHandle__ctor_m2690474163_AdjustorThunk
l_:__ZN15DirectorManager17OnSampleFixedTimeEv
mFb:__ZNK13RendererScene21GetDynamicObjectCountEv
QYd:_Double_Parse_m1135962389
SHe:_X509Extension__ctor_m710637961
YSd:_CultureInfo_get_CurrentCulture_m1632690660
utd:_PKCS1_OS2IP_m65970018
EYc:_ModulusRing_BarrettReduction_m3024442734
m$a:__ZNSt3__26vectorIN30RuntimeInitializeOnLoadManager9ClassInfoE13stl_allocatorIS2_L18MemLabelIdentifier13ELi16EEE8__appendEj
aeb:__ZN24GenerateTypeTreeTransfer32TransferSTLStyleArrayWithElementI23ManagedObjectTransfererEEvRT_17TransferMetaFlags
tyg:__ZN6il2cpp6icalls8mscorlib6System11Environment12get_PlatformEv
txd:_HttpWebRequest__cctor_m1467954389
r1c:_CipherSuiteCollection_System_Collections_IList_Remove_m2463347416
S6e:_DefaultValueAttribute_GetHashCode_m3368187153
gwd:_DictionaryNodeEnumerator_get_Value_m1345533116
OUb:__Z42Register_UnityEngine_Behaviour_get_enabledv
$6c:_SslStreamBase_EndNegotiateHandshake_m1124299797
X4c:_SslStreamBase__ctor_m3009266308
uag:__ZN6il2cpp2vm14TypeNameParser23ParseNestedTypeOptionalERi
Ere:_TimeSpan_get_Seconds_m1883479191_AdjustorThunk
YTe:_Collection_1_System_Collections_IList_IndexOf_m4096172810_gshared
HHg:__ZN6il2cpp2os13FastMutexImplC2Ev
b3b:__ZN22BaseUnityConnectClient14QueueCoreEventERN11UnityEngine15CloudWebService17CloudServiceEventEb
j$a:__ZN30RuntimeInitializeOnLoadManager9ClassInfo8TransferI14SafeBinaryReadEEvRT_
pYc:_BigInteger_op_Equality_m1194739960
ooe:_UTF7Encoding_GetCharCount_m2792854727
GBb:__ZL13RenderCastersiRK8Vector3fS1_RK13ShadowJobDataR17ShaderPassContextRKNSt3__26vectorI16ShadowCasterData13stl_allocatorIS9_L18MemLabelIdentifier2ELi16EEEERKNS8_I20ShadowCasterPartDataSA_ISG_LSB_2ELi16EEEERK15RenderNodeQueuebPKj
Gk:_emscripten_glGetShaderInfoLog
imd:_ObjectReader_RecordFixup_m4125245357
Vk:_glUniform1i
AMb:__ZN6prcoreL11inner_clearILj3EEEvPhjjj
__d:_CCGregorianCalendar_dmy_from_fixed_m494173177
QQ:__Z29FindReflectionProbeFromAnchorP9TransformRK4AABBRS1_RsS5_
Ixc:_Byte_System_IConvertible_ToUInt64_m371883985_AdjustorThunk
q8f:__ZN6il2cpp6icalls8mscorlib6System18CollectTypeMethodsINS_5utils10functional10TrueFilterEEEvP11Il2CppClassPKS7_jRKT_RNSt3__26vectorIPK10MethodInfoNSE_9allocatorISI_EEEERA65535_b
Hpb:__Z14SetPlayerPause11PlayerPauseb
jCc:_CollectionBase_System_Collections_ICollection_CopyTo_m2850099809
yoc:_GCHandle_Free_m1457699368_AdjustorThunk
kqe:_Thread_get_CurrentUICulture_m1397429997
GGd:_RSACryptoServiceProvider_Dispose_m1199148535
OJ:__Z30scripting_stack_trace_info_for21ScriptingExceptionPtrR14StackTraceInfo
xQg:_glCompressedTexSubImage3D__wrapper
xHa:__ZN18ShadowMapJobHeaderD0Ev
kfg:__ZN15dense_hashtableINSt3__24pairIK10KeyWrapperINS1_IPK12PropertyInfoP11Il2CppClassEEEjEES9_17ReflectionMapHashIS8_EN14dense_hash_mapIS9_jSD_NS9_14EqualsComparerINS0_8equal_toIS8_EEEENS0_9allocatorISB_EEE9SelectKeyESI_SK_EC2ERKSN_j
Yt:__ZN15AudioReverbZone7CleanupEv
P7:__ZN10BufferGLESD0Ev
npb:__Z20scripting_gc_disablev
nvc:_Attribute_IsDefined_m1430686743
CFd:_IntervalCollection_Optimize_m161975983
Dbc:__Z9NullCheckPv
pxe:_Version__ctor_m417728625
V_:__ZN16memory_pool_implILi68EE15AutoPoolWrapper10InitializeEPv
fGc:_Convert_ToByte_m3567528984
iXe:_InvokableCall_1_Invoke_m3497872319_gshared
Qnb:__ZN9Scripting35ErrorMessageForUnsupportedEnumFieldE17ScriptingFieldPtr
Znd:_Level2MapComparer__cctor_m1866197409
Fjb:__Z29Transfer_Blittable_ArrayFieldI18StreamedBinaryReadILb1EEfEvRT_R9ArrayInfoRK23StaticTransferFieldInfo
s5c:_RecordProtocol_ReadRecordBuffer_m180543381
NXf:__ZL24UnresolvedVirtualCall_10P12Il2CppObjectPK10MethodInfo
FBc:_BitArray__ctor_m2765908219
mPd:_StringComparer_get_InvariantCultureIgnoreCase_m2404489191
qBg:__ZN6il2cpp6icalls8mscorlib6System7Runtime16CompilerServices14RuntimeHelpers15InitializeArrayEP11Il2CppArrayi
ffd:_Context_Freeze_m2594571993
w7b:__ZZN18UnityConnectClient23RegisterGlobalCallbacksEvEN46EarlyUpdateUnityConnectClientUpdateRegistrator7ForwardEv
$Ce:_Array_InternalArray__ICollection_CopyTo_TisInt32_t2950945753_m3102754797_gshared
Idc:_ModuleBuilder_GetTokenGenerator_m4177350090
WUa:__ZN10Matrix4x4f8TransferI18StreamedBinaryReadILb0EEEEvRT_
qqe:_Thread_Start_m2860771284
yEb:__ZL23NormalizeRobustInternalRK8Vector3fRfS2_f
C2b:__GLOBAL__sub_I_modules_terrain_public_2_cpp
OBe:_Array_LastIndexOf_TisRuntimeObject_m2701366436_gshared
g8f:__ZN6il2cpp6icalls8mscorlib6System8MonoType13GetInterfacesEP20Il2CppReflectionType
cD:__ZN11UnityEngine15CloudWebService25WebRequestDownloadHandler7OnAbortEv
gvb:__ZN6Camera12CustomRenderER11CullResultsR17ShaderPassContextPK21CameraRenderingParamsNS_10RenderFlagEPNS_21PerformRenderFunctionEPFvvE
dAd:_PublicKey_GetUnsignedBigInteger_m3873409673
Ewg:__ZN6il2cpp2os6Thread22SetNativeThreadCleanupEPFvPvE
Wke:_GenericEqualityComparer_1_Equals_m2669134646_gshared
$ig:_il2cpp_class_from_system_type
I7c:_RuntimeMethodHandle__ctor_m2867240657
$Pd:_DecoderFallback_get_StandardSafeFallback_m2130338133
nm:FUNCTION_TABLE_vdd
$cb:__Z18Transfer_BlittableI24GenerateTypeTreeTransferLb1E10ColorRGBAfEvRK29SerializationCommandArgumentsR31RuntimeSerializationCommandInfo
Ija:__ZN6prcoreL17RemapGenericFloatI18TexFormatRGBAFloat16TexFormatRGFloatEEvPKNS_9InnerInfoE
H7f:__ZN6il2cpp6icalls8mscorlib6System8MonoType8get_NameEP20Il2CppReflectionType
qpd:_SimpleCollator_LastIndexOf_m2130553617
y9a:__ZNSt3__26vectorI10RectOffset13stl_allocatorIS1_L18MemLabelIdentifier1ELi16EEE8__appendEj
nse:_TimeSpan_op_Equality_m1999885032
j7c:_SslStreamBase_get_ServerCertificates_m2154373069
Vrg:__ZN6il2cpp2vmL29AddTypeToNametoClassHashTableEPK11Il2CppImagei
Bn:FUNCTION_TABLE_ff
DTe:_Collection_1_IndexOf_m202514423_gshared
Dn:FUNCTION_TABLE_fi
KKc:_NumberFormatter_ZeroTrimEnd_m3065471008
_Xe:_UnityAction_2_Invoke_m2304474703_gshared
lqc:_X509Certificate_get_DSA_m1760272844
jqe:_Thread_get_CurrentCulture_m349116646
cqe:_Thread_Thread_internal_m4184414727
Kc:_emscripten_glGetAttribLocation
Otb:__ZZ23InitPlayerLoopCallbacksvEN39PostLateUpdateResetInputAxisRegistrator7ForwardEv
Jw:__ZN4FMOD12ChannelGroup14getParentGroupEPPS0_
Oc:_emscripten_set_blur_callback
hqb:__Z28GetSplashScreenBackgroundUvsRK5RectTIfE
xha:__ZNK14ImageReference9ClipImageEiiii
xRb:__ZN4MeshC2E10MemLabelId18ObjectCreationMode
pCb:__ZN10Matrix4x4f30SetPositionAndOrthoNormalBasisERK8Vector3fS2_S2_S2_
Ita:__ZN5RectTIfE8TransferI24GenerateTypeTreeTransferEEvRT_
Rvg:__ZN6il2cpp6icalls8mscorlib6System4Enum8ToObjectEP20Il2CppReflectionTypeP12Il2CppObject
wwb:__ZN12FlareManager6UpdateEv
SRg:_glColorMask__wrapper
Npg:__ZN6il2cpp6icalls8mscorlib6System4Type29GetGenericTypeDefinition_implEP20Il2CppReflectionType
PYa:__ZN27GenericSlowGarbageCollector16ProcessReferenceEi
khe:_Dictionary_2_get_Item_m1749337561_gshared
ied:_LifetimeServices_set_SponsorshipTimeout_m2538334028
lLg:_fopen
s6:__ZN20GpuProgramParameters15AddTextureParamEPKciib16TextureDimensionP16PropertyNamesSet
VE:__ZN19CloudServiceHandler8SaveFileERKN4core12basic_stringIcNS0_20StringStorageDefaultIcEEEEPKvj
lpg:__ZN6il2cpp2vm9Exception5RaiseEib
iCg:_GC_init
uWc:_MonoType_IsPointerImpl_m3340652279
NSg:_glFramebufferTexture2D__wrapper
XIg:__ZN6il2cpp6icalls8mscorlib6System7Runtime8Remoting7Proxies9RealProxy27InternalGetTransparentProxyEP12Il2CppObjectP12Il2CppString
vxg:__ZN6il2cpp2vm6Method10IsInflatedEPK10MethodInfo
HBg:__ZNK6il2cpp8metadata14Il2CppTypeLessclEPK10Il2CppTypeS4_
ECg:_GC_remove_header
xFa:__ZL17InstanceBufferJobIN10Instancing14RenderLoopArgsEEvP21InstanceBufferJobDataIT_E
b$a:__ZNSt3__26vectorIi13stl_allocatorIiL18MemLabelIdentifier13ELi16EEE8__appendEj
djd:_ReturnMessage_get_OutArgs_m1641976511
$fd:_SynchronizationAttribute_IsContextOK_m324067792
hvg:__ZN6il2cpp2vm6Object6IsInstEP12Il2CppObjectP11Il2CppClass
lgb:__Z19TransferField_ArrayI19StreamedBinaryWriteILb0EE27Converter_UnityEngineObjectEvRK23StaticTransferFieldInfoR31RuntimeSerializationCommandInfoRT0_
kag:_RemoteSettings_CallOnUpdate_m2821567430
nea:__Z16GetMSAALevelDesc9MSAALevel
o_d:_Environment_GetMachineConfigPath_m43519138
U8d:_InternalEnumerator_1_System_Collections_IEnumerator_get_Current_m4203917072_gshared
_Vd:_Decimal_decimal2Int64_m2102545213
vvb:__ZN8Renderer27EnsureTransformInfoUpToDateEv
kXg:_emscripten_glFrontFace__wrapper
uge:_Dictionary_2_System_Collections_ICollection_CopyTo_m534867526_gshared
Ba:invoke_fiffi
aM:__ZN14SerializedFile14SerializedType8ReadTypeILb1EEEbibRPKhS3_Pi
gHe:_InternalAsyncResult__ctor_m2194591319
FV:__ZN13RuntimeStaticI12GraphicsCapsLb0EE16StaticInitializeEPv
lTa:__ZN9Texture3D17UploadToGfxDeviceEv
l$b:__Z18Transfer_BlittableI8JSONReadLb1E8Vector4fEvRK29SerializationCommandArgumentsR31RuntimeSerializationCommandInfo
gpc:_ActivationServices_CreateProxyFromAttributes_m3864561181
dpb:__ZN9Scripting20SendScriptingMessageER10GameObjectPKc18ScriptingObjectPtr
Dpb:__Z26IsSplashScreenFadeCompletev
fVb:__Z42Register_UnityEngine_Camera_get_clearFlagsv
i8f:__ZNSt3__26__treeIP11Il2CppClassNS_4lessIS2_EENS_9allocatorIS2_EEED2Ev
hVe:_ReadOnlyCollection_1_System_Collections_IList_Add_m1307486000_gshared
EIb:__ZN13RenderManager27UpdatePreviousFrameMatricesEv
whb:__Z35Transfer_Blittable_FixedBufferFieldI18StreamedBinaryReadILb1EExEvRK29SerializationCommandArgumentsR31RuntimeSerializationCommandInfo
jGe:_Array_InternalArray__get_Item_TisByte_t1134296376_m3566214066_gshared
OW:__Z22SetManagerPtrInContextiP6Object
MZa:__ZN14PlayerSettings8TransferI19StreamedBinaryWriteILb0EEEEvRT_
X_b:__Z18Transfer_BlittableI8JSONReadLb0E10ColorRGBAfEvRK29SerializationCommandArgumentsR31RuntimeSerializationCommandInfo
u$d:_NumberFormatInfo_set_NumberNegativePattern_m1999304795
jfc:_GenericTypeParameterBuilder_IsSubclassOf_m2266644074
n4f:__ZN15dense_hashtableINSt3__24pairIK10KeyWrapperIN6il2cpp5utils13dynamic_arrayIPK10Il2CppTypeLj4EEEEPFvvEEESA_NS3_8metadata19Il2CppSignatureHashEN14dense_hash_mapISA_SD_SG_NSA_14EqualsComparerINSF_22Il2CppSignatureCompareEEENS0_9allocatorISE_EEE9SelectKeyESK_SM_E14squash_deletedEv
T$d:_CompareInfo_ToString_m2684143229
eZ:__ZN15DirectorManagerD2Ev
aeg:__ZN15dense_hashtableINSt3__24pairIK10KeyWrapperINS1_IPK10MethodInfoP11Il2CppClassEEEjEES9_17ReflectionMapHashIS8_EN14dense_hash_mapIS9_jSD_NS9_14EqualsComparerINS0_8equal_toIS8_EEEENS0_9allocatorISB_EEE9SelectKeyESI_SK_E9copy_fromERKSN_j
kCd:_X509CertificateEnumerator_System_Collections_IEnumerator_get_Current_m4218613192
lPb:__ZNK30SpriteRendererAnimationBinding15GenerateBindingERKN4core12basic_stringIcNS0_20StringStorageDefaultIcEEEEbRN11UnityEngine9Animation14GenericBindingE
Qne:_UTF32Encoding__ctor_m1635603592
Z1e:_Uri_IsPredefinedScheme_m1188665625
Ypg:__ZN6il2cpp6icalls8mscorlib6System13Globalization11CultureInfo45construct_internal_locale_from_current_localeEP17Il2CppCultureInfo
Cyd:_ServicePointManager_get_CheckCertificateRevocationList_m1645465614
fag:_SessionStateChanged_Invoke_m1365949269
Cpa:__ZN15TextureTFMethod16BindForRenderingEj
ojd:_SoapMethodAttribute_SetReflectionObject_m503748123
VTb:__ZL34GetComponentsImplementationRecurseILb0ELi1ELi0EEbR10GameObjectbRK17CompareParametersRK39GetComponentsImplementation_ReturnValue
Wrg:__ZN15dense_hashtableINSt3__24pairIK10KeyWrapperINS1_IPKcS4_EEEiEES6_24NamespaceAndNamePairHashN14dense_hash_mapIS6_iS9_NS6_14EqualsComparerI26NamespaceAndNamePairEqualsEENS0_9allocatorIS8_EEE9SelectKeyESD_SF_E4findERS7_
z6f:__ZN6il2cpp2os19SocketHandleWrapper7ReleaseEv
j3e:_BeforeRenderHelper_Invoke_m50072094
Khd:_MethodCall_get_MethodBase_m550047245
AYa:__ZNSt3__27__sort4IRNS_6__lessINS_4pairIPKN5Unity4TypeE7Hash128EES8_EEPS8_EEjT0_SC_SC_SC_T_
H7:__ZNK11NamedObject22GetTypeVirtualInternalEv
P1e:_Uri_EscapeString_m2061933484
I3e:_AttributeHelperEngine_GetDefaultExecutionOrderFor_m2255077112
MGc:_Convert_ToDecimal_m3815908452
SQc:_DelegatePInvokeWrapper_ReadDelegate_t714865915
wCc:_CollectionBase_Clear_m1509125218
Sxg:__ZL14on_heap_resizem
p3f:__ZNSt3__27__sort4IRN6il2cpp5utils11collections13ArrayValueMapIPK10Il2CppType17Il2CppInteropData26InteropDataToTypeConverterNS1_8metadata14Il2CppTypeLessENSA_26Il2CppTypeEqualityComparerEE12SortComparerEPS8_EEjT0_SH_SH_SH_T_
LOg:dynCall_vidi
KSc:_StreamReader_ReadToEnd_m371831293
wVc:_MonoCustomAttrs_GetCustomAttributes_m1775925192
lRg:_glVertexAttribPointer__wrapper
dbd:_HMAC_Create_m2148924157
xOg:___udivdi3
x_d:_Exception__ctor_m1406832249
DTb:__ZN11PlayerPrefs9SetStringERKN4core12basic_stringIcNS0_20StringStorageDefaultIcEEEES6_
wFg:__ZN6il2cpp6icalls8mscorlib6System8Delegate18SetMulticastInvokeEP14Il2CppDelegate
OC:__ZN11UnityEngine15CloudWebService20WebRequestRestClient5BeginEv
BRb:__ZN8Material12CleanupClassEv
zLg:_fseek
P2b:__ZN16memory_pool_implILi40EE15AutoPoolWrapper10InitializeEPv
wcb:__Z22TransferField_NonArrayI17RemapPPtrTransfer27Converter_SimpleNativeClassI10RectOffsetEEvRK23StaticTransferFieldInfoR31RuntimeSerializationCommandInfoRT0_
QRd:_DateTimeFormatInfo_GetEraName_m3151483707
qvd:_PKCS12_AddCertificate_m3618696508
eBc:_SynchronizedArrayListWrapper_set_Item_m1979747874
c5c:_HttpsClientStream_U3CHttpsClientStreamU3Em__0_m2058474197
wIc:_Convert_ToUInt32_m2215525276
CZa:__ZN24GenerateTypeTreeTransfer32TransferSTLStyleArrayWithElementI16SplashScreenLogoEEvRT_17TransferMetaFlags
Acg:__ZN15dense_hashtableINSt3__24pairIK10KeyWrapperINS1_IPK9FieldInfoP11Il2CppClassEEEjEES9_17ReflectionMapHashIS8_EN14dense_hash_mapIS9_jSD_NS9_14EqualsComparerINS0_8equal_toIS8_EEEENS0_9allocatorISB_EEE9SelectKeyESI_SK_E6insertERKSB_
r8d:_InternalEnumerator_1_get_Current_m2680116177_gshared
lY:__Z37InitializeIntermediateRendererManagerPv
Mog:__ZN6il2cpp2vm13LivenessState16AddProcessObjectEP12Il2CppObjectPS1_
gOd:_String_IndexOfOrdinal_m962178384
lNc:_Int64_ToString_m2986581816_AdjustorThunk
ebd:_HMACMD5__ctor_m3129799368
zec:_TypeBuilder_GetEvent_m2166527753
DV:__ZN23DefaultMeshVertexFormatC2E17ShaderChannelMask
Rhb:__ZL26Transfer_SimpleNativeClassI18StreamedBinaryReadILb1EE8GradientLb1EEvRK29SerializationCommandArgumentsR31RuntimeSerializationCommandInfo
Djf:__Z102RuntimeInvoker_Int32_t2950945753_RuntimeObject_Int32_t2950945753_CharU26_t1697032762_SByte_t1669577662PFvvEPK10MethodInfoPvPS4_
LWc:_MonoType_get_Namespace_m2015358851
UDc:_HashKeys_CopyTo_m4219627824
Sda:__ZN7ApiGLES10InvalidateERK14GfxContextGLES
Hvc:_Convert_ToType_m2406080310
_rd:_BitConverterLE_ToSingle_m1153793442
EHg:__ZN6il2cpp2os5Mutex7TryLockEjb
fJc:_Int16_System_IConvertible_ToByte_m3161982419
rQ:__Z20IsVectorBuiltinParamPKcPi
Jug:__ZN6il2cpp2vm5Field8GetFlagsEP9FieldInfo
Pbd:_MD5CryptoServiceProvider_HashFinal_m2625727830
CMd:_Single_System_IConvertible_ToUInt32_m289030200
png:__ZN6il2cpp6icalls8mscorlib6System10ReflectionL16LoadResourceFileEP24Il2CppReflectionAssembly
oYd:_Double_System_IConvertible_ToDouble_m3692611612
EL:__Z13IsFileCreatedRKN4core12basic_stringIcNS_20StringStorageDefaultIcEEEE
cQc:_FileStream_FlushBuffer_m914568182
LOa:__ZN16LightmapSettings18TransferDeprecatedI14SafeBinaryReadEEvRT_
tXa:__ZN8Renderer11SetMaterialE4PPtrI8MaterialEi
nne:_StringBuilder_AppendFormat_m921870684
Dug:__ZN15dense_hashtableINSt3__24pairIK10KeyWrapperIP12Il2CppObjectEN6il2cpp2gc9CachedCCWEEES5_NS7_5utils11PointerHashIS3_EEN14dense_hash_mapIS5_S9_SD_NS5_14EqualsComparerINS0_8equal_toIS4_EEEENS0_9allocatorISA_EEE9SelectKeyESI_SK_E5eraseE30dense_hashtable_const_iteratorISA_S5_SD_SM_SI_SK_E
ZCc:_Hashtable__ctor_m1684344284
asc:_Activator_CheckAbstractType_m2015247896
LGd:_RSACryptoServiceProvider_ImportParameters_m614616705
cT:__GLOBAL__sub_I_runtime_camera_renderloops_1_cpp
$3c:_SslHandshakeHash_CreateSignature_m1634235041
ife:_ShimEnumerator_get_Current_m3504536618_gshared
vDa:__ZN12FlareManager9AddCameraER6Camera
d6:__ZN9ShaderLab7Program22ComputeSupportsShadowsEv
OPc:_FileNotFoundException__ctor_m2477162036
zVd:_Decimal_System_IConvertible_ToDouble_m3125524987
Ekb:__Z18Transfer_BlittableI18StreamedBinaryReadILb0EELb0E12PropertyNameEvRK29SerializationCommandArgumentsR31RuntimeSerializationCommandInfo
COg:___divdi3
B5:__ZN9ShaderLab9IntShader26CreateFromSerializedShaderERKNS_16SerializedShaderERNSt3__26vectorI4PPtrI6ShaderENS4_9allocatorIS8_EEEEbPS7_
$Ye:_Match_get_Empty_m2060287462
p6a:__ZN19ShaderPropertySheet16SetComputeBufferEN9ShaderLab16FastPropertyNameE15ComputeBufferIDNS_8SetFlagsE
C7e:_U3CInvokeMessageIdSubscribersU3Ec__AnonStorey0_U3CU3Em__0_m444206473
Xyg:__ZNK15dense_hashtableINSt3__24pairIK10KeyWrapperIPK19Il2CppGenericMethodEP10MethodInfoEES6_N6il2cpp8metadata23Il2CppGenericMethodHashEN14dense_hash_mapIS6_S9_SD_NS6_14EqualsComparerINSC_26Il2CppGenericMethodCompareEEENS0_9allocatorISA_EEE9SelectKeyESH_SJ_E5beginEv
n3d:_ArrayReadOnlyList_1_get_Item_m1974867852_gshared
lod:_MSCompatUnicodeTable_IsIgnorableNonSpacing_m47098938
LLc:_Int32_System_IConvertible_ToSingle_m896140682_AdjustorThunk
EFb:__ZL12CullGroupJobP20CullingGroupsJobDataj
aDg:_GC_remove_dangling_disappearing_links
FD:__ZN11UnityEngine15CloudWebService14RestDownloader9IsAbortedEv
qde:_Enumerator_System_Collections_IDictionaryEnumerator_get_Key_m3435754782_AdjustorThunk
Gn:FUNCTION_TABLE_i
_$e:_AnchorInfo_get_Position_m1133366486
ISc:_StreamReader_FindNextEOL_m2574298119
k$:__ZN11TypeManager12RegisterTypeERK20TypeRegistrationDesc
Hm:FUNCTION_TABLE_v
BUa:__ZNSt3__26vectorI17BlendShapeChannelNS_9allocatorIS1_EEE8__appendEj
oo:__ZN18StreamedBinaryReadILb0EE21TransferSTLStyleArrayI13dynamic_arrayI8Vector3fLj4EEEEvRT_17TransferMetaFlags
Utb:__ZZ23InitPlayerLoopCallbacksvEN43PostLateUpdateUpdateAllRenderersRegistrator7ForwardEv
C0a:__ZN21LightProbeProxyVolume13GetRenderDataER27LightProbeProxyVolumeSample
z9f:__ZN6il2cpp2vm7Runtime30CallUnhandledExceptionDelegateEP12Il2CppDomainP14Il2CppDelegateP15Il2CppException
Ged:_Context_get_ContextProperties_m3283598326
igd:_Identity_set_Disposed_m1049871465
gYa:__ZN11TimeManager8TransferI24GenerateTypeTreeTransferEEvRT_
EXb:__ZN8JSONRead8TransferItEEvRT_PKc17TransferMetaFlagsb
Sag:__ZN6il2cpp2vm17TypeNameParseInfoC2ERKS1_
a6b:__ZN18UnityConnectClient17InitConnectClientEv
fKg:_memcmp
ZIc:_GuidParser_ParseHexPrefix_m3148550086
I4b:__ZN11UnityEngine7Connect18ConnectSessionInfo8TransferER9JSONWrite
Mz:__Z74Register_UnityEngine_AudioListener_INTERNAL_CALL_ReadExtensionPropertyNamev
kFe:_Array_InternalArray__set_Item_TisHitInfo_t3229609740_m1576844560_gshared
xXa:__ZN9Scripting32GetCachedPtrFromScriptingWrapperE18ScriptingObjectPtr
A6c:_SslClientStream_OnBeginNegotiateHandshake_m3734240069
ww:__ZN5audio5mixer22CreateAudioMixerMemoryERKNS0_18AudioMixerConstantEPN4FMOD6SystemERN7mecanim6memory9AllocatorEib
Gnb:__ZL65EmitSerializationCommandsForLinearCollectionOfManagedObjectsFieldRK31TransferFunctionScriptingTraitsRK23TransferArrayField_InfoR20SerializationCommandR32SerializationCommandQueueBuilderRP20AllowNameConversions
AE:__ZN11UnityEngine15CloudWebService19SessionEventManager31SetupNextActiveSessionContainerEv
hdf:__Z121RuntimeInvoker_Void_t1185182177_Int32_t2950945753_Int32_t2950945753_Int32_t2950945753_SByte_t1669577662_SByte_t1669577662PFvvEPK10MethodInfoPvPS4_
Kkf:__Z52RuntimeInvoker_Single_t1397266774_Single_t1397266774PFvvEPK10MethodInfoPvPS4_
RAc:_FixedSizeArrayListWrapper_InsertRange_m1706982628
Rwe:_UIntPtr_ToString_m984583492_AdjustorThunk
wrb:__ZL20ShaderWarmupFuncImplP6ShaderiPN9ShaderLab4PassERK16ShaderKeywordSetP10DynamicVBOPvR17ShaderPassContext
usb:__ZN13GfxDeviceGLESC2E10MemLabelId
f3f:__ZN15dense_hashtableI10KeyWrapperIPK17Il2CppGenericInstES4_N6il2cpp8metadata21Il2CppGenericInstHashEN14dense_hash_setIS4_S7_NS4_14EqualsComparerINS6_24Il2CppGenericInstCompareEEENSt3__29allocatorIS4_EEE8IdentityESB_SE_E6insertERKS4_
Rbg:__ZN15dense_hashtableINSt3__24pairIK10KeyWrapperINS1_IPK14Il2CppAssemblyP11Il2CppClassEEEjEES9_17ReflectionMapHashIS8_EN14dense_hash_mapIS9_jSD_NS9_14EqualsComparerINS0_8equal_toIS8_EEEENS0_9allocatorISB_EEE9SelectKeyESI_SK_E3endEv
K5b:__ZN11UnityEngine7Connect17DeviceStatusEventC2Ev
qpe:_NativeEventCalls_ResetEvent_internal_m885886540
NVc:_MonoEnumInfo_get_enum_info_m1661176095
Sea:__ZN14DataBufferGLES12RecordUpdateEv
$4d:_InternalEnumerator_1_get_Current_m1481634550_gshared
C3c:_Context_ClearKeyInfo_m1155154290
mvg:__ZN6il2cpp2vm12GenericClass12SetupMethodsEP11Il2CppClass
k5a:__ZNK20LocalFileSystemPosix18GetApplicationPathEv
Dnb:__ZN9Scripting30IsSystemCollectionsGenericListE17ScriptingClassPtr
cie:_Dictionary_2_Add_m1279427033_gshared
QKe:_X509Certificate_get_IsSelfSigned_m4064195693
Qza:__ZN10GameObject16CheckConsistencyEv
xPb:__ZN14RenderSettings15InitializeClassEv
Wha:__ZL35stbir__resample_horizontal_upsampleP11stbir__infoPf
kSe:_Enumerator__ctor_m3419056812_AdjustorThunk
Cae:_InternalEnumerator_1_System_Collections_IEnumerator_get_Current_m1299775605_gshared
JPb:__ZL19OnLightProbesUpdatev
_cb:__Z18Transfer_BlittableI24GenerateTypeTreeTransferLb0E10ColorRGBAfEvRK29SerializationCommandArgumentsR31RuntimeSerializationCommandInfo
LMb:__ZN14SpriteRenderer13GetRenderDataEv
oje:_DefaultComparer_Equals_m1713730345_gshared
OPg:dynCall_iifii
dcd:__Z3BoxP11Il2CppClassPv
px:__ZN20SoundChannelInstance9isPlayingEPb
Hpa:__ZN21UniformBufferTFMethodD2Ev
aae:_InternalEnumerator_1_System_Collections_IEnumerator_get_Current_m1096730143_AdjustorThunk
UTb:__ZL34GetComponentsImplementationRecurseILb1ELi1ELi2EEbR10GameObjectbRK17CompareParametersRK39GetComponentsImplementation_ReturnValue
Bia:__ZN6prcoreL12RemapGenericI15TexFormatRGB56515TexFormatRGB888EEvPKNS_9InnerInfoE
TFg:__ZN6il2cpp5utils10MemoryPool9AddRegionEj
Lua:__ZN23PreloadManagerOperation14SetFinalTimingEffff
vAd:_X509Certificate2__ctor_m3336405942
ptc:_Array_System_Collections_IList_RemoveAt_m41405158
IQf:__ZL89GameObject_t1113636619_CustomAttributesCacheGenerator_GameObject_GetComponent_m1027872079P21CustomAttributesCache
Jfg:__ZN15dense_hashtableINSt3__24pairIK10KeyWrapperINS1_IPK9EventInfoP11Il2CppClassEEEjEES9_17ReflectionMapHashIS8_EN14dense_hash_mapIS9_jSD_NS9_14EqualsComparerINS0_8equal_toIS8_EEEENS0_9allocatorISB_EEE9SelectKeyESI_SK_E15insert_noresizeERKSB_
QAg:__ZN6il2cpp2os11Environment17GetProcessorCountEv
c1:__ZNSt3__26vectorIN9ShaderLab26SerializedShaderDependencyENS_9allocatorIS2_EEE8__appendEj
pW:__ZN32TransformHierarchyChangeDispatch26DispatchSelfAndAllChildrenE15TransformAccessNS_12InterestTypeE
Qz:__Z46Register_UnityEngine_AudioSource_get_isPlayingv
yX:__ZN13RuntimeStaticI22VirtualJoystickManagerLb0EE13StaticDestroyEPv
qEd:_Interpreter_Balance_m1978770534
Ws:__ZN13AudioListener12ApplyFiltersEv
YWf:_AudioConfigurationChangeHandler_BeginInvoke_m4104069447
AHg:__ZN6il2cpp8metadata27Il2CppGenericContextCompare7CompareEPK20Il2CppGenericContextS4_
yPg:dynCall_viiii
P$d:_CompareInfo_IsPrefix_m796715920
f$f:__ZNK15dense_hashtableINSt3__24pairIK10KeyWrapperIPK22Il2CppGenericParameterEP11Il2CppClassEES6_N6il2cpp5utils11PointerHashIS4_EEN14dense_hash_mapIS6_S9_SE_NS6_14EqualsComparerINS0_8equal_toIS5_EEEENS0_9allocatorISA_EEE9SelectKeyESJ_SL_E23find_position_with_hashERS7_j
kZc:_PrimalityTest_Invoke_m2948246884
Jvb:__Z11CopyTextureP7TextureiiS0_ii
Wag:__ZNSt3__214__split_bufferIN6il2cpp2vm17TypeNameParseInfoERNS_9allocatorIS3_EEED2Ev
Zjc:_MonoEvent_get_Attributes_m3048829315
heb:__Z22TransferField_NonArrayI24GenerateTypeTreeTransfer27Converter_SimpleNativeClassI8GUIStyleEEvRK23StaticTransferFieldInfoR31RuntimeSerializationCommandInfoRT0_
o_:__ZN15DirectorManager14ConnectionPool16GrowEmptyBucketsEv
gCc:_CaseInsensitiveHashCodeProvider_AreEqual_m3534448780
oI:__ZN17PersistentManager32CopyToAwakeFromLoadQueueInternalER18AwakeFromLoadQueue
Bmf:__Z104RuntimeInvoker_Boolean_t97287965_Int32_t2950945753_Int64U5BU5DU26_t194432655_StringU5BU5DU26_t2154486980PFvvEPK10MethodInfoPvPS4_
Flf:__Z106RuntimeInvoker_RuntimeObject_Int16_t2552820387_RuntimeObject_BooleanU26_t4125257963_BooleanU26_t4125257963PFvvEPK10MethodInfoPvPS4_
pvb:__ZNK6Camera16SetActiveVRUsageEv
B$b:__ZL26Transfer_SimpleNativeClassI8JSONRead8GradientLb1EEvRK29SerializationCommandArgumentsR31RuntimeSerializationCommandInfo
IKg:_open
JLe:_X509CrlEntry_get_SerialNumber_m3627212772
Smg:__ZN6il2cpp6icalls8mscorlib6System5Array5CloneEP11Il2CppArray
LIb:__Z30GetPlayerShouldRunInBackgroundv
j7e:_Mathf__cctor_m1175545152
ekc:_MonoEvent_IsDefined_m10931749
Lwd:_NameValueCollection_AsSingleString_m3776180906
via:__ZN6prcoreL12RemapGenericI11TexFormatI815TexFormatRGB565EEvPKNS_9InnerInfoE
GLc:_Int32_System_IConvertible_ToInt64_m3520470966
Zda:__ZNK13TranslateGLES17FramebufferTargetEN2gl17FramebufferTargetE
Rxg:__ZL11on_gc_event11GCEventType
Wae:_InternalEnumerator_1_System_Collections_IEnumerator_get_Current_m1612699335_gshared
u2c:_TlsServerHello__ctor_m3887266572
v4e:_Coroutine_ReleaseCoroutine_m809189848
ZUg:b62
YUg:b61
OUg:b60
lWg:b67
fVg:b66
eVg:b65
pWg:b69
mWg:b68
KYe:_Enumerator_get_Current_m359737019
OCa:__ZNSt3__26__treeINS_12__value_typeIi17ShadowCachingDataEENS_19__map_value_compareIiS3_NS_4lessIiEELb1EEE13stl_allocatorIS3_L18MemLabelIdentifier66ELi16EEE7destroyEPNS_11__tree_nodeIS3_PvEE
Avc:_BitConverter_ToInt64_m349022421
lhc:_OpCode_get_Name_m149707431
XMe:_Enumerator_System_Collections_IEnumerator_get_Current_m323862414_AdjustorThunk
dqb:__Z28SetupPixelCorrectCoordinatesi
hBc:_SynchronizedArrayListWrapper_set_Capacity_m514089537
sea:__Z5SplitRKN4core12basic_stringIcNS_20StringStorageDefaultIcEEEEcRNSt3__26vectorIS3_NS6_9allocatorIS3_EEEEi
A6a:__ZN11MonoManager23VirtualRedirectTransferER24GenerateTypeTreeTransfer
pVf:_AesTransform__ctor_m3143546745
_ye:_Array_InternalArray__ICollection_Remove_TisRuntimeObject_m2110193223_gshared
ipg:__ZN6il2cpp2vm9Exception20GetArgumentExceptionERKNS_5utils10StringViewIDsEES6_
ARe:_Enumerator_System_Collections_IEnumerator_Reset_m1487823313_AdjustorThunk
aid:_MethodCallDictionary__cctor_m2213329406
ft:__ZN12AudioManagerD0Ev
nKg:___fwritex
tb:invoke_viiififii
Qod:_SortKeyBuffer_Initialize_m3786111493
Dle:_Encoding__cctor_m1936558127
Hbd:_MD5_Create_m3289886172
EJd:_X509Certificate_get_Subject_m2638144878
fEc:_SyncHashtable_get_Count_m3689832098
D3e:_AsyncOperation_Finalize_m1841265672
ntb:__ZN11TypeManager18InitializeAllTypesEv
ar:__ZN9AudioClipD0Ev
ejg:_il2cpp_class_from_name
EEb:__ZN13dynamic_arrayI11ActiveLightLj4EE26emplace_back_uninitializedEv
bSe:_Queue_1__ctor_m1971992302_gshared
OLb:__ZN25ThreadsafeLinearAllocatorC2EiiPKc
hWc:_MonoType_GetEvent_m28975240
fma:__ZN14GfxContextGLES11MakeCurrentER7ApiGLESN2gl13ContextHandleE
zQc:_MonoIO_Write_m3999708352
OCe:_Array_InternalArray__ICollection_CopyTo_TisChar_t3634460470_m3599063464_gshared
poe:_UTF7Encoding_InternalGetChars_m2722395139
trb:__ZN16GraphicsSettings22WarmupPreloadedShadersEv
m8c:_SByte_System_IConvertible_ToSingle_m1083054891
DFd:_CostDelegate_Invoke_m898648402
a5e:_DisplaysUpdatedDelegate_Invoke_m3203573844
wlb:__ZN18StreamedBinaryReadILb0EE8TransferI13dynamic_arrayI12PropertyNameLj4EEEEvRT_PKc17TransferMetaFlags
U5:__ZN9ShaderLab4Pass6RetainEv
Ssd:_KeyPairPersistence_get_ContainerName_m4274536094
LXa:__Z10AddGUIAxesR13dynamic_arrayI9InputAxisLj4EE
mee:_Enumerator_System_Collections_IDictionaryEnumerator_get_Key_m4039922590_AdjustorThunk
bdg:__ZN6il2cpp2gc19AppendOnlyGCHashMapIPK10Il2CppTypeP20Il2CppReflectionTypeNS_8metadata14Il2CppTypeHashENS7_26Il2CppTypeEqualityComparerEE3AddERKS4_S6_
IA:__ZN11UnityEngine15CloudWebService17CloudJobScheduler11ScheduleJobEPFvPvES2_
mpd:_SimpleCollator_IsSuffix_m1291687763
RB:__ZN11UnityEngine15CloudWebService17CloudServiceEvent12ToJsonStringER9JSONWrite
U1c:_TlsClientHello__ctor_m1986768336
bY:__ZNK18VertexChannelsInfoltERKS_
_nf:__Z89RuntimeInvoker_Boolean_t97287965_Int32_t2950945753_Int32U26_t1369213839_Int32_t2950945753PFvvEPK10MethodInfoPvPS4_
dyc:_Char_System_IConvertible_ToType_m4138905176_AdjustorThunk
AXb:__ZN9JSONWrite8TransferIfEEvRT_PKc17TransferMetaFlags
HH:__ZNK6Camera13GetCameraRectEbb
mya:__ZN10MemoryFileD0Ev
dxg:__ZN6il2cpp2os10ThreadImpl22SetNativeThreadCleanupEPFvPvE
XTd:_DateTimeOffset__cctor_m3610253033
p$d:_NumberFormatInfo_get_InvariantInfo_m349577018
Kxc:_Byte_CompareTo_m4285128861_AdjustorThunk
bed:_ConfigHandler_ExtractAssembly_m2143791058
otg:__ZN6il2cpp8metadataL24RecursiveGenericDepthForEPK17Il2CppGenericInst
Y9e:_Transform_GetChild_m1092972975
_8a:__ZN13GUIStyleState8TransferI14SafeBinaryReadEEvRT_
dd:_glDrawArrays
VWf:_AudioSource_get_clip_m1234340632
fnc:_ResourceCacheItem_t51292791_marshal_pinvoke_back
RUa:__ZN14BlendShapeData8TransferI18StreamedBinaryReadILb0EEEEvRT_
Z4f:__ZN15dense_hashtableINSt3__24pairIK10KeyWrapperIPK11Il2CppClassEPKcEES6_N6il2cpp5utils11PointerHashIS3_EEN14dense_hash_mapIS6_S9_SE_NS6_14EqualsComparerINS0_8equal_toIS5_EEEENS0_9allocatorISA_EEE9SelectKeyESJ_SL_E12maybe_shrinkEv
Mve:_UInt32_ToString_m4293943134_AdjustorThunk
Jce:_Comparer_1__cctor_m1018589532_gshared
qmf:__Z54RuntimeInvoker_TimeSpan_t881159249_TimeSpan_t881159249PFvvEPK10MethodInfoPvPS4_
J$:__ZL20FormatOrderedProcessPKcP17FormatOrderedDataPc
lDe:_Array_InternalArray__ICollection_CopyTo_TisResourceCacheItem_t51292791_m766230259_gshared
LPd:_Decoder_set_Fallback_m3834517714
rVb:__Z35DebugLogHandler_CUSTOM_Internal_Log7LogTypeP12Il2CppStringP12Il2CppObject
JX:__ZNSt3__26__treeINS_12__value_typeI18VertexChannelsInfoP16MeshVertexFormatEENS_19__map_value_compareIS2_S5_NS_4lessIS2_EELb1EEE13stl_allocatorIS5_L18MemLabelIdentifier17ELi16EEE7destroyEPNS_11__tree_nodeIS5_PvEE
ZSg:_emscripten_glShaderBinary__wrapper
ola:__ZL17ProgramUniform3ivPK7ApiGLESjiihPKv
Hzc:_ArrayList_Shift_m395607654
X9:__ZN9GfxDevice25GetBackBufferColorSurfaceEv
Fya:__ZN25SingleBlockMemoryFileData9SetLengthEy
Shg:__ZN15dense_hashtableINSt3__24pairIK10KeyWrapperINS1_IPK10MethodInfoP11Il2CppClassEEEjEES9_17ReflectionMapHashIS8_EN14dense_hash_mapIS9_jSD_NS9_14EqualsComparerINS0_8equal_toIS8_EEEENS0_9allocatorISB_EEE9SelectKeyESI_SK_E14squash_deletedEv
wsd:_KeyGeneratedEventHandler_Invoke_m4131555809
sMb:__Z13RegisterClassI6ShaderEvv
gPd:_String_CharCopyReverse_m1548661297
S9b:__ZN13RuntimeStaticI11WindManagerLb0EE13StaticDestroyEPv
VYb:__Z18Transfer_BlittableI9JSONWriteLb1EaEvRK29SerializationCommandArgumentsR31RuntimeSerializationCommandInfo
Nhg:__ZN13Il2CppHashMapINSt3__24pairIPK10MethodInfoP11Il2CppClassEEj17ReflectionMapHashIS7_ENS0_8equal_toIS7_EENS0_9allocatorINS1_IK10KeyWrapperIS7_EjEEEEEC2EjRKS9_RKSB_
dzb:__ZN11HaloManager11HasAnyHalosEPK11CullResults
_Sa:__ZN9Texture3D23VirtualRedirectTransferER19StreamedBinaryWriteILb0EE
xDg:_GC_reclaim_block
uUe:_Collection_1_IsValidItem_m93481171_gshared
VBb:__ZNK23ForwardShaderRenderLoop18RenderObjectSorterILb1EEclERK21ForwardRenderPassDataS4_
YBc:_CaseInsensitiveComparer__ctor_m1508720200
L4f:__ZN15dense_hashtableI10KeyWrapperIPK19Il2CppGenericMethodES4_N6il2cpp8metadata23Il2CppGenericMethodHashEN14dense_hash_setIS4_S7_NS4_14EqualsComparerINS6_26Il2CppGenericMethodCompareEEENSt3__29allocatorIS4_EEE8IdentityESB_SE_E12maybe_shrinkEv
Bqa:__ZN10BufferGLES10BeginWriteEjj
J4f:__ZNK15dense_hashtableI10KeyWrapperIPK19Il2CppGenericMethodES4_N6il2cpp8metadata23Il2CppGenericMethodHashEN14dense_hash_setIS4_S7_NS4_14EqualsComparerINS6_26Il2CppGenericMethodCompareEEENSt3__29allocatorIS4_EEE8IdentityESB_SE_E12test_deletedEj
LBb:__ZN21BillboardBatchManager24AutoBillboardShaderPropsC2ER16ShaderKeywordSetR24BuiltinShaderParamValues
bza:__ZN20ArchiveStorageReader10InitializeER15FileSystemEntryyb
xkg:__GLOBAL__sub_I_ArrayMetadata_cpp
Aqa:__ZN7ApiGLES11FlushBufferEjN2gl12BufferTargetEll
W9a:__ZN14SafeBinaryRead21TransferSTLStyleArrayI13dynamic_arrayI8BitFieldLj4EEEEvRT_17TransferMetaFlags
Oma:__ZN12_GLOBAL__N_127PrepareReadback_ResolveMSAAER18GfxFramebufferGLESR7ApiGLESP17RenderSurfaceGLESS5_
bRb:__ZNK24RendererAnimationBinding9BindValueER6ObjectRKN11UnityEngine9Animation14GenericBindingERNS3_10BoundCurveE
Ygc:_TypeBuilder_has_ctor_method_m2987175843
de:_glBindBuffer
hlb:__ZN8GUIStyle8TransferI18StreamedBinaryReadILb0EEEEvRT_
b7d:_InternalEnumerator_1_get_Current_m3500427238_gshared
MY:__ZNSt3__213__stable_sortIRN10vector_mapIijNS_4lessIiEENS_9allocatorINS_4pairIijEEEEE13value_compareENS_11__wrap_iterIPS6_EEEEvT0_SE_T_NS_15iterator_traitsISE_E15difference_typeEPNSH_10value_typeEi
KZa:__ZN10VRSettings8Daydream8TransferI18StreamedBinaryReadILb0EEEEvRT_
UJg:_isupper
qKa:__ZNSt3__26__treeINS_12__value_typeIN9ShaderLab16FastPropertyNameEN18UnityPropertySheet11UnityTexEnvEEENS_19__map_value_compareIS3_S6_NS_4lessIS3_EELb1EEENS_9allocatorIS6_EEE7destroyEPNS_11__tree_nodeIS6_PvEE
iVe:_ReadOnlyCollection_1_System_Collections_IList_Clear_m108858531_gshared
Ihf:__Z102RuntimeInvoker_RuntimeObject_Int32_t2950945753_RuntimeObject_RuntimeObject_RuntimeObject_RuntimeObjectPFvvEPK10MethodInfoPvPS4_
P1c:_Context_Clear_m2678836033
Y5f:__ZN6il2cpp2vm13MetadataCache24GetExportedTypeFromIndexEi
bXb:__ZN5Unity9rapidjson6WriterI16TempBufferWriterNS0_4UTF8IcEES4_13JSONAllocatorE9WriteUintEj
qMg:_getuid
YNb:__Z13RegisterClassI10MonoScriptEvv
GJc:_Int16_System_IConvertible_ToUInt64_m134975563_AdjustorThunk
F7f:__ZN6il2cpp6icalls8mscorlib6System8MonoType22get_IsGenericParameterEP20Il2CppReflectionType
v8a:__Z34scripting_class_array_element_size17ScriptingClassPtr
yWe:_Nullable_1_get_Value_m1801617894_gshared
Bud:_SymmetricTransform_TransformFinalBlock_m4059448527
pIc:_Convert_ToUInt16_m3216249716
OKa:__ZN18StreamedBinaryReadILb0EE19TransferSTLStyleMapINSt3__23mapIN9ShaderLab16FastPropertyNameE10ColorRGBAfNS2_4lessIS5_EENS2_9allocatorINS2_4pairIKS5_S6_EEEEEEEEvRT_17TransferMetaFlags
Xca:__ZN13GfxDeviceGLES24DrawBufferRangesPlatformEP9GfxBufferiPK18VertexStreamSourceiPK16DrawBuffersRangeiP17VertexDeclaration17ShaderChannelMaskjb
lSe:_Enumerator_System_Collections_IEnumerator_Reset_m4269083576_gshared
vjd:_SoapServices_EncodeNs_m635167772
DIb:__ZN13RenderManager28AreCamerasUsingMotionVectorsEv
OX:__Z25InitializeLODGroupManagerPv
QYe:_Mark_get_IsDefined_m2539660708
nca:__ZN13GfxDeviceGLES12EndStereoEyeE15StereoscopicEye
v8c:_SByte_System_IConvertible_ToUInt64_m4151910932_AdjustorThunk
cwb:__ZNK12ImageFilters28ApplyAfterTransparentFiltersEv
x6e:_GameObject__ctor_m3707688467
D4c:_HandshakeMessage_Compare_m2214647946
y5b:__ZN11UnityEngine7Connect15AppRunningEvent12ToJsonStringER9JSONWrite
rLa:__ZN19ShaderPropertySheet5ClearEb
uGd:_RSA_Create_m4065275734
C0d:_CultureInfo_GetCultureInfo_m630276874
Cwb:__ZNK6Camera11GetPositionEv
qWg:_emscripten_glClearDepth__wrapper
N5a:__ZNK16MemoryFileSystem8FilenameERK13FileEntryData
gf:_glUniform1fv
lf:_JS_FileSystem_Sync
Qna:__ZNSt3__26__treeINS_12__value_typeI21GLESRenderTargetSetupN2gl6HandleILNS3_10ObjectTypeE9EEEEENS_19__map_value_compareIS2_S7_NS_4lessIS2_EELb1EEENS_9allocatorIS7_EEE7destroyEPNS_11__tree_nodeIS7_PvEE
ltd:_KeyPairPersistence__IsUserProtected_m438961964
tde:_Enumerator_System_Collections_IDictionaryEnumerator_get_Value_m512771145_AdjustorThunk
yOd:_String_Replace_m1273907647
lkd:_RealProxy_InternalGetProxyType_m2154819545
IXc:_NumberFormatter_NumberToString_m827252518
jf:__emscripten_sample_gamepad_data
Kff:__Z96RuntimeInvoker_Void_t1185182177_SByte_t1669577662_ByteU5BU5DU26_t4057885439_Int32U26_t1369213839PFvvEPK10MethodInfoPvPS4_
Vaf:__Z78RuntimeInvoker_Boolean_t97287965_RuntimeObject_RuntimeObject_SByte_t1669577662PFvvEPK10MethodInfoPvPS4_
S3e:_Camera_get_nearClipPlane_m837839537
qL:__Z34scripting_class_get_declaring_type17ScriptingClassPtr
S5b:__ZN11UnityEngine7Connect20BasePersistentValues13RestoreValuesER8JSONRead
XXa:__ZN11TimeManagerD0Ev
_w:__ZN12AudioManager33GetAudioEffectInternalDefinitionsEv
HNa:__ZN9Texture2D16DeleteGfxTextureEv
H4a:__ZN20LocalFileSystemPosix4OpenER13FileEntryData14FilePermission16FileAutoBehavior
ise:_TimeSpan_Subtract_m1264203589
Hgg:__ZN6il2cpp2gc19AppendOnlyGCHashMapIPK10Il2CppTypeP20Il2CppReflectionTypeNS_8metadata14Il2CppTypeHashENS7_26Il2CppTypeEqualityComparerEEC2Ev
zcc:_CustomAttributeData_GetCustomAttributes_m2141595938
S3f:__ZN15dense_hashtableINSt3__24pairIK10KeyWrapperIN6il2cpp5utils13dynamic_arrayIPK10Il2CppTypeLj4EEEEPFvvEEESA_NS3_8metadata19Il2CppSignatureHashEN14dense_hash_mapISA_SD_SG_NSA_14EqualsComparerINSF_22Il2CppSignatureCompareEEENS0_9allocatorISE_EEE9SelectKeyESK_SM_ED2Ev
mWc:_MonoType_GetMethodsByName_m2005909471
EHb:__ZN23ManagedAttributeManager21GetRequiredComponentsE17ScriptingClassPtr
xHe:_TlsCipherSuite_ComputeServerRecordMAC_m3941098609
Ujd:_RemotingServices_Unmarshal_m3744595373
yJb:__Z23InitializeStdConvertersv
YAb:__ZN19ShaderPropertySheet17UpdateTextureInfoEiRK23FastTexturePropertyNamePK10TextureRef
fKd:_SecurityElement_IsValidAttributeName_m713904709
cTc:_StreamWriter_Write_m2487601391
Ntb:__ZZ23InitPlayerLoopCallbacksvEN38PreUpdateCheckTexFieldInputRegistrator7ForwardEv
_ga:__ZN4crnd12crn_unpacker22decode_color_endpointsEv
yrg:__ZNK10KeyWrapperINSt3__24pairIPKcS3_EEE14EqualsComparerI26NamespaceAndNamePairEqualsEclERKS5_SA_
Jic:_FieldInfo_get_IsLiteral_m534699794
mY:__Z34CleanupIntermediateRendererManagerPv
cMe:_X509Stores_Open_m1553467177
LWd:_Decimal_op_Multiply_m2389849621
gZe:_MatchCollection_get_Count_m1667454419
Fpe:_Monitor_Pulse_m82725344
o0d:_CultureInfo_get_NumberFormat_m1244033732
PQc:_FileStream_Dispose_m2599766137
wrc:_Array_Copy_m1988217701
c4e:_Camera_FireOnPreCull_m2869588437
zg:_JS_WebRequest_GetResponseHeaders
Iob:__ZNSt3__26__treeINS_12__value_typeI26SerializedObjectIdentifieriEENS_19__map_value_compareIS2_S3_NS_4lessIS2_EELb1EEENS_9allocatorIS3_EEE7destroyEPNS_11__tree_nodeIS3_PvEE
GMb:__ZN9Scripting18RaiseNullExceptionEPKcz
E_:__ZN13RuntimeStaticI13RendererSceneLb0EE16StaticInitializeEPv
Kg:_glCreateProgram
sgg:__ZN6il2cpp2vm10Reflection7IsFieldEP12Il2CppObject
jBa:__ZN24GenerateTypeTreeTransfer32TransferSTLStyleArrayWithElementI17SortingLayerEntryEEvRT_17TransferMetaFlags
dSg:_glUniformMatrix3fv__wrapper
Mqc:_X509Extension_WriteLine_m1400196767
Nhb:__Z18Transfer_BlittableI18StreamedBinaryReadILb1EELb1E12PropertyNameEvRK29SerializationCommandArgumentsR31RuntimeSerializationCommandInfo
nhg:__ZN15dense_hashtableINSt3__24pairIK10KeyWrapperIPK22Il2CppGenericParameterEPK24MonoGenericParameterInfoEES6_N6il2cpp5utils11PointerHashIS4_EEN14dense_hash_mapIS6_SA_SF_NS6_14EqualsComparerINS0_8equal_toIS5_EEEENS0_9allocatorISB_EEE9SelectKeyESK_SM_EC2ERKSP_j
HEg:_GC_general_register_disappearing_link
cV:__ZN23TransformChangeDispatch12CleanupClassEPv
zZe:_PatternCompiler_Emit_m604664654
Nye:_Array_InternalArray__ICollection_Remove_TisKeyValuePair_2_t3842366416_m278128148_gshared
RBa:__ZNK6Camera16GetTargetTextureEv
b9b:__ZNK20UnityWebRequestProtoI24UnityWebRequestTransport16AtomicRefCounter14RedirectHelper14ResponseHelper15DownloadHandler13UploadHandler12HeaderHelper14AsyncOperationE17GetUploadProgressEv
YNd:_String_CompareTo_m3030934538
n9a:__Z35Transfer_Blittable_SingleValueFieldI14SafeBinaryReadyEvRT_R17GeneralMonoObjectRK23StaticTransferFieldInfo
Exb:__ZN13BatchRenderer12EndLoopFlushEv
Fqc:_X509CertificateEnumerator_System_Collections_IEnumerator_Reset_m2928805663
OCd:_X509ChainElementEnumerator_System_Collections_IEnumerator_get_Current_m1913555061
nMd:_Single_System_IConvertible_ToDouble_m1584722292_AdjustorThunk
oPb:__ZN16MessageForwarder23RegisterMessageCallbackEiPFvPviR11MessageDataEPKN5Unity4TypeE
v_c:_MD2Managed_HashFinal_m808964912
PTd:_DateTime_op_Equality_m1022058599
FFa:__ZN4Mesh30AcquireSharedMeshRenderingDataEv
uh:_gmtime
Bh:_emscripten_glUniform3i
Jda:__ZNK7ApiGLES10GetContextEv
K7a:__Z18Transfer_BlittableI14SafeBinaryReadLb1E5RectTIfEEvRK29SerializationCommandArgumentsR31RuntimeSerializationCommandInfo
iQa:__ZN15TextureSettings14SetAnisoLimitsEii
Uf:_glGetFramebufferAttachmentParameteriv
meb:__Z19TransferField_ArrayI24GenerateTypeTreeTransfer27Converter_SimpleNativeClassI10RectOffsetEEvRK23StaticTransferFieldInfoR31RuntimeSerializationCommandInfoRT0_
qwe:_UInt64_System_IConvertible_ToUInt32_m2784653358_AdjustorThunk
bEa:__Z40ConfigureBlockRangesWithMinIndicesPerJobP10BlockRangeii
Tja:__ZN6prcoreL17RemapGenericFloatI18TexFormatARGBFloat15TexFormatRGHalfEEvPKNS_9InnerInfoE
F6a:__ZNSt3__26vectorI4PPtrI10MonoScriptE13stl_allocatorIS3_L18MemLabelIdentifier78ELi16EEE8__appendEj
OXg:_emscripten_glIsProgram__wrapper
qRb:__ZL22PrepareMeshRenderNodesILb1EEvR35RenderNodeQueuePrepareThreadContext
i5a:__ZN20LocalFileSystemPosix5TouchER13FileEntryData
f_b:__ZN9JSONWrite8TransferI13dynamic_arrayItLj2EEEEvRT_PKc17TransferMetaFlags
Sh:_emscripten_glDrawElements
IKc:_NumberFormatter_AppendDecimalString_m10636623
BBf:__ZL59ParameterBuilder_t1137139675_CustomAttributesCacheGeneratorP21CustomAttributesCache
wTg:_glVertexAttrib4fv__wrapper
gD:__ZN11UnityEngine15CloudWebService23WebRequestUploadHandlerD2Ev
X7a:__ZL26Transfer_SimpleNativeClassI14SafeBinaryRead8GradientLb0EEvRK29SerializationCommandArgumentsR31RuntimeSerializationCommandInfo
bXg:_emscripten_glClientActiveTexture__wrapper
eff:__Z68RuntimeInvoker_Boolean_t97287965_Int32_t2950945753_SByte_t1669577662PFvvEPK10MethodInfoPvPS4_
lbc:_Assembly_GetExecutingAssembly_m4021024968
J1f:__ZNK15dense_hashtableINSt3__24pairIK10KeyWrapperIPKcEP11Il2CppClassEES5_N6il2cpp5utils11StringUtils12StringHasherIS4_EEN14dense_hash_mapIS5_S8_SE_NS5_14EqualsComparerINSB_13VmStringUtils21CaseSensitiveComparerEEENS0_9allocatorIS9_EEE9SelectKeyESJ_SL_E10test_emptyEj
Lld:_MessageFormatter_ReadMethodResponse_m1946725361
uJe:_PKCS12__ctor_m1587304645
zPa:__ZN21EnlightenSceneMappingD2Ev
MWb:__ZN5Unity9rapidjson13GenericReaderINS0_4UTF8IcEES3_13JSONAllocatorE9ParseHex4INS0_25GenericInsituStringStreamIS3_EEEEjRT_
Loa:__Z17ComputeMipmapSizeiii14GraphicsFormat
TYd:_Double_TryParseStringConstant_m3290212599
Pkg:__ZNK15dense_hashtableINSt3__24pairIK10KeyWrapperINS1_IP11Il2CppClassjEEES4_EES6_N6il2cpp8metadata14ArrayClassHashEN14dense_hash_mapIS6_S4_SB_NS6_14EqualsComparerINSA_17ArrayClassCompareEEENS0_9allocatorIS8_EEE9SelectKeyESF_SH_E3endEv
HCc:_CollectionBase_OnValidate_m1606907366
LI:__Z16realloc_internalPvjj10MemLabelId15AllocateOptionsPKci
jqf:__Z78RuntimeInvoker_Void_t1185182177_RuntimeObject_RuntimeObject_Single_t1397266774PFvvEPK10MethodInfoPvPS4_
SZ:__ZN14PlayableOutput15PrepareTraverseERK9FrameData
Log:__ZN6il2cpp2vm13LivenessState25FieldCanContainReferencesEP9FieldInfo
pmb:__ZL19RequireCorLibMethodPKcS0_S0_
PN:__ZNK5Unity9Component22GetTypeVirtualInternalEv
sl:_emscripten_get_fullscreen_status
Gka:__ZN6prcoreL26RemapGenericIntegerToFloatI17TexFormatARGB888817TexFormatRGBFloatEEvPKNS_9InnerInfoE
ohd:_MethodDictionary_SetMethodProperty_m3032369066
vag:__ZN6il2cpp2vm14TypeNameParser26ParseTypeArgumentsOptionalERi
rFb:__ZN15LODGroupManager27GarbageCollectCameraLODDataEv
HIb:__ZN13ScreenManagerC2Ev
zdb:__Z18Transfer_BlittableI24GenerateTypeTreeTransferLb0E12PropertyNameEvRK29SerializationCommandArgumentsR31RuntimeSerializationCommandInfo
Fda:__ZN7ApiGLES4InitERK14GfxContextGLESR16GfxDeviceLevelGL
Hkd:_RemotingServices_CreateClientProxy_m809906894
VQ:__ZNK11LightProbes14LightProbeData33GetLightProbeInterpolationWeightsERK8Vector3fRiR8Vector4fRf
gSc:_Stream_Dispose_m2589290611
Xid:_ReturnMessage_get_LogicalCallContext_m2352570297
l$:__ZN11TypeManager36FatalErrorOnPersistentTypeIDConflictEiPKc
iF:__ZN21UnityDefaultAllocatorI17LowLevelAllocatorED0Ev
XG:__ZN8Renderer15SetIsRenderableEb
_uf:__ZL54IEnumerator_t1853284238_CustomAttributesCacheGeneratorP21CustomAttributesCache
Uka:__Z14DecodeBC7BlockP9HDRColorAPKh
grd:_BigInteger_op_RightShift_m2934036419
$Qb:__ZNK24RendererAnimationBinding12GetPPtrValueERKN11UnityEngine9Animation10BoundCurveE
J2e:_Uri_Unescape_m3373094076
twc:_Boolean_System_IConvertible_ToSByte_m806999
Ewc:_Boolean_System_IConvertible_ToUInt32_m2723177447_AdjustorThunk
PEg:_GC_new_proc_inner
Fb:invoke_fiiffi
eod:_MSCompatUnicodeTable_BuildTailoringTables_m1316979344
_6a:__Z35Transfer_Blittable_FixedBufferFieldI14SafeBinaryReadiEvRK29SerializationCommandArgumentsR31RuntimeSerializationCommandInfo
hwb:__ZNK25CameraStackRenderingState21IsRenderingLastCameraEv
eia:__ZL24stbir__filter_catmullromff
PKd:_SecurityElement_AddChild_m1606852781
P8f:__ZN6il2cpp6icalls8mscorlib6SystemL16CheckMemberMatchI9EventInfoNS_5utils10functional6FilterINSt3__212basic_stringIcNS8_11char_traitsIcEENS8_9allocatorIcEEEENS5_13VmStringUtils21CaseSensitiveComparerEEEEEbPKT_PK11Il2CppClassSN_iRKT0_
NBe:_Array_LastIndexOf_TisRuntimeObject_m1677937501_gshared
AHb:__Z23ValidateScriptComponentP10MonoScriptPN4core12basic_stringIcNS1_20StringStorageDefaultIcEEEE
mSa:__ZNSt3__215__inplace_mergeIRNS_4lessI4PPtrI11SpriteAtlasEEENS_11__wrap_iterIPS4_EEEEvT0_SA_SA_T_NS_15iterator_traitsISA_E15difference_typeESE_PNSD_10value_typeEi
Lda:__ZN26SinglePassStereoSupportExt27InitSinglePassStereoSupportEP21ISinglePassStereoImplP9GfxDevice
$E:__ZNSt3__23mapIN19CloudServiceHandler11ServiceTypeEPS1_NS_4lessIS2_EE13stl_allocatorINS_4pairIKS2_S3_EEL18MemLabelIdentifier88ELi16EEEixERS8_
Jhd:_MethodCall_get_GenericArguments_m1010093584
aHg:__ZNSt3__26__treeINS_12__value_typeINS_12basic_stringIcNS_11char_traitsIcEENS_9allocatorIcEEEEPFvvEEENS_19__map_value_compareIS7_SA_NS_4lessIS7_EELb1EEENS5_ISA_EEE25__emplace_unique_key_argsIS7_JRKNS_21piecewise_construct_tENS_5tupleIJOS7_EEENSL_IJEEEEEENS_4pairINS_15__tree_iteratorISA_PNS_11__tree_nodeISA_PvEEiEEbEERKT_DpOT0_
WMd:_Single_ToString_m3947131094_AdjustorThunk
Tnb:__Z25scripting_field_get_flags17ScriptingFieldPtr
jod:_MSCompatUnicodeTable_Level3_m1870873670
o3a:__ZNSt3__218__insertion_sort_3IRPFbRK23TransformAccessReadOnlyS3_EPS1_EEvT0_S8_T_
_Ad:_X509ChainStatus_GetInformation_m245493206
fZe:_MatchCollection__ctor_m4138850022
r0b:__ZN8JSONRead8TransferIyEEvRT_PKc17TransferMetaFlagsb
E7a:__Z18Transfer_BlittableI14SafeBinaryReadLb0EtEvRK29SerializationCommandArgumentsR31RuntimeSerializationCommandInfo
$F:__ZNK20DynamicHeapAllocatorI17LowLevelAllocatorE8ContainsEPKv
abd:_HMAC_HashFinal_m1921180827
fTd:_DateTime__ParseString_m2913931606
Hpg:__ZN6il2cpp2vm14PlatformInvoke36MarshalCppStringToCSharpStringResultEPKc
_Cb:__ZN8Material23GetStencilWriteMaterialEv
ona:__Z12GetBlockSize14GraphicsFormat
fye:_Array_InternalArray__ICollection_Contains_TisIntPtr_t_m272531112_gshared
rkd:_RemotingProxy_get_TypeName_m4085898624
kfc:_GenericTypeParameterBuilder_not_supported_m3358960901
iBa:__ZN10TagManager8TransferI24GenerateTypeTreeTransferEEvRT_
vUe:_Collection_1_ConvertItem_m169929357_gshared
ePc:_MonoIO_GetCurrentDirectory_m762333289
Kge:_Dictionary_2_ContainsKey_m415531417_gshared
XAa:__ZN10TagManager23VirtualRedirectTransferER24GenerateTypeTreeTransfer
XDe:_Array_InternalArray__Insert_TisCustomAttributeNamedArgument_t287865710_m3526512389_gshared
_ha:__ZL23stbir__filter_trapezoidff
Jz:__Z44Register_UnityEngine_AudioClip_get_ambisonicv
Yue:_UInt32_System_IConvertible_ToBoolean_m1763673183
oGb:__ZN23ScriptableRenderContextD2Ev
fzf:__ZL52ArrayList_t2718874744_CustomAttributesCacheGeneratorP21CustomAttributesCache
k_c:_HMAC_HashFinal_m1453827676
Pdg:__ZN15dense_hashtableINSt3__24pairIK10KeyWrapperINS1_IPK10MethodInfoP11Il2CppClassEEEjEES9_17ReflectionMapHashIS8_EN14dense_hash_mapIS9_jSD_NS9_14EqualsComparerINS0_8equal_toIS8_EEEENS0_9allocatorISB_EEE9SelectKeyESI_SK_E15insert_noresizeERKSB_
eng:__ZN6il2cpp6icalls8mscorlib6System19ExtractWidenedValueE14Il2CppTypeEnumPv
IHd:_SHA256Managed_HashFinal_m2914312286
ssb:__ZN12GPUFencePoolC2Ev
vEg:_GC_invoke_finalizers
IOd:_String_Format_m2556382932
rXf:__ZL14adjustScale128PyS_i
R7a:__Z18Transfer_BlittableI14SafeBinaryReadLb0E8BitFieldEvRK29SerializationCommandArgumentsR31RuntimeSerializationCommandInfo
QGe:_Array_InternalArray__get_Item_TisTimeSpan_t881159249_m1885583191_gshared
U1d:_Guid__ctor_m3421080095
ZQ:__ZNK10GameObject25QueryComponentByExactTypeEPKN5Unity4TypeE
M2d:_U3CGetEnumeratorU3Ec__Iterator0_System_Collections_Generic_IEnumeratorU3CTU3E_get_Current_m52354244_gshared
uP:__ZNK9ShaderLab22ShaderStencilStateDesc17ToGfxStencilStateEPK19ShaderPropertySheetS3_RK14GfxRasterStateR15GfxStencilState
Vka:__Z15DecodeBC6HBlockP9HDRColorAPKh
T3e:_Camera_get_farClipPlane_m538536689
a_b:__ZN9JSONWrite8TransferI5RectTIiEEEvRT_PKc17TransferMetaFlags
Z9c:_DSA_Create_m1220983153
CEg:_GC_malloc_uncollectable
Dpc:_Array_Clone_m2672907798
M5a:__ZNK16MemoryFileSystem6ParentERK13FileEntryDataRN4core12basic_stringIcNS3_20StringStorageDefaultIcEEEE
yTc:_SynchronizedWriter_Write_m1297715977
QX:__ZN15LODGroupManagerD2Ev
Xld:_ObjectReader_ReadRefTypeObjectInstance_m3311150386
v1b:__ZN8JSONRead21TransferSTLStyleArrayI13dynamic_arrayIN4math12int2_storageELj4EEEEvRT_17TransferMetaFlags
yqd:_BigInteger_op_Multiply_m3801644593
R6e:_DefaultValueAttribute_Equals_m443523471
iya:__ZN12IFileAdapter9SetLengthER13FileEntryDatay
bc:_Mix_PlayMusic
yRd:_DateTime_System_IConvertible_ToSByte_m4130251280
L4e:_CullingGroup_SendEvents_m2491312335
t8b:__Z34GetUnityWebRequestScriptingClassesv
uRg:___cxa_pure_virtual__wrapper
JLc:_Int32_System_IConvertible_ToSByte_m3133688512_AdjustorThunk
fm:FUNCTION_TABLE_fii
Eqb:__ZN19RuntimeSceneManager24PrepareNewBootstrapSceneEv
zkd:_RemotingException__ctor_m1814113852
jdg:__ZNK15dense_hashtableINSt3__24pairIK10KeyWrapperIPK10Il2CppTypeEjEES6_N6il2cpp8metadata14Il2CppTypeHashEN14dense_hash_mapIS6_jSB_NS6_14EqualsComparerINSA_26Il2CppTypeEqualityComparerEEENS0_9allocatorIS8_EEE9SelectKeyESF_SH_E12test_deletedEj
Dta:__ZN10SpookyHash7Hash128EPKvjPyS2_
KEb:__ZL60CombineDirectionalShadowCasterCullingIndexListsAndDestroyJobP20ShadowCullingJobData
_Cc:_Hashtable__ctor_m3890751112
M3:__ZN9ShaderLab18SerializedPropertyC2ERKS0_
jWa:__ZN14SpriteRenderer10SmartResetEv
Bqe:_ThreadPool_QueueUserWorkItem_m1526970260
LPb:__ZN16ReflectionProbes20DidChangeActiveSceneEP10UnitySceneS1_
FOd:_String_ToUpperInvariant_m2531236323
cRa:__ZN16SpriteRenderData8TransferI14SafeBinaryReadEEvRT_
jRg:_emscripten_glVertexAttrib3f__wrapper
N9c:_DESTransform_GetStrongKey_m1464830895
Dcd:_RijndaelTransform_Encrypt192_m3191066202
f5a:__ZN20LocalFileSystemPosix4CopyER13FileEntryDataS1_
X2f:__ZNK15dense_hashtableI10KeyWrapperIPK19Il2CppGenericMethodES4_N6il2cpp8metadata23Il2CppGenericMethodHashEN14dense_hash_setIS4_S7_NS4_14EqualsComparerINS6_26Il2CppGenericMethodCompareEEENSt3__29allocatorIS4_EEE8IdentityESB_SE_E3endEv
UCb:__ZL31SetRenderStateForStencilMarkingR9GfxDeviceR17ShaderPassContextjj
Nya:__ZN20ArchiveStorageReader20FillChunkCachedBlockEPNS_11CachedBlockE
Ige:_Dictionary_2_Add_m653869716_gshared
lSc:_StreamAsyncResult__ctor_m3118856368
Stc:_Array_SetValue_m282347242
jOc:_BinaryReader_Read_m763986032
M9a:__ZNSt3__26vectorI17AnimationCurveTplIfE13stl_allocatorIS2_L18MemLabelIdentifier1ELi16EEE7reserveEj
due:_UInt16_System_IConvertible_ToChar_m2096055221
Y4:__ZN9ShaderLab16SerializedTagMap8TransferI19StreamedBinaryWriteILb0EEEEvRT_
JRc:_MonoIO_get_PathSeparator_m4045322458
mDd:_X509SubjectKeyIdentifierExtension_FromHex_m1011249985
Wng:__ZN6il2cpp6icalls8mscorlib6System9Threading6Thread25SetCachedCurrentUICultureEP12Il2CppThreadP12Il2CppObject
_sc:_ArithmeticException__ctor_m479063094
Yld:_ObjectReader_ReadObjectInstance_m3952621118
LEb:__Z22CullDirectionalShadowsR9IndexListPK9SceneNodePK4AABBR22DirectionalCullContext
bcc:_Default_BindToMethod_m490530316
mMc:_Int32_ToString_m2507389746
Czd:_X509KeyUsageExtension_ToString_m3542316380
mcd:_RijndaelManaged__ctor_m1562735454
D1c:_SslCipherSuite__ctor_m1470082018
w5f:__ZN15dense_hashtableINSt3__24pairIK10KeyWrapperIPK11Il2CppClassEPKcEES6_N6il2cpp5utils11PointerHashIS3_EEN14dense_hash_mapIS6_S9_SE_NS6_14EqualsComparerINS0_8equal_toIS5_EEEENS0_9allocatorISA_EEE9SelectKeyESJ_SL_E4findERS7_
XD:__ZN11UnityEngine15CloudWebService14RestDownloader7OnAbortEv
gDg:_alloc_mark_stack
eag:_AnalyticsSessionInfo_CallSessionStateChanged_m2615824008
Dba:__ZNK13GfxDeviceGLES18GetDefaultRTFormatEv
OQ:__Z13VFormatBufferPciPKcPi
neb:__Z19TransferField_ArrayI24GenerateTypeTreeTransfer27Converter_SimpleNativeClassI8GradientEEvRK23StaticTransferFieldInfoR31RuntimeSerializationCommandInfoRT0_
wHe:_TlsCipherSuite__ctor_m3580955828
rB:__ZN11UnityEngine15CloudWebService16SessionContainer16MarkAsDispatchedERKN4core12basic_stringIcNS2_20StringStorageDefaultIcEEEE
_4d:_InternalEnumerator_1_System_Collections_IEnumerator_get_Current_m2667908392_gshared
svg:__ZN6il2cpp2vm12GenericClass6IsEnumEP18Il2CppGenericClass
iWb:__ZN16memory_pool_implILi28EE15AutoPoolWrapper10InitializeEPv
VQe:_List_1_System_Collections_IList_IndexOf_m3921550135_gshared
_6e:_Logger_GetString_m3669755330
ORb:__ZN16GraphicsSettings15InitializeClassEv
n_e:_PatternLinkStack_SetCurrent_m366511098
uoe:_UTF7Decoder__ctor_m546843796
DYd:_Double_System_IConvertible_ToUInt32_m271206838_AdjustorThunk
P8:__ZNK13GfxDeviceGLES11GetViewportEv
fTb:__ZN14AsyncOperation26ClearCachedScriptingObjectEv
j7:__ZNK9ShaderLab11ShaderState34ShouldRemoveAnyUnsupportedProgramsEv
XEe:_Array_InternalArray__set_Item_TisResourceCacheItem_t51292791_m3621128445_gshared
IVe:_ReadOnlyCollection_1_System_Collections_IList_Add_m1881324749_gshared
r6f:__ZL32InitializeCustomAttributesCachesPv
qza:__ZN20ArchiveStorageReaderD0Ev
x0:__ZN6Shader23VirtualRedirectTransferER19StreamedBinaryWriteILb0EE
$7b:__ZN19TransportJavaScript7PrepareEv
j2e:_Uri__ctor_m3848281005
G$b:__Z35Transfer_Blittable_FixedBufferFieldI8JSONReadaEvRK29SerializationCommandArgumentsR31RuntimeSerializationCommandInfo
l5a:__ZNK20LocalFileSystemPosix20GetApplicationFolderEv
Bnd:_StreamingContext_Equals_m2722903674_AdjustorThunk
tB:__ZN11UnityEngine15CloudWebService14DataDispatcher31SetupSessionContainerToDispatchEv
Xlb:__Z29Transfer_Blittable_ArrayFieldI18StreamedBinaryReadILb0EE8Vector3fEvRT_R9ArrayInfoRK23StaticTransferFieldInfo
w9c:_CspParameters__ctor_m1928090281
GJa:__ZN9ShaderLab11shaderprops9GetVectorEPK19ShaderPropertySheetS3_NS_16FastPropertyNameE
Mt:__ZN4FMOD12ChannelGroup10getDSPHeadEPPNS_3DSPE
gt:__ZN12AudioManager17MainThreadCleanupEv
CKd:_Evidence_CopyTo_m872435527
Hrc:_SecurityParser_OnEndElement_m2088612360
mN:__ZNK6Camera18ScreenToWorldPointERK8Vector3f
Jng:__ZN6il2cpp6icalls8mscorlib6System9Threading6Thread11GetDomainIDEv
Mea:__ZNK13TranslateGLES13GetFormatDescE14GraphicsFormat
swa:__ZN17ArchiveFileSystemD0Ev
N_e:_BackslashNumber_ResolveReference_m4176908213
U6d:_InternalEnumerator_1_System_Collections_IEnumerator_get_Current_m888718134_AdjustorThunk
pBc:_SynchronizedArrayListWrapper_IndexOf_m1028529531
BXf:__ZL22div192by96to32withRestPyS_S_jjj
JBb:__ZN14qsort_internal5QSortIP20ShadowCasterSortDatai26ShadowCasterSortDataSorterEEvT_S4_T0_T1_
gE:__ZN11UnityEngine15CloudWebService19SessionEventManager5StartERKN4core12basic_stringIcNS2_20StringStorageDefaultIcEEEEii
bye:_Array_InternalArray__ICollection_Contains_TisDouble_t594665363_m1696010878_gshared
H9a:__Z22TransferField_NonArrayI14SafeBinaryRead27Converter_SimpleNativeClassI8GradientEEvRK23StaticTransferFieldInfoR31RuntimeSerializationCommandInfoRT0_
Re:_emscripten_glBufferData
$yb:__Z25DoForwardShaderRenderLoopRK17RenderLoopContextR13dynamic_arrayI16RenderObjectDataLj4EERK11CullResultsbbbN6Camera10RenderFlagE
Ve:_glUniform3iv
ALg:___fseeko
pYb:__Z18Transfer_BlittableI9JSONWriteLb0E9BoundsIntEvRK29SerializationCommandArgumentsR31RuntimeSerializationCommandInfo
ste:_Type_GetMethod_m1197120913
eMg:_fwrite
eoc:_COMException__ctor_m3707984232
Imb:__ZN13MonoBehaviourD0Ev
ZUf:_SymmetricTransform_CTS_m764800021
JLg:_pipe
rJe:_SubjectAltNameExtension_ToString_m3628154311
n6e:_RenderPipelineManager_get_currentPipeline_m1638613344
B3:__ZNSt3__26vectorIN9ShaderLab19SerializedSubShaderENS_9allocatorIS2_EEE6resizeEj
dwa:__ZN4FileC2Ev
amf:__Z81RuntimeInvoker_Void_t1185182177_RuntimeObject_Double_t594665363_Int32_t2950945753PFvvEPK10MethodInfoPvPS4_
Wrd:_BitConverterLE_UIntFromBytes_m3974925535
Tse:_Type_GetTypeFromHandle_m1620074514
Wdg:__ZN15dense_hashtableINSt3__24pairIK10KeyWrapperINS1_IPK10MethodInfoP11Il2CppClassEEEjEES9_17ReflectionMapHashIS8_EN14dense_hash_mapIS9_jSD_NS9_14EqualsComparerINS0_8equal_toIS8_EEEENS0_9allocatorISB_EEE9SelectKeyESI_SK_E12maybe_shrinkEv
KAa:__ZN14BatchAllocator16AllocateInternalEPPvijjj
LNb:__Z13RegisterClassI6SpriteEvv
Ssc:_ArgumentException_get_Message_m520762021
I4d:_InternalEnumerator_1_System_Collections_IEnumerator_get_Current_m1641466962_AdjustorThunk
q2f:__ZN14dense_hash_setI10KeyWrapperIPK17Il2CppGenericInstEN6il2cpp8metadata21Il2CppGenericInstHashENS4_14EqualsComparerINS6_24Il2CppGenericInstCompareEEENSt3__29allocatorIS4_EEEC2EjRKS7_RKSA_
Gvd:_HybridDictionary_Switch_m3818192922
xCg:_min_bytes_allocd
Nib:__ZN17AnimationCurveTplIfE15InvalidateCacheEv
MRa:__ZN6Sprite8TransferI19StreamedBinaryWriteILb0EEEEvRT_
fDe:_Array_InternalArray__ICollection_CopyTo_TisLabelData_t360167391_m175414846_gshared
vqd:_BigInteger_op_Implicit_m378428706
A7e:_PlayerConnection_DisconnectedCallback_m1697017309
$_a:__Z14resize_trimmedINSt3__26vectorIi13stl_allocatorIiL18MemLabelIdentifier13ELi16EEEEEvRT_j
Vrd:_BitConverterLE_UShortFromBytes_m1253080092
klb:__Z22TransferField_NonArrayI18StreamedBinaryReadILb0EE27Converter_SimpleNativeClassI8GUIStyleEEvRK23StaticTransferFieldInfoR31RuntimeSerializationCommandInfoRT0_
LYd:_Double_CompareTo_m3151899116_AdjustorThunk
sXc:_NumberFormatter_Init_m2982613221
uec:_EnumBuilder_GetCustomAttributes_m166600193
hVf:_Check_Source_m4098695967
rHc:_Convert_ToInt32_m2128774575
tEg:_GC_notify_or_invoke_finalizers
Bwg:__ZN6il2cpp2os6Thread5SleepEjb
sib:__ZN18StreamedBinaryReadILb1EE21TransferSTLStyleArrayIN4core12basic_stringIcNS2_20StringStorageDefaultIcEEEEEEvRT_17TransferMetaFlags
WNd:_String_Compare_m1293271421
yLc:_Int32_System_IConvertible_ToDateTime_m1824716955_AdjustorThunk
iRg:_emscripten_glUniform3f__wrapper
Aab:__ZN14SafeBinaryRead21TransferSTLStyleArrayI13dynamic_arrayI10ColorRGBAfLj4EEEEvRT_17TransferMetaFlags
$Pe:_List_1_set_Item_m3289315279_gshared
ULc:_Int32_CompareTo_m2864982090
hzg:__ZN15dense_hashtableINSt3__24pairIK10KeyWrapperIPK19Il2CppGenericMethodEP10MethodInfoEES6_N6il2cpp8metadata23Il2CppGenericMethodHashEN14dense_hash_mapIS6_S9_SD_NS6_14EqualsComparerINSC_26Il2CppGenericMethodCompareEEENS0_9allocatorISA_EEE9SelectKeyESH_SJ_E4findERS7_
cBa:__ZN10TagManager23AddDefaultLayerIfNeededEv
sDa:__ZN10FlareLayer12AddToManagerEv
$Y:__ZN18AsyncUploadManagerC2E10MemLabelId
Jqa:__ZNSt3__26vectorINS_4pairI5CbKeyPN19ConstantBuffersGLES11ConstBufferEEENS_9allocatorIS6_EEE21__push_back_slow_pathIKS6_EEvRT_
oVb:__Z36CullingGroup_CUSTOM_FinalizerFailureP12Il2CppObject
bmg:__ZNK15dense_hashtableINSt3__24pairIK10KeyWrapperINS1_IP11Il2CppClassjEEES4_EES6_N6il2cpp8metadata14ArrayClassHashEN14dense_hash_mapIS6_S4_SB_NS6_14EqualsComparerINSA_17ArrayClassCompareEEENS0_9allocatorIS8_EEE9SelectKeyESF_SH_E12test_deletedEj
qYa:__ZN13BuildSettings23VirtualRedirectTransferER24GenerateTypeTreeTransfer
deb:__ZN24GenerateTypeTreeTransfer21TransferSTLStyleArrayINSt3__26vectorI8GUIStyle13stl_allocatorIS3_L18MemLabelIdentifier1ELi16EEEEEEvRT_17TransferMetaFlags
S_b:__Z18Transfer_BlittableI8JSONReadLb1E8Vector2fEvRK29SerializationCommandArgumentsR31RuntimeSerializationCommandInfo
Iya:__ZN20ArchiveStorageReader15ReadFromStorageEyyPvPy
aZd:_Double_ToString_m1051753975
wub:__Z16PresentAfterDrawN9GfxDevice11PresentModeE
gga:__ZN10DynamicVBO19FillQuadIndexBufferER21DynamicVBOChunkHandle
oKe:_PKCS12_Clone_m2085085101
Fzg:__ZN6il2cpp2vm6String8NewUtf16ERKNS_5utils10StringViewIDsEE
O_c:_MD5SHA1__ctor_m4081016482
qTg:_glGenFramebuffers__wrapper
FVg:_glBindBufferBase__wrapper
dUe:_Collection_1_Add_m1180505945_gshared
szb:__ZN22MotionVectorRenderLoop16PerformRenderingER8JobFence
JUg:_glTexSubImage2D__wrapper
AD:__ZN11UnityEngine15CloudWebService18RestFileDownloader13OnReceiveDataEPKvj
oXb:__ZN5Unity9rapidjson6WriterI16TempBufferWriterNS0_4UTF8IcEES4_13JSONAllocatorE10StartArrayEv
gVe:_ReadOnlyCollection_1_System_Collections_IEnumerable_GetEnumerator_m610559569_gshared
Vie:_Dictionary_2_ToTValue_m4148303222_gshared
rQg:dynCall_iiiiiiiii
q0:__ZN6ShaderD0Ev
$Mb:__ZN18BackgroundJobQueue19ScheduleJobInternalEPFvPvES0_RKNS_8JobFenceE
xtg:__ZN6il2cpp2gc8GCHandle9GetTargetEj
Vub:__ZN25CameraStackRenderingState18EndStereoRenderingEv
P4a:__ZN20LocalFileSystemPosix9SetLengthER13FileEntryDatay
PNc:_IntPtr_op_Explicit_m1593085246
wIg:__ZN6il2cpp5utils25NativeDelegateMethodCache17GetNativeDelegateEPFvvE
KFa:__Z27ConvertSubMeshesToTrianglesItEvR13dynamic_arrayI7SubMeshLj4EERS0_IhLj1EE
tj:_emscripten_glGetProgramiv
yZa:__ZN26PlayerSettingsSplashScreen8TransferI24GenerateTypeTreeTransferEEvRT_
Lja:__ZN6prcoreL17RemapGenericFloatI18TexFormatRGBAFloat14TexFormatRHalfEEvPKNS_9InnerInfoE
d_d:_Environment_get_Platform_m520224871
SYd:_FormatException__ctor_m1479314061
Sf:_glScissor
B0d:_CultureInfo_insert_into_shared_tables_m4239017467
a5b:__ZNSt3__26__treeINS_12__value_typeIN4core12basic_stringIcNS2_20StringStorageDefaultIcEEEE14CallbackArray2IRKS6_R8JSONReadEEENS_19__map_value_compareIS6_SD_NS_4lessIS6_EELb1EEE13stl_allocatorISD_L18MemLabelIdentifier6ELi16EEE7destroyEPNS_11__tree_nodeISD_PvEE
LHe:_TlsClientSettings_set_ClientCertificate_m3374228612
rRc:_MemoryStream_Read_m337792459
WDe:_Array_InternalArray__Insert_TisRuntimeObject_m1619219378_gshared
aTc:_StreamWriter_LowLevelWrite_m1318762026
WWc:_MulticastDelegate_GetHashCode_m3864330728
xff:__Z133RuntimeInvoker_Int32_t2950945753_RuntimeObject_RuntimeObject_Int32_t2950945753_Int32_t2950945753_RuntimeObject_ContextU26_t3937453398PFvvEPK10MethodInfoPvPS4_
qaa:__ZN13GfxDeviceGLES21RegisterNativeTextureE9TextureIDi16TextureDimension
rm:FUNCTION_TABLE_iiiiiiif
ghf:__Z118RuntimeInvoker_Int32_t2950945753_IntPtr_t_RuntimeObject_Int32_t2950945753_Int32_t2950945753_MonoIOErrorU26_t1548853198PFvvEPK10MethodInfoPvPS4_
bWg:_emscripten_glUniform4fv__wrapper
om:FUNCTION_TABLE_iiiiiiii
m$:__ZN4core8hash_mapIiP4RTTIN11TypeManager27HashFunctorPersistentTypeIDENSt3__28equal_toIiEEEixERKi
h2b:__ZN19ControllerHitReportD2Ev
O7d:_InternalEnumerator_1_System_Collections_IEnumerator_get_Current_m4189894603_gshared
fGg:__ZN6il2cpp2os11MutexHandle4WaitEv
pD:__ZN11UnityEngine15CloudWebService23WebRequestUploadHandler8GetBytesEv
gMd:_Single_System_IConvertible_ToChar_m1898259383
xia:__ZN6prcoreL12RemapGenericI11TexFormatI817TexFormatARGB4444EEvPKNS_9InnerInfoE
i2d:_Guid_Equals_m1866984197_AdjustorThunk
cZa:__ZNK14PlayerSettings22GetTypeVirtualInternalEv
mGc:_Convert_ToChar_m2261593104
Frg:__ZN15dense_hashtableINSt3__24pairIK10KeyWrapperINS1_IPKcS4_EEEiEES6_24NamespaceAndNamePairHashN14dense_hash_mapIS6_iS9_NS6_14EqualsComparerI26NamespaceAndNamePairEqualsEENS0_9allocatorIS8_EEE9SelectKeyESD_SF_EC2ERKSI_j
qyf:__ZL61ComImportAttribute_t1295173782_CustomAttributesCacheGeneratorP21CustomAttributesCache
CZd:_Enum_FormatSpecifier_X_m2932245600
DZ:__ZN15DirectorManager12RegisterJobsEP13PlayableGraph
sFc:_Stack_Push_m2529252115
bE:__ZN11UnityEngine15CloudWebService14DataDispatcher10InitializeERKN4core12basic_stringIcNS2_20StringStorageDefaultIcEEEEPvjRNS0_18ICloudJobSchedulerE
G7b:__ZN22CrashReportingSettingsC2Ev
S9c:_DESTransform__cctor_m244488330
M9:__ZN13GfxDeviceGLES23ResolveDepthIntoTextureE12ObjectHandleI17RenderSurface_TagP17RenderSurfaceBaseES4_
nBg:__ZN6il2cpp2vm13ComObjectBaseD2Ev
Rbc:_AssemblyName_OnDeserialization_m3779987437
OE:__ZN11UnityEngine15CloudWebService14DataDispatcher17PlayerLoopHandlerEv
NGc:_Convert_ToDouble_m1177445661
lEd:_Interpreter_GetString_m94448266
w5b:__ZN11UnityEngine7Connect15AppRunningEventC2Ejjjj
dL:__Z26GetManagedAttributeManagerv
xJg:__ZN6il2cpp6icalls8mscorlib6System8DateTime16GetTimeMonotonicEv
npa:__ZN19ComputeShaderKernelC2ERKS_
_Fa:__ZN4Mesh14ClearSkinCacheEv
e4a:__ZNK12HandlerChain12LastModifiedERK13FileEntryData
gLc:_NumberFormatter_InitDecHexDigits_m829694854
XYb:__Z18Transfer_BlittableI9JSONWriteLb0EjEvRK29SerializationCommandArgumentsR31RuntimeSerializationCommandInfo
dYe:_UnityAction_2_BeginInvoke_m1769266175_gshared
r5:__ZL15GetIndexForNameRNSt3__23mapIN4core12basic_stringIcNS1_20StringStorageDefaultIcEEEEiNS_4lessIS5_EENS_9allocatorINS_4pairIKS5_iEEEEEERSA_
fg:__exit
Kcf:__Z86RuntimeInvoker_Int32_t2950945753_Int16_t2552820387_Int32_t2950945753_Int32_t2950945753PFvvEPK10MethodInfoPvPS4_
NNc:_IntPtr_op_Inequality_m3063970704
h3b:__ZN22BaseUnityConnectClient19OnEnterStateStoppedEv
gpb:__ZL31FindActiveTransformWithPathImplPKcR10GameObjectb
fSg:_glViewport__wrapper
yUe:_ReadOnlyCollection_1_System_Collections_Generic_ICollectionU3CTU3E_Add_m3521523143_gshared
zQg:b5
k5c:_SendRecordAsyncResult__ctor_m425551707
sDf:__ZL57DispIdAttribute_t491906453_CustomAttributesCacheGeneratorP21CustomAttributesCache
sQg:b0
tQg:b1
uQg:b2
GUa:__ZN4Mesh8TransferI24GenerateTypeTreeTransferEEvRT_
mbf:__Z128RuntimeInvoker_Boolean_t97287965_Int32U26_t1369213839_RuntimeObject_SByte_t1669577662_SByte_t1669577662_ExceptionU26_t3600731591PFvvEPK10MethodInfoPvPS4_
p_b:__ZN9JSONWrite8TransferI13dynamic_arrayI10ColorRGBAfLj4EEEEvRT_PKc17TransferMetaFlags
CQg:b8
DQg:b9
u7f:__ZN6il2cpp2vm21ThreadPoolCompartmentC2Ev
CKa:__Z14resize_trimmedINSt3__26vectorIN4core12basic_stringIcNS2_20StringStorageDefaultIcEEEE13stl_allocatorIS6_L18MemLabelIdentifier1ELi16EEEEEvRT_j
pB:__ZN11UnityEngine15CloudWebService16SessionContainer13DeleteArchiveERKN4core12basic_stringIcNS2_20StringStorageDefaultIcEEEE
uZd:_Enum_System_IConvertible_ToSingle_m1234919892
fyd:_IPv6Address_Parse_m3004687047
udg:__ZN15dense_hashtableINSt3__24pairIK10KeyWrapperIPK10Il2CppTypeEjEES6_N6il2cpp8metadata14Il2CppTypeHashEN14dense_hash_mapIS6_jSB_NS6_14EqualsComparerINSA_26Il2CppTypeEqualityComparerEEENS0_9allocatorIS8_EEE9SelectKeyESF_SH_E9copy_fromERKSK_j
hE:__ZN19CloudServiceHandler17PauseEventHandlerEb
x7:__ZN19ShaderPropertySheetD0Ev
wje:_DefaultComparer_GetHashCode_m605456464_gshared
aGd:_RIPEMD160Managed_HHH_m2839246531
Mue:_UInt32_Parse_m2778221109
Hdb:__Z18Transfer_BlittableI24GenerateTypeTreeTransferLb0EaEvRK29SerializationCommandArgumentsR31RuntimeSerializationCommandInfo
YA:__ZN11UnityEngine15CloudWebService18CloudServiceConfigD2Ev
aka:__ZN6prcoreL17RemapGenericFloatI15TexFormatRGHalf15TexFormatRFloatEEvPKNS_9InnerInfoE
e3a:__ZN2UI13RectTransform8TransferI19StreamedBinaryWriteILb0EEEEvRT_
BVc:_MonoCustomAttrs_IsDefinedInternal_m2193933235
glc:_MonoMethod_get_IsGenericMethodDefinition_m3024870835
Oya:__ZN20ArchiveStorageReader18DestroyCachedBlockEPNS_11CachedBlockE
Ugg:__ZN15dense_hashtableINSt3__24pairIK10KeyWrapperIPK14Il2CppAssemblyEPK22Il2CppMonoAssemblyNameEES6_N6il2cpp5utils11PointerHashIS4_EEN14dense_hash_mapIS6_SA_SF_NS6_14EqualsComparerINS0_8equal_toIS5_EEEENS0_9allocatorISB_EEE9SelectKeyESK_SM_E9copy_fromERKSP_j
I5:__ZN9ShaderLab4Pass24CreateFromSerializedPassERKNS_14SerializedPassEPK6Shader
Zad:_HMAC_Dispose_m3665032088
Lk:_emscripten_set_deviceorientation_callback
wSa:__ZNK14Texture2DArray22GetTypeVirtualInternalEv
igg:__ZN6il2cpp2vm10Reflection15GetParamObjectsEPK10MethodInfoP11Il2CppClass
YZ:__ZN8Playable16ProcessPlayStateERK19DirectorVisitorInfo
Wpc:_X501_ToString_m2278029064
KXa:__ZN14SafeBinaryRead21TransferSTLStyleArrayI13dynamic_arrayI9InputAxisLj4EEEEvRT_17TransferMetaFlags
Jog:__ZN6il2cpp2vm13LivenessState14TraverseObjectEP12Il2CppObjectPS1_
hb:invoke_viifiii
fIa:__ZNK13RenderTexture12IsMemorylessEv
Q6:__ZN9ShaderLab20SerializedSubProgram15AddTextureParamEPKciib16TextureDimension
Z_a:__ZN14SafeBinaryRead21TransferSTLStyleArrayINSt3__26vectorIN30RuntimeInitializeOnLoadManager15ClassMethodInfoE13stl_allocatorIS4_L18MemLabelIdentifier13ELi16EEEEEEvRT_17TransferMetaFlags
K_e:_Parser_NewParseException_m686511029
HVc:_MonoEnumInfo__ctor_m3350651181_AdjustorThunk
cha:__ZN4crnd12crn_unpacker22decode_alpha_selectorsEv
LDg:_GC_print_heap_sects
Psb:__ZN16GeometryJobTasksC2E10MemLabelId
iUb:__ZN9Scripting30CreateScriptableObjectWithTypeE28ScriptingSystemTypeObjectPtrb
qlf:__Z131RuntimeInvoker_Int32_t2950945753_RuntimeObject_Int32_t2950945753_RuntimeObject_RuntimeObject_SByte_t1669577662_Int32U26_t1369213839PFvvEPK10MethodInfoPvPS4_
p8:__ZN13GfxDeviceGLES19SetUserBackfaceModeEb
oBb:__ZN30ForwardShaderRenderLoopScratchD2Ev
que:_UInt16_System_IConvertible_ToInt64_m3635199533_AdjustorThunk
c2e:_Uri_CompactEscaped_m2984961597
pBg:__ZN6il2cpp6icalls8mscorlib6System7Runtime16CompilerServices14RuntimeHelpers22get_OffsetToStringDataEv
h6b:__ZN20UnityConnectSettingsD0Ev
UDa:__Z15GetLightManagerv
mFa:__ZN9GfxDevice24GetMaxStaticBatchIndicesEv
GTd:_DateTime_Subtract_m3522513701
lra:__ZN9GfxDevice13SetViewMatrixERK10Matrix4x4f
lCa:__ZN13MonoBehaviour30InvokeMethodOrCoroutineCheckedE18ScriptingMethodPtr18ScriptingObjectPtrP21ScriptingExceptionPtr
Ryd:_WebHeaderCollection_get_Keys_m910440889
iva:__ZNSt3__27__sort3IRN18AssetBundleManager27SortPreloadDataByIdentifierEPNS1_11PreloadDataEEEjT0_S6_S6_T_
t8:__ZN9GfxDevice21SetWorldMatrixAndTypeERK10Matrix4x4f13TransformType
sDc:_Hashtable_set_Item_m1120781262
wd:emscriptenWebGLComputeImageSize
_pa:__Z19GetVertexFormatSize12VertexFormat
wRe:_List_1_get_Item_m1878021807_gshared
kOa:__ZN17SharedTextureData17GetImageReferenceEP14ImageReferenceii
z1f:__ZN15dense_hashtableINSt3__24pairIK10KeyWrapperIPKcEP11Il2CppClassEES5_N6il2cpp5utils11StringUtils12StringHasherIS4_EEN14dense_hash_mapIS5_S8_SE_NS5_14EqualsComparerINSB_13VmStringUtils21CaseSensitiveComparerEEENS0_9allocatorIS9_EEE9SelectKeyESJ_SL_EC2ERKSO_j
_vg:__ZN6il2cpp6icalls8mscorlib6System9AppDomain15getFriendlyNameEP15Il2CppAppDomain
tSa:__ZN14Texture2DArray13AwakeFromLoadE17AwakeFromLoadMode
Zic:_MemberInfoSerializationHolder_GetRealObject_m3590242972
axb:__ZL18ReplacementPassJobPN21GfxDeviceAsyncCommand10ArgScratchEPKNS_3ArgE
Rce:_Comparer_1__cctor_m1360765445_gshared
o8:__ZN13GfxDeviceGLES12GetSRGBWriteEv
iwa:__ZN6ObjectC2E10MemLabelId18ObjectCreationMode
P$:__ZNSt3__219__merge_move_assignIRNS_4lessIN4core12basic_stringIcNS2_20StringStorageDefaultIcEEEEEEPS6_S9_NS_11__wrap_iterIS9_EEEEvT0_SC_T1_SD_T2_T_
h$e:_Parser_ParseOptions_m2606822689
e4b:__ZN11UnityEngine15PlatformWrapper15GetBuildVersionEv
QGd:_RSAPKCS1KeyExchangeFormatter__ctor_m1170240343
_de:_Enumerator_VerifyCurrent_m829026141_AdjustorThunk
qPa:__ZN18StreamedBinaryReadILb0EE21TransferSTLStyleArrayI13dynamic_arrayI33EnlightenTerrainChunksInformationLj4EEEEvRT_17TransferMetaFlags
rjd:_SoapServices_GetAssemblyName_m1160306025
ACa:__ZN18ScriptingArguments9AddIntPtrEPv
M9d:_InternalEnumerator_1_get_Current_m3911557813_AdjustorThunk
Eac:_OverflowException__ctor_m694321376
UT:__ZNSt3__26__treeINS_12__value_typeINS_4pairIPcS3_EEPFbPvR14SafeBinaryReadEEENS_19__map_value_compareIS4_SA_20smaller_tstring_pairIPKcELb1EEENS_9allocatorISA_EEE7destroyEPNS_11__tree_nodeISA_S5_EE
dK:__ZN19ScriptingInvocationC2E18ScriptingMethodPtr
led:_LeaseManager_SetPollTime_m3584231103
n0f:__ZN6il2cpp2vm5Class9IsGenericEPK11Il2CppClass
d7a:__Z18Transfer_BlittableI14SafeBinaryReadLb0EfEvRK29SerializationCommandArgumentsR31RuntimeSerializationCommandInfo
fCe:_Array_InternalArray__ICollection_Add_TisDouble_t594665363_m4118067936_gshared
Kvb:__Z11CopyTextureP7TextureiiiiiiS0_iiii
SSg:_glFramebufferTextureLayer__wrapper
R_:__ZNSt3__26__treeINS_12__value_typeIPK6CameraNS_6vectorIfNS_9allocatorIfEEEEEENS_19__map_value_compareIS4_S9_NS_4lessIS4_EELb1EEENS6_IS9_EEE7destroyEPNS_11__tree_nodeIS9_PvEE
eEd:_Interpreter_ReadProgramCount_m1121096263
NWc:_MonoType_get_DeclaringType_m90362326
S6b:__ZN16UnityAdsSettings5ResetEv
o6b:__ZN20UnityConnectSettings23VirtualRedirectTransferER24GenerateTypeTreeTransfer
Zsc:_ArgumentOutOfRangeException_get_Message_m1913926628
nr:__ZN9AudioClip8TransferI24GenerateTypeTreeTransferEEvRT_
yJc:_Int16_System_IConvertible_ToSingle_m3569332870_AdjustorThunk
cd:_pthread_getspecific
bSd:_DateTime_System_IConvertible_ToUInt16_m4182197229
aZa:__ZN14PlayerSettings5ResetEv
Qee:_Enumerator_MoveNext_m1107569389_AdjustorThunk
jfe:_ShimEnumerator_Reset_m2548503932_gshared
OEd:_IntStack_Push_m1082581210_AdjustorThunk
SXa:__ZN9InputAxis8TransferI24GenerateTypeTreeTransferEEvRT_
Ire:_TimeSpan_get_TotalHours_m306507525_AdjustorThunk
she:_Dictionary_2_Add_m4262304220_gshared
iZ:__ZZN15DirectorManager15InitializeClassEvEN40EarlyUpdateDirectorSampleTimeRegistrator7ForwardEv
lna:__ZN7ApiGLES15BlitFramebufferEN2gl6HandleILNS0_10ObjectTypeE9EEENS0_15FramebufferReadES3_iiNS0_15FramebufferTypeE
TGa:__ZN14RenderSettings8TransferI17RemapPPtrTransferEEvRT_
MBe:_Array_LastIndexOf_TisRuntimeObject_m1719321980_gshared
L:Math_acos
W0f:__ZN14dense_hash_mapI10KeyWrapperIPK11Il2CppClassEPKcN6il2cpp5utils11PointerHashIS1_EENS4_14EqualsComparerINSt3__28equal_toIS3_EEEENSC_9allocatorINSC_4pairIKS4_S6_EEEEEC2EjRKSA_RKSF_
DOc:_File_Exists_m3943585060
d$f:__ZNK15dense_hashtableINSt3__24pairIK10KeyWrapperIPK22Il2CppGenericParameterEP11Il2CppClassEES6_N6il2cpp5utils11PointerHashIS4_EEN14dense_hash_mapIS6_S9_SE_NS6_14EqualsComparerINS0_8equal_toIS5_EEEENS0_9allocatorISA_EEE9SelectKeyESJ_SL_E13find_positionERS7_
gdg:__ZN15dense_hashtableINSt3__24pairIK10KeyWrapperIPK10Il2CppTypeEjEES6_N6il2cpp8metadata14Il2CppTypeHashEN14dense_hash_mapIS6_jSB_NS6_14EqualsComparerINSA_26Il2CppTypeEqualityComparerEEENS0_9allocatorIS8_EEE9SelectKeyESF_SH_E12resize_deltaEjj
QHd:_SHA384Managed_Initialize_m1661896576
m8d:_InternalEnumerator_1_get_Current_m2698009637_AdjustorThunk
qUb:__ZN13MonoBehaviour14GetOrCreateDSPEv
hZb:__Z30TransferField_LinearCollectionI9JSONWriteEvRK29SerializationCommandArgumentsR31RuntimeSerializationCommandInfo
rnb:__ZN17MessageIdentifier24GetOptimizedMessageCountEv
cpd:_SimpleCollator_CompareQuick_m3272475794
fwd:_DictionaryNodeEnumerator_get_Key_m2267812973
guc:_Array_BinarySearch_m3171087170
hFc:_Stack__ctor_m3503577671
Mvd:_ListDictionary__ctor_m2955211750
Or:__ZN12SoundManager10UnloadClipEP10SampleClip
X3b:__ZN11UnityEngine15PlatformWrapper16GetVideoMemoryMBEv
t$b:__Z18Transfer_BlittableI8JSONReadLb1E11ColorRGBA32EvRK29SerializationCommandArgumentsR31RuntimeSerializationCommandInfo
FWg:_glDepthMask__wrapper
dz:__ZN13AudioListener26ReadExtensionPropertyValueEi
fE:__ZN19CloudServiceHandler17StartEventHandlerERKN4core12basic_stringIcNS0_20StringStorageDefaultIcEEEEii
jib:__Z26Transfer_UnityEngineObjectI18StreamedBinaryReadILb1EELb1EEvRK29SerializationCommandArgumentsR31RuntimeSerializationCommandInfo
xjf:__Z78RuntimeInvoker_RuntimeObject_Int32_t2950945753_RuntimeObject_Int32_t2950945753PFvvEPK10MethodInfoPvPS4_
pe:_JS_Eval_SetTimeout
pRc:_MemoryStream_Dispose_m3070412825
mJ:__ZN14SafeBinaryReadC2Ev
jId:_SHA512Managed_Sum1_m4163780989
Nua:__ZN13LoadOperation19IntegrateMainThreadEv
JLb:__ZN13MemoryManager16ThreadInitializeEj
eCd:_X509CertificateCollection__ctor_m1395805580
Zwg:__ZN6il2cpp2os10ThreadImpl24CheckForUserAPCAndHandleEv
VKg:_setlocale
kVb:__Z54Register_UnityEngine_Camera_INTERNAL_CALL_RaycastTry2Dv
hne:_StringBuilder_Append_m890240332
Ms:__ZNK13AudioListener22GetTypeVirtualInternalEv
G3a:__Z27scripting_array_element_ptr17ScriptingArrayPtrij
G3b:__ZN11UnityEngine15PlatformWrapper16GetVRAspectRatioEv
XUa:__ZN16BlendShapeVertex8TransferI18StreamedBinaryReadILb0EEEEvRT_
uZa:__ZN14SafeBinaryRead21TransferSTLStyleArrayI13dynamic_arrayI16SplashScreenLogoLj4EEEEvRT_17TransferMetaFlags
dwc:_Boolean_System_IConvertible_ToDateTime_m603510836_AdjustorThunk
crg:__ZN15dense_hashtableINSt3__24pairIK10KeyWrapperIP14Il2CppIUnknownEjEES5_N6il2cpp5utils11PointerHashIS3_EEN14dense_hash_mapIS5_jSB_NS5_14EqualsComparerINS0_8equal_toIS4_EEEENS0_9allocatorIS7_EEE9SelectKeyESG_SI_E3endEv
ls:__ZN9AudioClip8WWWCloseEPvS0_
aya:__ZN12IFileAdapter4OpenER13FileEntryData14FilePermission16FileAutoBehavior
vCg:_GC_try_to_collect_inner
Ltb:__ZZ23InitPlayerLoopCallbacksvEN40EarlyUpdateUpdateInputManagerRegistrator7ForwardEv
g3e:_Application_CallLogCallback_m255562505
$lg:__ZN15dense_hashtableINSt3__24pairIK10KeyWrapperINS1_IP11Il2CppClassjEEES4_EES6_N6il2cpp8metadata14ArrayClassHashEN14dense_hash_mapIS6_S4_SB_NS6_14EqualsComparerINSA_17ArrayClassCompareEEENS0_9allocatorIS8_EEE9SelectKeyESF_SH_E15insert_noresizeERKS8_
lAd:_X509BasicConstraintsExtension__ctor_m3136793028
C4a:__ZNK22LocalFileSystemHandler17GetExecutablePathEv
vac:_OperatingSystem_ToString_m3445473725
iC:__ZN11UnityEngine15CloudWebService16SessionContainer17CreateAndOpenFileERKN4core12basic_stringIcNS2_20StringStorageDefaultIcEEEES8_R12FileAccessor
hDe:_Array_InternalArray__ICollection_CopyTo_TisILTokenInfo_t2325775114_m4230157110_gshared
Brb:__ZN10Instancing17NeedsShaderWarmupEv
whe:_Dictionary_2_Remove_m2535635334_gshared
iEa:__Z9RecordJobPFvPvES_R21SingleThreadedJobInfo
FPb:__ZN10builtintex22CleanupBuiltinTexturesEv
MCb:__ZN18DeferredRenderLoop24AddReflectionsToEmissionEP13RenderTextureS1_
Qhg:__ZN14dense_hash_mapI10KeyWrapperINSt3__24pairIPK10MethodInfoP11Il2CppClassEEEj17ReflectionMapHashIS8_ENS9_14EqualsComparerINS1_8equal_toIS8_EEEENS1_9allocatorINS2_IKS9_jEEEEE15set_deleted_keyERSH_
wpa:__Z19UnsignedIntToStringj
pOg:_i64Subtract
HGe:_Array_InternalArray__get_Item_TisRefEmitPermissionSet_t484390987_m1505876205_gshared
PKc:_NumberFormatter_RemoveTrailingZeros_m1055756375
oKc:_NumberFormatter_Resize_m3876336103
uKg:_frexpl
Szb:__ZN6Skybox16RenderSingleFaceEP8Materiali
z2e:_Uri_get_IsLoopback_m2492530169
Lfb:__Z18Transfer_BlittableI19StreamedBinaryWriteILb0EELb1E12PropertyNameEvRK29SerializationCommandArgumentsR31RuntimeSerializationCommandInfo
s5e:_Object_op_Inequality_m4071470834
WFg:__ZN6il2cpp5utils10MemoryPoolC2Ej
kxa:__Z23EndsWithCaseInsensitivePKcjS0_j
hNb:__Z20RegisterBuiltinTypesv
wff:__Z173RuntimeInvoker_Int32_t2950945753_RuntimeObject_Int32_t2950945753_Int32_t2950945753_RuntimeObject_Int16_t2552820387_Int32_t2950945753_SByte_t1669577662_ContextU26_t3937453398PFvvEPK10MethodInfoPvPS4_
vcb:__Z19TransferField_ArrayI17RemapPPtrTransfer27Converter_SimpleNativeClassI10RectOffsetEEvRK23StaticTransferFieldInfoR31RuntimeSerializationCommandInfoRT0_
RCg:_GC_finalize
ig:_emscripten_glColorMask
eVb:__Z45Register_UnityEngine_Camera_get_targetTexturev
VUa:__ZN17CollisionMeshData8TransferI18StreamedBinaryReadILb0EEEEvRT_R4Mesh
RRg:_glBufferSubData__wrapper
_Cd:_X509ExtensionCollection_System_Collections_ICollection_CopyTo_m2505796149
ZMe:_Enumerator_VerifyState_m1898450050_AdjustorThunk
wBb:__Z21StoreShadowMapInCacheP14ShadowMapCacheRK17ShadowCachingDatai
VWa:__Z14RecalculateUVs14StrideIteratorI8Vector2fES1_S_I8Vector3fER9Texture2DRKS0_RK5RectTIfERK8Vector4fSB_S7_21SpritePackingRotationf
Spg:__ZN6il2cpp6icalls8mscorlib6System4Type16IsInstanceOfTypeEP20Il2CppReflectionTypeP12Il2CppObject
Ume:_StringBuilder__ctor_m2625406916
vgf:__Z78RuntimeInvoker_RuntimeObject_RuntimeObject_Int32_t2950945753_SByte_t1669577662PFvvEPK10MethodInfoPvPS4_
prd:_SequentialSearchPrimeGeneratorBase_GenerateSearchBase_m3595783982
Qqe:_Scheduler_Add_m21574731
mhg:__ZN15dense_hashtableINSt3__24pairIK10KeyWrapperIPK22Il2CppGenericParameterEPK24MonoGenericParameterInfoEES6_N6il2cpp5utils11PointerHashIS4_EEN14dense_hash_mapIS6_SA_SF_NS6_14EqualsComparerINS0_8equal_toIS5_EEEENS0_9allocatorISB_EEE9SelectKeyESK_SM_E14squash_deletedEv
APb:__ZL20DidChangeActiveSceneP10UnitySceneS0_
T$b:__Z30TransferField_LinearCollectionI8JSONReadEvRK29SerializationCommandArgumentsR31RuntimeSerializationCommandInfo
Gkc:_MonoGenericMethod__ctor_m2795356912
Mgf:__Z32RuntimeInvoker_Double_t594665363PFvvEPK10MethodInfoPvPS4_
jKa:__ZN14SafeBinaryRead19TransferSTLStyleMapINSt3__23mapIN9ShaderLab16FastPropertyNameEN18UnityPropertySheet11UnityTexEnvENS1_4lessIS4_EENS1_9allocatorINS1_4pairIKS4_S6_EEEEEEEEvRT_17TransferMetaFlags
vfa:__ZN13GfxDeviceGLES21ProcessPendingMipGensEv
KBe:_Array_InternalArray__IndexOf_TisHitInfo_t3229609740_m191462931_gshared
z6e:_GameObject_SendMessage_m3720186693
xh:_emscripten_set_mousedown_callback
zla:__ZL25ProgramUniformMatrix3x4fvPK7ApiGLESjiihPKv
qHd:_SHA1Internal_InitialiseBuff_m2891366785
hCd:_X509CertificateCollection_GetEnumerator_m385726313
QYa:__ZNK22GenericPropertyBinding13GetFloatValueERKN11UnityEngine9Animation10BoundCurveE
Sua:__ZN27TimeSliceAwakeFromLoadQueue19IntegrateTimeSlicedEi
oSa:__ZN23SharedMeshRenderingData6UnloadEv
xdd:_ConfigHandler_ValidatePath_m3895556516
Jwe:_UInt64_ToString_m2177233542_AdjustorThunk
hY:__ZL28CleanupRendererUpdateManagerPv
k5:__ZN19StreamedBinaryWriteILb0EE21TransferSTLStyleArrayINSt3__26vectorIN9ShaderLab20SerializedSubProgram12UAVParameterENS2_9allocatorIS6_EEEEEEvRT_17TransferMetaFlags
Ajc:_Module_filter_by_type_name_m1840126910
LEg:_GC_push_typed_structures_proc
cee:_Enumerator_VerifyCurrent_m3071620407_gshared
e0a:__ZN16LightmapSettings15AppendLightmapsEiRK13dynamic_arrayI12LightmapDataLj4EE
Hz:__Z64Register_UnityEngine_AudioSettings_GetAmbisonicDecoderPluginNamev
$Md:_StackOverflowException__ctor_m592204071
_3f:__ZN30dense_hashtable_const_iteratorINSt3__24pairIK10KeyWrapperIN6il2cpp5utils13dynamic_arrayIPK10Il2CppTypeLj4EEEEPFvvEEESA_NS3_8metadata19Il2CppSignatureHashEN14dense_hash_mapISA_SD_SG_NSA_14EqualsComparerINSF_22Il2CppSignatureCompareEEENS0_9allocatorISE_EEE9SelectKeyESK_SM_EppEv
J4a:__ZN20LocalFileSystemPosix4ReadER13FileEntryDatayPvPy
nib:__Z19TransferField_ArrayI18StreamedBinaryReadILb1EE27Converter_UnityEngineObjectEvRK23StaticTransferFieldInfoR31RuntimeSerializationCommandInfoRT0_
pAf:__ZL111RegionInfo_t1090270226_CustomAttributesCacheGenerator_RegionInfo_t1090270226____CurrencyNativeName_PropertyInfoP21CustomAttributesCache
xlf:__Z76RuntimeInvoker_DateTime_t3738529785_DateTime_t3738529785_TimeSpan_t881159249PFvvEPK10MethodInfoPvPS4_
X4b:__Z22GetUnityConnectServicev
SV:__ZN18ScriptingArguments9AddStructEPKv
K3:__ZNSt3__26vectorIN9ShaderLab18SerializedPropertyENS_9allocatorIS2_EEE8__appendEj
Cye:_Array_InternalArray__ICollection_Contains_TisKeyframe_t4206410242_m2096605895_gshared
Pub:__ZL19DrawSimpleWatermark13WatermarkEnumff
i9a:__ZN14SafeBinaryRead8TransferIdEEvRT_PKc17TransferMetaFlags
HUa:__ZN14BlendShapeData8TransferI24GenerateTypeTreeTransferEEvRT_
tHd:_SHA1Internal_HashFinal_m1760803056
YE:__ZZN23CloudWebServicesManagerC1E10MemLabelId18ObjectCreationModeEN44EarlyUpdateCloudWebServicesUpdateRegistrator7ForwardEv
uaa:__ZN13GfxDeviceGLES17UploadTextureCubeE9TextureIDPKhiii14GraphicsFormati18TextureUploadFlags
pDc:_Hashtable_get_Values_m1643322147
$8f:__ZN6il2cpp2vm7Runtime4InitEPKcS3_
GDc:_Hashtable_Synchronized_m2228653257
oEe:_Array_InternalArray__Insert_TisUriScheme_t722425697_m2442875526_gshared
K_a:__ZN15ResourceManager8TransferI19StreamedBinaryWriteILb0EEEEvRT_
RPa:__ZNSt3__26vectorIN15QualitySettings14QualitySettingENS_9allocatorIS2_EEE7reserveEj
szf:__ZL80Hashtable_t1853889766_CustomAttributesCacheGenerator_Hashtable__ctor_m2421324048P21CustomAttributesCache
Fwe:_UInt64_ToString_m2623377370
Vza:__ZN10GameObject12SetHideFlagsEN6Object9HideFlagsE
HE:__ZN11UnityEngine15CloudWebService17WebFileDownloaderINS0_20WebRequestRestClientENS0_23WebRequestRestHeaderMapEE10InitializeERKN4core12basic_stringIcNS5_20StringStorageDefaultIcEEEESB_SB_
lye:_Array_InternalArray__ICollection_Contains_TisILTokenInfo_t2325775114_m2923331462_gshared
Hea:__ZN13GfxDeviceGLES16SetComputeBufferE15ComputeBufferIDi20ComputeBufferCounterbb
vXc:_NumberFormatter_get_IntegerDigits_m1758408763
si:_emscripten_request_pointerlock
vgc:_MethodBuilder_GetParameters_m3527753207
mtd:_KeyPairPersistence__IsMachineProtected_m2170750712
Yxb:__Z22CullAllPerObjectLightsiRK15RenderNodeQueueRK12ActiveLightsR27PerObjectLightCullingOutput
sEd:_RepeatContext__ctor_m2465637864
ehd:_ConstructionCall_get_Properties_m3011379795
U$b:__Z26Transfer_UnityEngineObjectI8JSONReadLb0EEvRK29SerializationCommandArgumentsR31RuntimeSerializationCommandInfo
k9f:__ZN6il2cpp5utils9PathUtils7CombineIcEENSt3__212basic_stringIT_NS3_11char_traitsIS5_EENS3_9allocatorIS5_EEEERKSA_RKNS0_10StringViewIS5_EE
qW:__ZN17TransformInternal20FreeTransformHandlesER18TransformHierarchyi
fL:__Z26scripting_class_get_object17ScriptingClassPtr
a:HEAP8
wKd:_ApplicationTrust__ctor_m515003198
wFc:_Enumerator_Reset_m2459931042
fgc:_ILGenerator_ll_emit_m2218983546
e2c:_RecordProtocol_SendAlert_m3736432480
UPa:__ZNSt3__26vectorIN15QualitySettings14QualitySettingENS_9allocatorIS2_EEEC2INS_11__wrap_iterIPS2_EEEET_SA_RKS4_PNS_9enable_ifIXaasr21__is_forward_iteratorISA_EE5valuesr16is_constructibleIS2_NS_15iterator_traitsISA_E9referenceEEE5valueEvE4typeE
Sbe:_InternalEnumerator_1_System_Collections_IEnumerator_get_Current_m3854084659_gshared
JH:__ZNK6Camera17GetProjectionNearEv
Pra:__ZN9GfxDevice25SetInvertProjectionMatrixEb
JRe:_Enumerator_System_Collections_IEnumerator_Reset_m2261065994_gshared
iX:__ZNSt3__26__treeIN5Cache10CachedFileENS_4lessIS2_EENS_9allocatorIS2_EEE7destroyEPNS_11__tree_nodeIS2_PvEE
GUe:_ReadOnlyCollection_1_System_Collections_ICollection_CopyTo_m1627200331_gshared
iOc:_BinaryReader_Read_m1362176249
CKe:_X509Certificate_set_RSA_m3534515075
g4:__ZN24GenerateTypeTreeTransfer8TransferINSt3__26vectorIN9ShaderLab20SerializedSubProgram15MatrixParameterENS1_9allocatorIS5_EEEEEEvRT_PKc17TransferMetaFlags
qwc:_Boolean_System_IConvertible_ToInt64_m2059204559
L_c:_MD4Managed_FF_m3294771481
$Wg:_emscripten_glDeleteObjectARB__wrapper
Lsc:_ArgIterator_Equals_m4289772452
FFg:__ZN6il2cpp6icalls8mscorlib6System13Globalization10RegionInfo35construct_internal_region_from_nameEP16Il2CppRegionInfoP12Il2CppString
fLb:__Z11MD5ToStringPh
tlc:_MonoProperty_get_CanRead_m2001748608
QZe:_PatternCompiler_EmitLink_m1012034249
wja:__ZN6prcoreL17RemapGenericFloatI16TexFormatRGFloat18TexFormatARGBFloatEEvPKNS_9InnerInfoE
Ow:__ZN10AudioMixer14MixerGroupSink15ProcessCallbackEP21UnityAudioEffectStatePfS3_jii
vNb:__Z13RegisterClassI16LevelGameManagerEvv
pXa:__ZN14SpriteRenderer8TransferI24GenerateTypeTreeTransferEEvRT_
R9a:__Z29Transfer_Blittable_ArrayFieldI14SafeBinaryRead12PropertyNameEvRT_R9ArrayInfoRK23StaticTransferFieldInfo
Z1f:__ZN15dense_hashtableINSt3__24pairIK10KeyWrapperIPK19Il2CppGenericMethodEPK26Il2CppGenericMethodIndicesEES6_N6il2cpp8metadata23Il2CppGenericMethodHashEN14dense_hash_mapIS6_SA_SE_NS6_14EqualsComparerINSD_26Il2CppGenericMethodCompareEEENS0_9allocatorISB_EEE9SelectKeyESI_SK_EC2ERKSN_j
l5b:__ZN18UnityConnectClient14QueueCoreEventERN11UnityEngine15CloudWebService17CloudServiceEventEb
Hkb:__ZL26Transfer_SimpleNativeClassI18StreamedBinaryReadILb0EE17AnimationCurveTplIfELb1EEvRK29SerializationCommandArgumentsR31RuntimeSerializationCommandInfo
Xxf:__ZL43MemberInfo_t_CustomAttributesCacheGeneratorP21CustomAttributesCache
DOd:_String_ToLower_m3490221821
K7b:__ZL29InitializeModule_UnityConnectv
xna:__ZN13DrawImmediate8TexCoordEifff
CRc:_MonoIO_GetFileAttributes_m2086493016
LMg:__ZNKSt3__220__vector_base_commonILb1EE20__throw_out_of_rangeEv
dKd:_SecurityElement_GetAttribute_m3347489583
E9a:__ZNSt3__26vectorI8Gradient13stl_allocatorIS1_L18MemLabelIdentifier1ELi16EEE6assignINS_11__wrap_iterIPS1_EEEENS_9enable_ifIXaasr21__is_forward_iteratorIT_EE5valuesr16is_constructibleIS1_NS_15iterator_traitsISB_E9referenceEEE5valueEvE4typeESB_SB_
K1c:_Context__ctor_m1288667393
vHa:__ZN20SphericalHarmonicsL217AddToCoefficientsEPKN4math7_float4EPKf
Fvb:__ZN13ComputeBuffer9CopyCountEPS_S0_j
Ela:__ZN13dynamic_arrayI15ComputeShaderCBLj4EE9push_backERKS0_
FGa:__ZN14RenderSettings13AwakeFromLoadE17AwakeFromLoadMode
z_c:_MD4Managed__ctor_m2284724408
ghb:__Z18Transfer_BlittableI18StreamedBinaryReadILb1EELb1E8Vector2fEvRK29SerializationCommandArgumentsR31RuntimeSerializationCommandInfo
Mqe:_Timer_Change_m3724315326
rWd:_Decimal_Equals_m2486655999_AdjustorThunk
vz:__Z60AudioListener_CUSTOM_INTERNAL_CALL_ReadExtensionPropertyNameP12Il2CppObjectiR12PropertyName
Pcg:__ZN15dense_hashtableINSt3__24pairIK10KeyWrapperINS1_IPK9FieldInfoP11Il2CppClassEEEjEES9_17ReflectionMapHashIS8_EN14dense_hash_mapIS9_jSD_NS9_14EqualsComparerINS0_8equal_toIS8_EEEENS0_9allocatorISB_EEE9SelectKeyESI_SK_E9copy_fromERKSN_j
lL:__Z33RenderImageFilterValidateCallback18ScriptingMethodPtr17ScriptingClassPtrP6Object
fR:__ZN8LODGroup23GetLODGroupIndexAndMaskEPK8RendererPjPh
_ig:_il2cpp_class_enum_basetype
rDa:__ZNK10FlareLayer22GetTypeVirtualInternalEv
Hoe:_UTF8Encoding_InternalGetBytes_m359000633
Oke:_GenericComparer_1_Compare_m2942238599_gshared
Drb:__ZNK17InstancingBatcher20SetupForShaderWarmupEv
aza:__ZN15FileSystemEntry12CreateAsFileEv
Bca:__ZN9GfxDevice26UpdateRenderSurfaceWrapperER12ObjectHandleI17RenderSurface_TagP17RenderSurfaceBaseES3_17DepthBufferFormat
ktc:_Array_GetLowerBound_m2045984623
x4c:_TlsServerCertificateRequest_Update_m2763887540
amg:__ZNK15dense_hashtableINSt3__24pairIK10KeyWrapperINS1_IP11Il2CppClassjEEES4_EES6_N6il2cpp8metadata14ArrayClassHashEN14dense_hash_mapIS6_S4_SB_NS6_14EqualsComparerINSA_17ArrayClassCompareEEENS0_9allocatorIS8_EEE9SelectKeyESF_SH_E13find_positionERS7_
zea:__ZN4gles14GetProcAddressEPKc
lPf:__ZL61ExtensionAttribute_t1723066603_CustomAttributesCacheGeneratorP21CustomAttributesCache
Hqb:__ZN11TimeManager9ResetTimeEb
fXd:_Decimal_op_Inequality_m3543190500
q1c:_CipherSuiteCollection_System_Collections_IList_Insert_m1567261820
tlf:__Z117RuntimeInvoker_Boolean_t97287965_RuntimeObject_Int32_t2950945753_RuntimeObject_SByte_t1669577662_Int32U26_t1369213839PFvvEPK10MethodInfoPvPS4_
_sb:__ZN14GfxDoubleCacheI9TextureIDi14GfxGenericHashIS0_ENSt3__28equal_toIS0_EEN31GfxDoubleCacheConcurrencyPolicy11LocklessGetE42GfxDoubleCacheDefaultEmptyDeletedGeneratorIS0_EEC2Ev
wO:__ZN8TypeTree16AssignByteOffsetERK16TypeTreeIteratorj
yve:_UInt32_System_IConvertible_ToUInt64_m1094958903_AdjustorThunk
SP:__ZN16PropertyNamesSet6insertERKS_
UGg:__ZNK6il2cpp8metadata14Il2CppTypeHashclEPK10Il2CppType
S6c:_SslStreamBase__cctor_m548992348
q0b:__Z29Transfer_Blittable_ArrayFieldI8JSONReadyEvRT_R9ArrayInfoRK23StaticTransferFieldInfo
ada:__ZThn9568_N13GfxDeviceGLES22SetScissorRectPlatformERK5RectTIiE
LS:__ZN8Renderer16SetMaterialCountEi
pqb:__ZNK26PlayerSettingsSplashScreen39GetSplashScreenBackgroundPortraitAspectEv
_qb:__ZN9ShaderLab28UpdateGlobalShaderPropertiesEf
v4b:__ZN11UnityEngine15PlatformWrapper17GetMaxCubeMapSizeEv
RZf:__ZL25UnresolvedVirtualCall_122P12Il2CppObject24PropertyName_t3749835189fPK10MethodInfo
HWd:_Decimal_ToString_m3653216873_AdjustorThunk
gGb:__ZNSt3__26vectorI11CameraStackNS_9allocatorIS1_EEE8__appendEj
NCg:_GC_finish_collection
amc:_ParameterInfo_get_IsIn_m1278224586
n9b:__ZN15DownloadHandler7PrepareEv
smb:__ZN16ScriptingManager32InitializeSynchronizationContextEv
Ohc:_PropertyBuilder_GetValue_m3592513194
vMc:_Int64_System_IConvertible_ToDateTime_m2535842508
pKa:__ZN15SerializeTraitsINSt3__24pairIN9ShaderLab16FastPropertyNameEfEEE8TransferI14SafeBinaryReadEEvRS4_RT_
Tue:_UInt16_ToString_m3020002356_AdjustorThunk
Dzg:__ZN6il2cpp2vm6String7NewSizeEi
dEg:_GC_new_hblk
F$d:_CompareInfo_Compare_m1030179556
BDg:_GC_reclaim_check
hdg:__ZN15dense_hashtableINSt3__24pairIK10KeyWrapperIPK10Il2CppTypeEjEES6_N6il2cpp8metadata14Il2CppTypeHashEN14dense_hash_mapIS6_jSB_NS6_14EqualsComparerINSA_26Il2CppTypeEqualityComparerEEENS0_9allocatorIS8_EEE9SelectKeyESF_SH_E15insert_noresizeERKS8_
FNa:__Z30CalculateImageSizeWithMipCountii13TextureFormatj
ATg:_glDeleteVertexArrays__wrapper
A2a:__ZN15SerializeTraitsINSt3__24pairI4PPtrI6ShaderEN4core12basic_stringIcNS5_20StringStorageDefaultIcEEEEEEE8TransferI24GenerateTypeTreeTransferEEvRSA_RT_
$5e:_UnityEventBase_DirtyPersistentCalls_m3575963459
GEg:_GC_register_finalizer_no_order
eHc:_Convert_ToInt16_m3185404879
YJa:__ZN8Material23VirtualRedirectTransferER19StreamedBinaryWriteILb0EE
cWf:_AudioSettings_GetSpatializerPluginName_m1324100978
Dya:__ZNK25SingleBlockMemoryFileData4ReadEyyPv
Epe:_Monitor_Monitor_test_synchronised_m517272294
Su:__ZN4FMOD5Sound11getSubSoundEiPPS0_
kc:_glEndTransformFeedback
zAg:__ZThn4_N6il2cpp2vm13ComObjectBase16DisconnectObjectEj
DDc:_Hashtable_ContainsKey_m2963904694
QS:__GLOBAL__sub_I_runtime_2d_spriteatlas_0_cpp
dOd:_String_IndexOfAny_m2882391940
Ffb:__Z18Transfer_BlittableI19StreamedBinaryWriteILb0EELb1E10Matrix4x4fEvRK29SerializationCommandArgumentsR31RuntimeSerializationCommandInfo
mHb:__ZN10GameObject8ActivateEv
HY:__ZNSt3__227__insertion_sort_incompleteIR17CompareInstanceIDPP6ObjectEEbT0_S6_T_
zYd:_Double_System_IConvertible_ToSingle_m4088557181_AdjustorThunk
ueg:__ZN15dense_hashtableINSt3__24pairIK10KeyWrapperINS1_IPK11Il2CppImageP11Il2CppClassEEEjEES9_17ReflectionMapHashIS8_EN14dense_hash_mapIS9_jSD_NS9_14EqualsComparerINS0_8equal_toIS8_EEEENS0_9allocatorISB_EEE9SelectKeyESI_SK_E12resize_deltaEjj
yPe:_List_1_System_Collections_IList_Insert_m491758941_gshared
N2a:__ZN2UI13RectTransform23VirtualRedirectTransferER24GenerateTypeTreeTransfer
UY:__ZN13RuntimeStaticI10WatermarksLb0EE16StaticInitializeEPv
jGb:__ZN23ScriptableRenderContext23ShouldUseRenderPipelineEv
eXf:__ZL16pack128toDecimalP19il2cpp_decimal_repryyii
rub:__ZN9ShaderLab9IntShader27RemoveUnsupportedSubShadersEv
g8:__ZN13GfxDeviceGLES18CreateStencilStateERK15GfxStencilState
Iaa:__ZN13GfxDeviceGLES8EndFrameEv
Wtb:__ZZ23InitPlayerLoopCallbacksvEN45PostLateUpdateFinishFrameRenderingRegistrator7ForwardEv
Owg:__ZN6il2cpp2os10ThreadImpl3RunEPFvPvES2_
oH:__ZN6Object11InvokeEventEi
Lxc:_Byte_Equals_m1161982810
cld:_BaseFixupRecord_DoFixup_m1407429548
cmd:_ObjectReader_ReadArrayOfObject_m671957184
hCb:__Z22CalculateShadowMapSizeRK13ShadowJobData9LightTypeRK8Vector2fii
QEb:__Z26CalculateLightScreenBoundsRK13ShadowJobDataRK15SharedLightDataP5RectTIfER13TargetEyeMask
JYc:_Kernel_Subtract_m846005223
Dda:__ZN18GfxFramebufferGLES11SetViewportERK5RectTIiE
ppa:__ZL33GetTransformFeedbackShaderProgram17ShaderChannelMaskjj12TFMethodTypeb
kNe:_Enumerator_MoveNext_m2142368520_gshared
f0e:_BackslashNumber_Compile_m1825066804
WGb:__ZN6Camera18SetBackgroundColorERK10ColorRGBAf
sHc:_Convert_ToInt32_m3956995719
$ma:__ZN18GfxFramebufferGLES43AddRenderSurfaceToDeferredFBOInvalidateListEPK17RenderSurfaceGLES
sMd:_Single_System_IConvertible_ToInt64_m1650421025
eCe:_Array_InternalArray__ICollection_Add_TisDecimal_t2948259380_m434413850_gshared
Aq:__ZNSt3__26vectorIN4core12basic_stringIcNS1_20StringStorageDefaultIcEEEENS_9allocatorIS5_EEEC2ERKS8_
a7a:__Z18Transfer_BlittableI14SafeBinaryReadLb0EhEvRK29SerializationCommandArgumentsR31RuntimeSerializationCommandInfo
vAe:_Array_AsReadOnly_TisCustomAttributeNamedArgument_t287865710_m2126958740_gshared
NZe:_PatternCompiler_EmitClose_m2259636270
RXb:__Z44InitializeTransferFunctionScriptingTraitsForI9JSONWriteEvR31TransferFunctionScriptingTraits
JHg:__ZN6il2cpp2os13FastMutexImplD2Ev
Vog:__ZN6il2cpp2vm9Exception5RaiseEP15Il2CppException
$c:_emscripten_glGetBufferParameteriv
yBb:__Z29SetCascadedShadowShaderParamsPK10Matrix4x4fiPKfPK8Vector4fRK8Vector2fR17ShaderPassContext
Ixb:__ZN13BatchRenderer5FlushE15BatchBreakCause
_tc:_Array_GetIntArray_m1205726566
MPc:_FileNotFoundException__ctor_m2359931775
Cia:__ZN6prcoreL12RemapGenericI15TexFormatRGB56517TexFormatARGB4444EEvPKNS_9InnerInfoE
DPf:__ZL62NativeTypeAttribute_t2250406315_CustomAttributesCacheGeneratorP21CustomAttributesCache
ICe:_Array_InternalArray__ICollection_Add_TisHitInfo_t3229609740_m2870371072_gshared
J_:__ZN13RendererScene16UpdateVisibilityEPK9IndexList
_z:__GLOBAL__sub_I_SwSelfCollision_cpp
BFb:__ZN12CullingGroup15NotifyInvisibleEv
z6a:__ZN11MonoManager23VirtualRedirectTransferER17RemapPPtrTransfer
D8e:_PropertyName_Equals_m2608649819
nab:__Z29Transfer_Blittable_ArrayFieldI14SafeBinaryReadxEvRT_R9ArrayInfoRK23StaticTransferFieldInfo
wTb:__ZN10systeminfo24GetSystemLanguageCultureEi
tye:_Array_InternalArray__ICollection_Contains_TisX509ChainStatus_t133602714_m795171973_gshared
Trb:__ZNSt3__26__sortIRNS_4lessIN22BuiltinResourceManager8ResourceEEEPS3_EEvT0_S7_T_
aEf:__ZL54_MethodBase_t1657248248_CustomAttributesCacheGeneratorP21CustomAttributesCache
bee:_Enumerator_System_Collections_IEnumerator_get_Current_m1890150222_gshared
RNb:__Z13RegisterClassI14Texture2DArrayEvv
DRe:_Enumerator_System_Collections_IEnumerator_get_Current_m1399273671_AdjustorThunk
w1:__ZN15dense_hashtableINSt3__24pairIKiN4core17string_with_labelILi1EEEEEi18SInt32HashFunctionN14dense_hash_mapIiS5_S7_NS0_8equal_toIiEE13stl_allocatorIS6_L18MemLabelIdentifier1ELi16EEE9SelectKeyESA_SD_ED2Ev
E6e:_Gradient_Init_m3104802093
G9a:__ZN8GradientC2Ev
gUc:_UnexceptionalStreamReader_Read_m39696771
HUb:__Z33Coroutine_CUSTOM_ReleaseCoroutineP12Il2CppObject
Ida:__Z23GetGfxDeviceLevelString16GfxDeviceLevelGL
Dne:_UnicodeEncoding_GetBytes_m3223155660
Aze:_Enumerable_CreateWhereIterator_TisRuntimeObject_m3410152003_gshared
A3a:__ZN9Transform23VirtualRedirectTransferER14SafeBinaryRead
PSe:_Collection_1_System_Collections_IList_set_Item_m510036531_gshared
sKe:_X509Certificate__cctor_m1746020738
Qd:___cxa_throw
Mbc:_AssemblyName_set_Version_m1802337156
PCd:_X509ChainElementEnumerator_Reset_m1416607221
eVa:__ZN17PackedFloatVector10PackFloatsEPKfiiiib
UJe:_PKCS12_get_MaximumPasswordLength_m3603260090
KXg:_emscripten_glIsBuffer__wrapper
aib:__Z35Transfer_Blittable_FixedBufferFieldI18StreamedBinaryReadILb1EEyEvRK29SerializationCommandArgumentsR31RuntimeSerializationCommandInfo
Eea:__ZN19ConstantBuffersGLES6FindCBE5CbKey
wrd:_Runtime_GetDisplayName_m2773861196
SJa:__ZN8MaterialD0Ev
kae:_InternalEnumerator_1_System_Collections_IEnumerator_get_Current_m1823542095_AdjustorThunk
D7e:_MessageTypeSubscribers_get_MessageTypeId_m1143155832
dLd:_StrongName_ToString_m3130222752
mEa:__ZNSt3__26vectorIN11HaloManager4HaloENS_9allocatorIS2_EEE21__push_back_slow_pathIKS2_EEvRT_
fy:__ZN11AudioModule21SetActiveOutputDriverEPv
Yud:_PKCS12_MAC_m3401183837
Hfa:__ZN18GfxFramebufferGLES22EnsureDefaultFBOInitedEv
qEg:_GC_try_to_collect_general
m3:__ZN14SafeBinaryRead8TransferIN9ShaderLab16FastPropertyNameEEEvRT_PKc17TransferMetaFlags
nsd:_CryptoConvert_ToCapiPublicKeyBlob_m1931330842
Iub:__ZN10GUITexture17AlignRectToDeviceERK5RectTIfE
DT:__ZN12_GLOBAL__N_116StaticInitializeEPv
Gid:_MonoMethodMessage_get_OutArgCount_m3123660340
Hoa:__ZN4gles13UploadTextureEP7ApiGLESR11GLESTexture14GraphicsFormatPKvjiiiij16TextureUsageMode
e9d:_InternalEnumerator_1_System_Collections_IEnumerator_get_Current_m694606607_AdjustorThunk
AJa:__ZNK21FullParameterPreparer16OnPrepareTextureERPKN9ShaderLab6TexEnvERKN20GpuProgramParameters16TextureParameterEj
Odc:_ConstructorBuilder_fixup_m3699998230
tQa:__ZNK13ScreenManager19GetSystemResolutionEv
dnc:_ResourceCacheItem_t51292791_marshal_pinvoke
i4:__ZN24GenerateTypeTreeTransfer8TransferINSt3__26vectorIN9ShaderLab20SerializedSubProgram13BufferBindingENS1_9allocatorIS5_EEEEEEvRT_PKc17TransferMetaFlags
xTg:_glGenQueries__wrapper
ngb:__ZN8GUIStyle8TransferI19StreamedBinaryWriteILb0EEEEvRT_
$2a:__ZN9Transform25CompleteTransformTransferI17RemapPPtrTransferEEvRT_
BZb:__Z22TransferField_NonArrayI9JSONWrite27Converter_SimpleNativeClassI8GUIStyleEEvRK23StaticTransferFieldInfoR31RuntimeSerializationCommandInfoRT0_
iue:_UInt16_System_IConvertible_ToDecimal_m1320731319_AdjustorThunk
E$e:_Regex_Matches_m175567660
Gdb:__ZL26Transfer_SimpleNativeClassI24GenerateTypeTreeTransfer10RectOffsetLb1EEvRK29SerializationCommandArgumentsR31RuntimeSerializationCommandInfo
THd:_SHA384Managed_update_m2910797953
kCg:_GC_new_kind_inner
hYe:_UnityAction_2_BeginInvoke_m1733258791_gshared
tOb:__ZN13ProduceHelperIN2UI13RectTransformELb0EE7ProduceE10MemLabelId18ObjectCreationMode
B_:__ZN19CullingGroupManager15InitializeClassEPv
Q4f:__ZNK6il2cpp5utils11collections13ArrayValueMapIPK10Il2CppType17Il2CppInteropData26InteropDataToTypeConverterNS_8metadata14Il2CppTypeLessENS8_26Il2CppTypeEqualityComparerEE22LowerBoundFindComparerclERKS6_RKS5_
Mab:__Z22TransferField_NonArrayI14SafeBinaryRead16Converter_StringEvRK23StaticTransferFieldInfoR31RuntimeSerializationCommandInfoRT0_
qWc:_MonoType_GetPropertyImpl_m1327032087
QBc:_BitArray_CopyTo_m4205938202
l3b:__ZN11UnityEngine7Connect20BasePersistentValues12ToJsonStringERN4core12basic_stringIcNS2_20StringStorageDefaultIcEEEE
G$d:_CompareInfo_Equals_m1257808801
ev:__Z14FMOD_FILE_OpenPKciPjPPvS3_
hf:_llvm_pow_f64
$va:__ZN4File5WriteEPKvj
zZ:__ZN13PlayableGraph12PrepareFrameE16PrepareFrameTypedyj21DirectorThreadContext
omg:__ZN6il2cpp2vm6Thread12UninitializeEP12Il2CppThread
U3c:_TlsClientCertificate_SendCertificates_m1965594186
VEc:_SortedList_IndexOfKey_m91331983
RM:__ZN12FileAccessor5CloseEv
Vjc:_MonoCMethod_GetCustomAttributes_m3823059477
sve:_UInt32_System_IConvertible_ToType_m922356584
dMa:__ZNK12CubemapArray20GetTextureLayerCountEv
sOg:___remdi3
GPc:_StreamReader_Initialize_m3160193871
x$a:__ZN30RuntimeInitializeOnLoadManager15ClassMethodInfo8TransferI24GenerateTypeTreeTransferEEvRT_
kkc:_MonoEventInfo_get_event_info_m583997560
ZJd:_SecurityPermission_IsUnrestricted_m3327262311
ZU:__ZN10MemoryPool13StaticDestroyEPv
LKe:_X509Certificate_get_IsCurrent_m469817010
cId:_SHA512Managed_Initialize_m2527292789
xcd:_RijndaelManagedTransform_get_CanReuseTransform_m2604443164
T$:__ZNSt3__220__half_inplace_mergeINS_4lessIN4core12basic_stringIcNS2_20StringStorageDefaultIcEEEEEEPS6_NS_11__wrap_iterIS8_EESA_EEvT0_SB_T1_SC_T2_T_
oLa:__ZNSt3__227__insertion_sort_incompleteIRPFbRKNS_4pairIN9ShaderLab16FastPropertyNameEN18UnityPropertySheet11UnityTexEnvEEES8_EPS6_EEbT0_SD_T_
W5a:__ZN16MemoryFileSystem11CreateAsDirER13FileEntryData
IDg:_GC_add_smashed
Bvc:_BitConverter_PutBytes_m2614286581
E8b:__ZN25UnityWebRequestJavaScript15CreateTransportEv
Zvc:_Boolean_System_IConvertible_ToByte_m3917074947
NJg:___errno_location
q5c:_RecordProtocol_InternalReceiveRecordCallback_m1713318629
Fca:__ZN13GfxDeviceGLES16CreateDynamicVBOEv
dla:__ZN7ApiGLES16DispatchIndirectEjj
fzc:_Char_ToUpper_m3999570441
XP:__ZNSt3__26vectorIN20GpuProgramParameters12UAVParameterENS_9allocatorIS2_EEE6assignIPS2_EENS_9enable_ifIXaasr21__is_forward_iteratorIT_EE5valuesr16is_constructibleIS2_NS_15iterator_traitsIS9_E9referenceEEE5valueEvE4typeES9_S9_
ioa:__ZN13RenderTexture9SetActiveEPS_i11CubemapFaceiNS_14SetActiveFlagsE
Jg:_emscripten_glUseProgram
Dre:_TimeSpan_get_Seconds_m1883479191
mbd:_HMACSHA384__ctor_m82969736
SQa:__ZN6SpriteD2Ev
GY:__ZNSt3__27__sort5IR17CompareInstanceIDPP6ObjectEEjT0_S6_S6_S6_S6_T_
zye:_Array_InternalArray__ICollection_Contains_TisUInt64_t4134040092_m94895126_gshared
whf:__Z63RuntimeInvoker_Void_t1185182177_OpCode_t123070264_RuntimeObjectPFvvEPK10MethodInfoPvPS4_
Lve:_UInt32_ToString_m4293943134
sid:_DictionaryEnumerator_get_Key_m2423649820
ktd:_KeyPairPersistence__ProtectMachine_m813172390
iCe:_Array_InternalArray__ICollection_Add_TisInt64_t3736567304_m1423304938_gshared
we:_JS_SystemInfo_HasFullscreen
OZc:_ARC4Managed__ctor_m2553537404
_Lb:__Z27RegisterAllowNameConversionPKcS0_S0_
mdf:__Z74RuntimeInvoker_Decimal_t2948259380_Decimal_t2948259380_Decimal_t2948259380PFvvEPK10MethodInfoPvPS4_
SUg:_glGetUniformBlockIndex__wrapper
K3a:__ZN12HandlerChainD0Ev
nFa:__Z17RenderStaticBatchR9GfxDevice10Matrix4x4fR13dynamic_arrayI7SubMeshLj4EERK11MeshBuffersPK17BatchInstanceDataj17ShaderChannelMask
VPc:_FileStream__ctor_m3135402178
rh:_glBindRenderbuffer
WSc:_StreamWriter_set_AutoFlush_m42112085
Hsg:__ZN15dense_hashtableI10KeyWrapperIP18Il2CppGenericClassES3_N6il2cpp8metadata22Il2CppGenericClassHashEN14dense_hash_setIS3_S6_NS3_14EqualsComparerINS5_25Il2CppGenericClassCompareEEENSt3__29allocatorIS3_EEE8IdentityESA_SD_E13set_empty_keyERKS3_
GTa:__ZN14GraphicsHelper15RenderQuadChunkER9GfxDevice17ShaderChannelMaskRK21DynamicVBOChunkHandle
BCf:__ZL43MethodInfo_t_CustomAttributesCacheGeneratorP21CustomAttributesCache
UCa:__ZN19SharedRendererSceneD2Ev
awa:__ZN4FileD2Ev
N5d:_InternalEnumerator_1_get_Current_m2223614542_gshared
QWd:_Decimal_op_Explicit_m3716368008
Dsb:__ZN7ApiGLES23GetTextureTargetDefaultE16TextureDimensionj
gha:__ZN4crnd13prefix_coding14decoder_tables4initEjPKhj
NNd:_String_InternalAllocateStr_m1198086868
Ydb:__Z26Transfer_UnityEngineObjectI24GenerateTypeTreeTransferLb1EEvRK29SerializationCommandArgumentsR31RuntimeSerializationCommandInfo
cDg:_GC_signal_mark_stack_overflow
Fvc:_Boolean__cctor_m1091629305
csd:_BlockProcessor_Initialize_m2263257456
b4c:_TlsClientCertificateVerify_getUnsignedBigInteger_m3003216819
Wxg:__ZN6il2cpp2gc16GarbageCollector6EnableEv
cPc:_Directory_Exists_m1484791558
Yh:_emscripten_glDisable
Mec:_EnumBuilder_HasElementTypeImpl_m3477408451
Vtc:_Array_CreateInstance_m2750085942
Zga:__ZN4crnd12crn_unpacker15decode_palettesEv
oC:__ZN11UnityEngine15CloudWebService16SessionContainer18DeleteArchivedFileERKN4core12basic_stringIcNS2_20StringStorageDefaultIcEEEES8_Rb
xVf:_AesManaged_set_KeySize_m1150692274
WS:__GLOBAL__sub_I_runtime_camera_0_cpp
$4c:_HttpsClientStream_get_TrustFailure_m1151901888
yna:__ZN13DrawImmediate11TexCoordAllEfff
pef:__Z81RuntimeInvoker_Void_t1185182177_RuntimeObject_Int64_t3736567304_Int64_t3736567304PFvvEPK10MethodInfoPvPS4_
itc:_Array_System_Collections_IList_Clear_m1278271623
HBc:_BitArray_getByte_m2467886923
Q0a:__Z33InterpolateLightProbeCoefficientsRK17LightProbeContextRK29LightProbeSamplingCoordinates25LightProbeCoefficientTypeR20SphericalHarmonicsL2
eSf:__ZL68PreferBinarySerialization_t2906007930_CustomAttributesCacheGeneratorP21CustomAttributesCache
Kp:__ZN11UnityEngine9Animation38InitializeGenericAnimationBindingCacheEPv
z8:__ZN9GfxDevice15SetStereoMatrixE21MonoOrStereoscopicEye24BuiltinShaderMatrixParamRK10Matrix4x4f
xi:_emscripten_set_touchcancel_callback
PXc:_NumberFormatter_NumberToString_m567544656
Di:_emscripten_set_focus_callback
Xl:FUNCTION_TABLE_iiiiiii
aNg:__ZNSt3__212basic_stringIcNS_11char_traitsIcEENS_9allocatorIcEEE9__grow_byEjjjjjj
yJg:__ZN6il2cpp6icalls8mscorlib6System10Reflection18MonoGenericCMethod17get_ReflectedTypeEPv
xpc:_ChannelData_CopyFrom_m727830216
nYg:_emscripten_glGetError__wrapper
pWe:_U3CCreateWhereIteratorU3Ec__Iterator1D_1_System_Collections_IEnumerable_GetEnumerator_m3813267333_gshared
IYb:__Z18Transfer_BlittableI9JSONWriteLb0E11ColorRGBA32EvRK29SerializationCommandArgumentsR31RuntimeSerializationCommandInfo
uXe:_InvokableCall_1__ctor_m4147324340_gshared
AFc:_Console_OpenStandardOutput_m1257556731
gQc:_FileStream_ReadByte_m2651547500
u1c:_CipherSuiteCollection_get_Item_m2791953484
cde:_Comparer_1_System_Collections_IComparer_Compare_m664132038_gshared
sDd:_BaseMachine__ctor_m1534760230
DGd:_RSACryptoServiceProvider__ctor_m2378475222
MRb:__ZNSt3__26vectorINS0_IfNS_9allocatorIfEEEENS1_IS3_EEE21__push_back_slow_pathIKS3_EEvRT_
yXe:_InvokableCall_1_Invoke_m1920505169_gshared
jAd:_X500DistinguishedName_Canonize_m2594679403
s8d:_InternalEnumerator_1_System_Collections_IEnumerator_get_Current_m1976902927_AdjustorThunk
jGg:__ZN6il2cpp2os11MutexHandle6SignalEv
SWd:_Decimal_op_Explicit_m1639916169
oea:__ZN13TranslateGLES10InitFormatERK12GraphicsCaps
IWf:_AudioExtensionManager_GetSourceSpatializerExtensionType_m3221230995
xma:__Z20FindUniformLocationsjjRK20ActiveUniformIndicesR16UniformLocationsi
SZe:_PatternCompiler_EmitReference_m2546735804
$Xa:__ZNK11TimeManager22GetTypeVirtualInternalEv
ES:__ZN18StreamedBinaryReadILb0EE10ReadDirectEPvi
DYc:_BigInteger_op_Subtraction_m4245834512
gTc:_StreamWriter_Finalize_m1379860857
fY:__ZN13RuntimeStaticIN4core8hash_mapIiiNS0_4hashIiEENSt3__28equal_toIiEEEELb0EE13StaticDestroyEPv
B6a:__ZN11MonoManager23VirtualRedirectTransferER14SafeBinaryRead
G7a:__Z35Transfer_Blittable_FixedBufferFieldI14SafeBinaryReadtEvRK29SerializationCommandArgumentsR31RuntimeSerializationCommandInfo
MFa:__ZN23SharedMeshRenderingData25CreateOrUpdateIndexBufferERK13GfxBufferDescPKv20GfxUpdateBufferFlags
rXg:_emscripten_glActiveTexture__wrapper
C8:__ZN9GfxDevice21SetStereoScissorRectsEPK5RectTIiE
XZc:_ARC4Managed_CreateDecryptor_m1966583816
xRg:_glEndTransformFeedback__wrapper
ATc:_SynchronizedWriter_Write_m169417751
zwb:__ZN14RenderSettings13CalcFogFactorEff
cr:__ZN9AudioClip13AwakeFromLoadE17AwakeFromLoadMode
_Bg:_GC_unix_sbrk_get_mem
cEa:__ZN18JobBatchDispatcher8KickJobsEv
UEe:_Array_InternalArray__set_Item_TisMonoResource_t4103430009_m3222650182_gshared
GHg:__ZN6il2cpp2os9FastMutexC2Ev
KWa:__ZN16SpriteRenderData19UnloadRenderingDataEv
mPc:_DirectoryInfo__ctor_m481305441
awc:_Boolean_System_IConvertible_ToChar_m4279513009
uGc:_Convert_ToDateTime_m228494645
Kme:_Latin1Encoding_GetMaxByteCount_m1284135491
TOa:__ZN15SerializeTraitsI13dynamic_arrayI33EnlightenTerrainChunksInformationLj4EEE19ResizeSTLStyleArrayERS2_i
z1d:_RegionInfo_Equals_m2499055654
yqa:__ZN10BufferGLES8EndWriteEj
UGe:_Array_InternalArray__get_Item_TisUriScheme_t722425697_m2816273040_gshared
XCa:__ZN15RenderNodeQueueD2Ev
lme:_UTF7Encoding__ctor_m3592291633
VUe:_ReadOnlyCollection_1_IndexOf_m427809401_gshared
Dzb:__ZN14qsort_internal13InsertionSortIP18RPDataMotionVectorN22MotionVectorRenderLoop18RenderObjectSorterEEEvT_S5_T0_
BAe:_Array_BinarySearch_TisRuntimeObject_m3933462998_gshared
ETb:__Z22PropertyNameFromStringRKP12Il2CppString
D$e:_Regex_CreateMachine_m334863819
M1:__ZN14SafeBinaryRead21TransferSTLStyleArrayINSt3__26vectorIN9ShaderLab20SerializedSubProgram15VectorParameterENS1_9allocatorIS5_EEEEEEvRT_17TransferMetaFlags
Odg:__ZN15dense_hashtableINSt3__24pairIK10KeyWrapperINS1_IPK10MethodInfoP11Il2CppClassEEEjEES9_17ReflectionMapHashIS8_EN14dense_hash_mapIS9_jSD_NS9_14EqualsComparerINS0_8equal_toIS8_EEEENS0_9allocatorISB_EEE9SelectKeyESI_SK_E12resize_deltaEjj
mXc:_NumberFormatter__cctor_m2992857932
$gf:__Z119RuntimeInvoker_RuntimeObject_RuntimeObject_RuntimeObject_Int32_t2950945753_Int32_t2950945753_MonoIOErrorU26_t1548853198PFvvEPK10MethodInfoPvPS4_
Gzg:__GLOBAL__sub_I_Interlocked_cpp
XDa:__ZN23TransformChangeDispatch28GetAndClearChangedTransformsE27TransformChangeSystemHandleR13dynamic_arrayI23TransformAccessReadOnlyLj4EEPN9profiling6MarkerE
Vfa:__ZN10DynamicVBO8GetChunkEjjjj16GfxPrimitiveTypeP21DynamicVBOChunkHandle
N6a:__ZN16ScriptingManager33RebuildNativeTypeToScriptingClassEv
djc:_MethodBase_GetGenericArguments_m1292856952
IPg:dynCall_viiiiiii
$I:__Z16GenerateTypeTreeRK6ObjectR8TypeTree24TransferInstructionFlags
EW:__ZNSt3__26__treeINS_12__value_typeIPKN5Unity4TypeE10vector_setIS5_NS_4lessIS5_EENS_9allocatorIS5_EEEEENS_19__map_value_compareIS5_SC_S8_Lb1EEENS9_ISC_EEE7destroyEPNS_11__tree_nodeISC_PvEE
sIc:_Convert_ToUInt16_m4211508274
OWe:_Getter_2_Invoke_m3667195478_gshared
bwe:_UInt64_System_IConvertible_ToInt16_m3895479143
ixb:__ZN20DynamicPropertySheet10FlushQueueEv
HMc:_Int64_System_IConvertible_ToSByte_m267591194
xXd:_Delegate_Remove_m334097152
AMc:_Int64_System_IConvertible_ToDouble_m99143002_AdjustorThunk
Nne:_UnicodeEncoding_Equals_m701742893
Kyb:__Z16RecordForEachJobPFvPvjES_jPFvS_ER21SingleThreadedJobInfo
PDb:__ZN6Camera20SendOnPreCullMessageERK23CameraCullingParameters
kGd:_RNGCryptoServiceProvider_Check_m3453818294
KLc:_Int32_System_IConvertible_ToSingle_m896140682
Zza:__ZN10GameObject23VirtualRedirectTransferER24GenerateTypeTreeTransfer
EMb:__ZN16SpriteRenderData20CalculateUVsIfNeededEbRK8Vector2fRK5RectTIfE
QG:__ZN8Renderer23RendererBecameInvisibleEv
I6b:__ZN22CrashReportingSettingsD2Ev
gia:__ZL31stbir__filter_mitchell_modifiedff
Npe:_NativeEventCalls_CloseEvent_internal_m2546122398
rke:_EqualityComparer_1__cctor_m2375305537_gshared
cm:FUNCTION_TABLE_iidiii
JW:__ZL23AddConflictingClassIMPLPKN5Unity4TypeES2_
tOf:__ZL126ServicePointManager_t170559685_CustomAttributesCacheGenerator_ServicePointManager_t170559685____CertificatePolicy_PropertyInfoP21CustomAttributesCache
i3:__ZN9ShaderLab26SerializedShaderFloatValue8TransferI14SafeBinaryReadEEvRT_
N9b:__ZL16RegisterVRDevice23UnityVRDeviceDefinition
Mrb:__ZNSt3__213__stable_sortIRN10vector_mapIiN17InstancingBatcher12PropertyTypeENS_4lessIiEE13stl_allocatorINS_4pairIiS3_EEL18MemLabelIdentifier1ELi16EEE13value_compareENS_11__wrap_iterIPS8_EEEEvT0_SH_T_NS_15iterator_traitsISH_E15difference_typeEPNSK_10value_typeEi
PO:__ZN8Renderer13AwakeFromLoadE17AwakeFromLoadMode
wnd:_StreamingContext_t3711869237_marshal_pinvoke_back
Sza:__ZNK10GameObject22GetTypeVirtualInternalEv
U3e:_Camera_get_cullingMask_m679085748
nLe:_X509Store_CheckStore_m2045435685
MWa:__ZN14SpriteRenderer15UpdateCollidersEv
RO:__ZNK8Renderer22GetTypeVirtualInternalEv
Nxg:__Z27il2cpp_array_addr_with_sizeP11Il2CppArrayij
PEc:_SortedList_Contains_m559482983
AKc:_NumberFormatter_FormatHexadecimal_m2994610679
gHc:_Convert_ToInt16_m1733792763
sec:_EnumBuilder_GetCustomAttributes_m3678770762
bM:__ZL26ExtractScriptTypeReferenceRK16TypeTreeIteratorjR15CacheReaderBasebR31LocalSerializedObjectIdentifier
gne:_StringBuilder_Append_m1965104174
sLb:__ZL12TouchHandleriPK20EmscriptenTouchEventPv
ymg:__ZN6il2cpp2vm6Thread16RequestInterruptEP12Il2CppThread
KSg:_emscripten_glStencilFuncSeparate__wrapper
lCc:_CollectionBase_System_Collections_IList_Add_m3784093852
Amf:__Z75RuntimeInvoker_TimeSpan_t881159249_DateTime_t3738529785_TimeSpan_t881159249PFvvEPK10MethodInfoPvPS4_
w0b:__Z29Transfer_Blittable_ArrayFieldI8JSONReadaEvRT_R9ArrayInfoRK23StaticTransferFieldInfo
m_d:_Environment_get_IsRunningOnWindows_m1804804030
FQc:_MemoryStream__ctor_m2678285228
o5d:_InternalEnumerator_1_get_Current_m476140818_AdjustorThunk
Vmd:_ObjectManager_RecordFixup_m290973772
mvc:_Attribute_IsDefined_m3355705882
iNg:__ZNKSt3__212basic_stringIcNS_11char_traitsIcEENS_9allocatorIcEEE5rfindEPKcjj
jo:__ZN24GenerateTypeTreeTransfer8TransferI8Vector3fEEvRT_PKc17TransferMetaFlags
a3e:__Z28il2cpp_codegen_resolve_icallPKc
f:HEAPU32
uYc:_BigInteger_op_Implicit_m3414367033
zHe:_TlsCipherSuite_ComputeMasterSecret_m362444953
nH:__ZN5Unity9Component14SendMessageAnyERK17MessageIdentifierR11MessageData
AEc:_Enumerator__ctor_m4264210349
Tc:_glCullFace
iEc:_SyncHashtable_get_Values_m3820929471
z_b:__ZN9JSONWrite8TransferI13dynamic_arrayIfLj4EEEEvRT_PKc17TransferMetaFlags
KAe:_Array_FindLastIndex_TisRuntimeObject_m1404930667_gshared
Iha:__ZN6prcore10FlipImageYER14ImageReference
otc:_Array_System_Collections_IList_Remove_m1479535418
iZd:_Enum__cctor_m2925047542
j8b:__ZN20UnityWebRequestProtoI24UnityWebRequestTransport16AtomicRefCounter14RedirectHelper14ResponseHelper15DownloadHandler13UploadHandler12HeaderHelper14AsyncOperationE11PostRequestEv
QBd:_X509Certificate2Collection_get_Item_m1658740919
SNd:_String_TrimStart_m1431283012
Qef:__Z106RuntimeInvoker_RuntimeObject_Int32_t2950945753_RuntimeObject_Int32_t2950945753_RuntimeObject_RuntimeObjectPFvvEPK10MethodInfoPvPS4_
oKg:_pop_arg
upd:_SimpleCollator_MatchesPrimitive_m3079388596
Tld:_ObjectManager_RegisterObjectInternal_m3473857785
Hka:__ZN6prcoreL26RemapGenericIntegerToFloatI17TexFormatARGB888818TexFormatRGBAFloatEEvPKNS_9InnerInfoE
Xkc:_MonoMethod_GetCustomAttributes_m3677182122
uUg:_emscripten_glCompressedTexImage2D__wrapper
t4b:__ZN11UnityEngine15PlatformWrapper17GetMaxTextureSizeEv
u_c:_MD2Managed_MD2Transform_m3143426291
d7c:_SslStreamBase_get_HashAlgorithm_m2687781311
D2b:__GLOBAL__sub_I_modules_terrain_vr_0_cpp
CUg:_glReadPixels__wrapper
Qv:__ZN4FMOD6System16setDSPBufferSizeEji
mRd:_DateTime_System_IConvertible_ToChar_m197318076_AdjustorThunk
JF:__ZNK21UnityDefaultAllocatorI17LowLevelAllocatorE14AllocationPageIL11RequestType0EEEbPKv
PBb:__ZN14qsort_internal5QSortIP21ForwardRenderPassDataiN23ForwardShaderRenderLoop18RenderObjectSorterILb0EEEEEvT_S6_T0_T1_
jDd:_X509SubjectKeyIdentifierExtension__ctor_m2644971776
nuc:_Array_IndexOf_m2527777724
Ln:stackRestore
rwb:__ZN13RenderManager29InvokeOnRenderObjectCallbacksEv
mkf:__Z50RuntimeInvoker_Double_t594665363_SByte_t1669577662PFvvEPK10MethodInfoPvPS4_
lxd:_FtpWebRequest_U3CcallbackU3Em__B_m3681041041
Tqg:__ZNK15dense_hashtableINSt3__24pairIK10KeyWrapperIP14Il2CppIUnknownEjEES5_N6il2cpp5utils11PointerHashIS3_EEN14dense_hash_mapIS5_jSB_NS5_14EqualsComparerINS0_8equal_toIS4_EEEENS0_9allocatorIS7_EEE9SelectKeyESG_SI_E13find_positionERS6_
$Vb:__Z22Object_CUSTOM_ToStringP12Il2CppObject
Pcb:__Z15Transfer_StringI24GenerateTypeTreeTransferLb1EEvRK29SerializationCommandArgumentsR31RuntimeSerializationCommandInfo
h0e:_Literal_CompileLiteral_m4231400317
sXd:_Delegate_Equals_m821895546
fHa:__ZN14RenderSettings23UpdateFinalAmbientProbeEv
ddf:__Z78RuntimeInvoker_Double_t594665363_RuntimeObject_Int32_t2950945753_RuntimeObjectPFvvEPK10MethodInfoPvPS4_
EFe:_Array_Sort_TisRuntimeObject_m3735745751_gshared
m6c:_SslClientStream_add_ServerCertValidation2_m3943665702
Zmg:__ZN6il2cpp6icalls8mscorlib6System5Array7GetRankEP11Il2CppArray
zQ:__Z22GetTextureDecodeValues16TextureUsageMode17TextureColorSpace
je:_emscripten_webgl_get_current_context
ifa:__ZN21GLESGpuProgramApplier11ApplyMatrixERKN20GpuProgramParameters14ValueParameterEPK10Matrix4x4ft
ax:__ZN9UnityGUID8TransferI24GenerateTypeTreeTransferEEvRT_
pnc:_ResourceInfo_t2872965302_marshal_pinvoke_back
Gbg:__ZN6il2cpp2vm4Type14IsSystemDBNullEPK10Il2CppType
cZd:_EntryPointNotFoundException__ctor_m4137625441
Ivb:__Z11CopyTextureP7TextureiS0_i
NHe:_X509Certificate__ctor_m2595927506
qe:_glDrawElementsInstanced
xW:__ZNK21ExecutionOrderManager23GetScriptExecutionOrderEiPKN5Unity4TypeE
g6c:_SslClientStream__ctor_m3745813135
NKg:_scalbn
dwg:__ZN6il2cpp6icalls8mscorlib6System9AppDomain12LoadAssemblyEP15Il2CppAppDomainP12Il2CppStringP40mscorlib_System_Security_Policy_Evidenceb
Tr:__ZN9AudioClip21ScriptPCMReadCallbackEP10FMOD_SOUNDPvj
MS:__ZN8Renderer13BoundsChangedEv
a9f:__ZN6il2cpp2vm7Runtime12SetConfigDirEPKc
iWc:_MonoType_GetField_m1337309786
T0a:__ZN9Texture3D11InitTextureEiii13TextureFormatb
gug:__ZNSt3__218uninitialized_copyIPNS_4pairIK10KeyWrapperIP12Il2CppObjectEN6il2cpp2gc9CachedCCWEEESB_EET0_T_SD_SC_
mUa:__ZN14CompressedMeshD2Ev
Afe:_Transform_1_BeginInvoke_m1970702669_gshared
sEe:_Array_InternalArray__Insert_TisHitInfo_t3229609740_m2020610735_gshared
LLa:__ZN18DelayedCallManager15RemoveNoCleanupERKNS_8CallbackENSt3__221__tree_const_iteratorIS0_PNS3_11__tree_nodeIS0_PvEEiEE
fZ:__ZN15DirectorManager12CleanupClassEv
ace:_InternalEnumerator_1_System_Collections_IEnumerator_get_Current_m2032951142_gshared
Iae:_InternalEnumerator_1_get_Current_m1698047500_AdjustorThunk
uAg:__ZThn4_N6il2cpp2vm13ComObjectBase17GetUnmarshalClassERK10Il2CppGuidPvjS5_jPS2_
F_e:_Regex_GetGroupNamesArray_m3575729002
iTd:_DateTime__ParseDateSeparator_m1803046501
Jsg:__ZNK10KeyWrapperIP18Il2CppGenericClassE14EqualsComparerIN6il2cpp8metadata25Il2CppGenericClassCompareEEclERKS2_S9_
mef:__Z64RuntimeInvoker_RuntimeObject_Int64_t3736567304_Int64_t3736567304PFvvEPK10MethodInfoPvPS4_
X1d:_Guid_CheckLength_m1615712498
CSd:_DateTime_AddMilliseconds_m3713972790_AdjustorThunk
T7b:__ZN19UnityConnectService20OnPlayerStateChangedENS_12SessionStateE
b9:__ZN13GfxDeviceGLES17DestroySubProgramEPN9ShaderLab10SubProgramE
Dwb:__ZN12FlareManager9UpdateJobEP25FlareManagerUpdateJobData
ZRa:__ZNK4core8hash_mapINSt3__24pairI9UnityGUIDxEE15SpriteAtlasData23SpriteRenderDataKeyHashNS1_8equal_toIS4_EEE6lookupERKS4_
qJe:_SubjectAltNameExtension_get_IPAddresses_m1641002124
v7f:__ZNSt3__210__list_impIP17Il2CppAsyncResultN6il2cpp2gc9AllocatorIS2_EEE5clearEv
lGd:_RNGCryptoServiceProvider_RngInitialize_m2025286560
Tlf:__Z63RuntimeInvoker_Void_t1185182177_RuntimeObject_Int16_t2552820387PFvvEPK10MethodInfoPvPS4_
JZe:_PatternCompiler_EmitSet_m2815529224
iYd:_Double_System_IConvertible_ToChar_m285688079
DNd:_String_ToCharArray_m2268354229
rUb:__ZNK13MonoBehaviour6GetDSPEv
jpa:__ZN13dynamic_arrayI20ComputeShaderVariantLj4EE9push_backERKS0_
Ckc:_MonoField_SetValueInternal_m2352116743
cnc:_ResourceEnumerator__ctor_m3428592283
YEg:_GC_call_with_alloc_lock
Y1d:_Guid__ctor_m3421080095_AdjustorThunk
$qc:_SmallXmlParser_Error_m3899025466
LAd:_X509Certificate2_GetValueAsString_m1348462142
sm:FUNCTION_TABLE_iiififiiii
EPd:_ASCIIEncoding_GetString_m58523364
PUb:__Z35Camera_Get_Custom_PropNearClipPlaneP12Il2CppObject
bic:_FieldInfo_get_IsStatic_m3482711189
IDe:_Array_InternalArray__Insert_TisKeyValuePair_2_t3699644050_m3752538798_gshared
ZFc:_Convert_ToByte_m4146281512
tgg:__ZN6il2cpp2vm10Reflection10IsPropertyEP12Il2CppObject
Poe:_UTF8Encoding_GetCharCount_m2272165989
Wf:_emscripten_set_mousemove_callback
lub:__ZZ23InitPlayerLoopCallbacksvEN41UpdateScriptRunBehaviourUpdateRegistrator7ForwardEv
JZb:__Z19TransferField_ArrayI9JSONWrite27Converter_SimpleNativeClassI10RectOffsetEEvRK23StaticTransferFieldInfoR31RuntimeSerializationCommandInfoRT0_
IH:__ZNK6Camera22GetCameraToWorldMatrixEv
zjf:__Z154RuntimeInvoker_Int32_t2950945753_RuntimeObject_Int32_t2950945753_Int32_t2950945753_SByte_t1669577662_Int32_t2950945753_SByte_t1669577662_SByte_t1669577662PFvvEPK10MethodInfoPvPS4_
wWg:_glActiveTexture__wrapper
d5a:__ZN20LocalFileSystemPosix4LockER13FileEntryData12FileLockMode
D$:__ZZN18SpriteAtlasManagerC1E10MemLabelIdEN46EarlyUpdateSpriteAtlasManagerUpdateRegistrator7ForwardEv
xw:__ZN10AudioMixer31EnsureMixerGroupSinksAreCreatedEv
lLc:_Int16_ToString_m2013897809_AdjustorThunk
fKc:_NumberFormatter_NumberToString_m1790947760
eU:__ZL29StaticCleanupIUnityInterfacesPv
vRd:_DateTime_System_IConvertible_ToInt32_m340560789_AdjustorThunk
fqb:__ZNK26PlayerSettingsSplashScreen34GetSplashScreenBackgroundLandscapeEv
wea:__Z19DebugTextLineByLinePKci
vse:_TimeZone__cctor_m798292265
Rzf:__ZL67DebuggerDisplayAttribute_t2957424906_CustomAttributesCacheGeneratorP21CustomAttributesCache
CWd:_Decimal_ToString_m14270257
Ejd:_SoapTypeAttribute_SetReflectionObject_m1691526413
WBb:__ZNSt3__211__sift_downIRN23ForwardShaderRenderLoop18RenderObjectSorterILb1EEEP21ForwardRenderPassDataEEvT0_S7_T_NS_15iterator_traitsIS7_E15difference_typeES7_
Nle:_Encoding_GetBytes_m3823106599
QQc:_MonoIO_Close_m3406045462
xU:__Z33UnregisterDeviceEventCallbackImplPFv23UnityGfxDeviceEventTypeE
rOb:__ZNSt3__26vectorI16MessageForwarder13stl_allocatorIS1_L18MemLabelIdentifier7ELi8EEE8__appendEj
lpe:_EventWaitHandle_IsManualReset_m3553816275
j3:__ZN9ShaderLab19SerializedStencilOp8TransferI14SafeBinaryReadEEvRT_
q0f:__ZN6il2cpp2vm5Class11IsValuetypeEPK11Il2CppClass
bVe:_ReadOnlyCollection_1_System_Collections_Generic_IListU3CTU3E_RemoveAt_m2659121554_gshared
Utc:_Array_SetValue_m2601781200
dJ:__ZN12CachedReader8InitReadER15CacheReaderBasejj
Tg:_glEndQuery
Ahe:_Dictionary_2_ContainsKeyValuePair_m3003569745_gshared
Jtb:__ZZ23InitPlayerLoopCallbacksvEN45EarlyUpdateRendererNotifyInvisibleRegistrator7ForwardEv
t4c:_TlsServerCertificate_checkCertificateUsage_m2152016773
Vzc:_ArrayList_CopyTo_m3105450421
Uje:_EqualityComparer_1__cctor_m1254390160_gshared
o9e:_Scene_Equals_m581999093_AdjustorThunk
Gpg:__ZN6il2cpp2vm14PlatformInvoke30MarshalCSharpStringToCppStringEP12Il2CppString
m1:__Z14resize_trimmedINSt3__26vectorIN9ShaderLab14SerializedPassENS0_9allocatorIS3_EEEEEvRT_j
RCe:_Array_InternalArray__ICollection_CopyTo_TisKeyValuePair_2_t3842366416_m1165391142_gshared
usd:_DSAManaged_GenerateParams_m2848737814
j7b:__ZN22BaseUnityConnectClientC2ERN11UnityEngine7Connect20BasePersistentValuesE
G3:__ZN9ShaderLab18SerializedProperty8TransferI14SafeBinaryReadEEvRT_
Job:__ZNSt3__26__treeIN4core12basic_stringIcNS1_20StringStorageDefaultIcEEEENS_4lessIS5_EE13stl_allocatorIS5_L18MemLabelIdentifier38ELi16EEE7destroyEPNS_11__tree_nodeIS5_PvEE
vVb:__Z43GameObject_CUSTOM_Internal_CreateGameObjectP12Il2CppObjectP12Il2CppString
SMc:_Int64_System_IConvertible_ToUInt64_m2815650160_AdjustorThunk
Nx:__ZN11AudioModule6UpdateEv
Pla:__ZN7ApiGLES13DeleteProgramERj
IRa:__ZN18StreamedBinaryReadILb0EE21TransferSTLStyleArrayI13dynamic_arrayI8Vector2fLj4EEEEvRT_17TransferMetaFlags
sEc:_SyncHashtable_Clone_m3726939774
ysc:_Hashtable_AdjustThreshold_m3338727562
cEb:__Z15CullLocalLightsR8JobFenceS0_RK22SceneCullingParametersiPK8Vector4fRK13dynamic_arrayIhLj1EER9IndexListSC_PfP5RectTIfEP13TargetEyeMaskPPK15SharedLightDataRK14ShadowCullData
oue:_UInt16_System_IConvertible_ToInt32_m1950778303_AdjustorThunk
yue:_UInt16_System_IConvertible_ToUInt32_m1074326139
SYc:_Kernel_AddSameSign_m3267067385
rBd:_X509Chain_ProcessCrlEntryExtensions_m3203112264
_3b:__ZN11UnityEngine15PlatformWrapper24GetSystemLanguageCultureEv
Ieb:__Z29Transfer_Blittable_ArrayFieldI24GenerateTypeTreeTransfer8Vector2fEvRT_R9ArrayInfoRK23StaticTransferFieldInfo
sE:__ZN19CloudServiceHandler19StopEventDispatcherEv
xH:__ZNK6Camera15SaveMatrixStateERNS_11MatrixStateE
Ab:invoke_iiii
yga:__Z17UploadCubemapData9TextureIDPhjiiii13TextureFormat18TextureUploadFlags17TextureColorSpaceR9GfxDevice
ci:_emscripten_glPixelStorei
ESb:__ZNK6Camera21ScreenToViewportPointERK8Vector3f
Osd:_KeyPairPersistence__ctor_m252166830
Db:invoke_iiif
mCb:__Z23CullDirectionalCascadesRNSt3__26vectorI16ShadowCasterData13stl_allocatorIS1_L18MemLabelIdentifier2ELi16EEEEPK17ShadowCascadeInfoiRK10Matrix4x4fRK8Vector3fRK13ShadowJobData16ShadowProjection
$db:__ZN15SerializeTraitsI31ArrayOfManagedObjectsTransfererE8TransferI24GenerateTypeTreeTransferEEvRS0_RT_
tnc:_ResourceSet__ctor_m153254307
pl:_glGenVertexArrays
PZa:__ZN10VRSettings8TransferI19StreamedBinaryWriteILb0EEEEvRT_
I_d:_FieldAccessException__ctor_m3583219052
bzc:_Char_Parse_m82218915
SI:__ZN14StackAllocator10ReallocateEPvji
pMa:__ZN12CubemapArray8TransferI14SafeBinaryReadEEvRT_
EPe:_List_1_Add_m50678797_gshared
Bqb:__ZN13RenderManager22OnWindowSizeHasChangedEv
Lw:__ZN11AudioSource20SetEffectActiveStateEb
f_d:_Environment_get_OSVersion_m961136977
jhf:__Z86RuntimeInvoker_Boolean_t97287965_IntPtr_t_Int64_t3736567304_MonoIOErrorU26_t1548853198PFvvEPK10MethodInfoPvPS4_
oOg:_i64Add
gRd:_DateTime__cctor_m1880035693
TRd:_Exception__ctor_m1152696503
a6d:_InternalEnumerator_1_get_Current_m3008260692_AdjustorThunk
Oha:__Z11IsHDRFormat13TextureFormat
D3d:_ArrayReadOnlyList_1_get_Item_m4135188594_gshared
IQa:__ZN13ScreenManager26ReapplyRequestedResolutionEv
n3a:__ZNSt3__27__sort4IRPFbRK23TransformAccessReadOnlyS3_EPS1_EEjT0_S8_S8_S8_T_
mYb:__Z18Transfer_BlittableI9JSONWriteLb1E10ColorRGBAfEvRK29SerializationCommandArgumentsR31RuntimeSerializationCommandInfo
nEd:_Interpreter_GetLastDefined_m4107643411
AFd:_IntervalCollection_Normalize_m1934892959
GCa:__ZN6Camera21CleanupAfterRenderingEPK11CullResults
lbg:__ZNSt3__26vectorINS_12basic_stringIcNS_11char_traitsIcEENS_9allocatorIcEEEENS4_IS6_EEE21__push_back_slow_pathIS6_EEvOT_
gv:__Z14FMOD_FILE_ReadPvS_jPjS_
Wm:FUNCTION_TABLE_diiii
b6b:__ZN18UnityConnectClient19RegisterVRCallbacksEv
fj:_glGenQueries
WRg:_glGetProgramInfoLog__wrapper
Ycc:_CustomAttributeTypedArgument_ToString_m864948362_AdjustorThunk
ked:_LifetimeServices_set_LeaseManagerPollTime_m3035471458
Xtc:_Array_CreateInstance_m1740754882
oza:__ZN15FileSystemEntryC2Ev
kaf:_UnitySynchronizationContext_Exec_m3359802660
bC:__ZN11UnityEngine15CloudWebService14DataErrorEvent17FolderErrorDetailD2Ev
OM:__ZN4File5CloseEv
B1b:__Z29Transfer_Blittable_ArrayFieldI8JSONRead8Vector3fEvRT_R9ArrayInfoRK23StaticTransferFieldInfo
rPd:_SystemException__ctor_m4132668650
$Ua:__ZN14BlendShapeData8TransferI19StreamedBinaryWriteILb0EEEEvRT_
vGg:__ZN6il2cpp2os9MutexImpl7TryLockEjb
aEg:_GC_timeout_stop_func
H4f:__ZN15dense_hashtableI10KeyWrapperIPK19Il2CppGenericMethodES4_N6il2cpp8metadata23Il2CppGenericMethodHashEN14dense_hash_setIS4_S7_NS4_14EqualsComparerINS6_26Il2CppGenericMethodCompareEEENSt3__29allocatorIS4_EEE8IdentityESB_SE_E15insert_noresizeERKS4_
Htd:_EncryptedPrivateKeyInfo_get_EncryptedData_m1695265614
ive:_UInt32_System_IConvertible_ToInt16_m1659441601
gTb:__Z16CreateGameObjectRKN4core12basic_stringIcNS_20StringStorageDefaultIcEEEEPKcz
zGg:__ZNSt3__23mapIPvxNS_4lessIS1_EENS_9allocatorINS_4pairIKS1_xEEEEEixERS6_
vuc:_Array_Sort_m2934663614
qXc:_NumberFormatter_InitialFloatingPrecision_m2468520485
mWa:__ZN14SpriteRenderer23VirtualRedirectTransferER18StreamedBinaryReadILb0EE
zed:_RemotingServices_RegisterServerIdentity_m196914637
ARd:_DateTime_System_IConvertible_ToSingle_m2193708681
jH:__ZN12BaseRenderer20GetSortingGroupOrderEj
dpd:_SimpleCollator_CompareOrdinalIgnoreCase_m2749548392
d0a:__Z24InitializeMainSceneRangeiiR13dynamic_arrayI10SceneRangeLj4EE
AFe:_Array_Sort_TisRuntimeObject_TisRuntimeObject_m900474681_gshared
cDf:__ZL74CompilationRelaxationsAttribute_t1721442111_CustomAttributesCacheGeneratorP21CustomAttributesCache
QAb:__Z25SetupObjectBakedOcclusionbRK15SharedLightDataRK26SharedLightmapSettingsDataRK15LightmapIndicesR17ShaderPassContext
CNe:_Enumerator_System_Collections_IEnumerator_Reset_m2011433533_AdjustorThunk
crc:_SmallXmlParserException__ctor_m1976648878
Cmb:__ZN9TextAsset23VirtualRedirectTransferER19StreamedBinaryWriteILb0EE
fB:__ZN11UnityEngine15CloudWebService14DataDispatcherD0Ev
urd:_PrimalityTest_BeginInvoke_m1203148458
Oga:__ZN4crnd12crn_unpacker12unpack_levelEPKvjPPvjjj
Dd:_glFramebufferTextureLayer
hTc:_StringReader__ctor_m126993932
jG:_tlsf_realloc_align
y0a:__ZN21RendererUpdateManager9UpdateAllER13RendererScene
bqc:_CollectionBase_get_InnerList_m132195395
aef:__Z88RuntimeInvoker_RuntimeObject_RuntimeObject_RuntimeObject_RuntimeObject_SByte_t1669577662PFvvEPK10MethodInfoPvPS4_
mKa:__ZNSt3__26__treeINS_12__value_typeIN9ShaderLab16FastPropertyNameE10ColorRGBAfEENS_19__map_value_compareIS3_S5_NS_4lessIS3_EELb1EEENS_9allocatorIS5_EEE7destroyEPNS_11__tree_nodeIS5_PvEE
GPd:_ASCIIEncoding_GetByteCount_m1773359527
mNg:__ZNSt3__212basic_stringIcNS_11char_traitsIcEENS_9allocatorIcEEE6__initEPKcjj
MYa:__ZN27GenericSlowGarbageCollector18GenerateInstanceIDEi17TransferMetaFlags
aAc:_ArrayList_ToArray_m3439706433
wRb:__ZN13ProduceHelperI4MeshLb0EE7ProduceE10MemLabelId18ObjectCreationMode
sCa:__ZN9Coroutine14InvokeMoveNextEP21ScriptingExceptionPtr
ug:_glFenceSync
iHc:_Convert_ToInt16_m198393465
Ugd:_ConstructionCallDictionary__ctor_m2541174073
PJe:_X509Certificate_get_DSA_m565099499
rkc:_MonoField_get_DeclaringType_m2066594735
IFa:__ZN14SharedMeshDataC2ERKS_
UR:__ZN13RendererScene11AddRendererEP8Renderer
xra:__ZN19ConstantBuffersGLES5ClearEv
N3c:_HandshakeMessage__ctor_m2692487706
ipc:_ActivationServices_CreateConstructionCall_m2894682304
I_a:__ZN18StreamedBinaryReadILb0EE19TransferSTLStyleMapINSt3__28multimapIN4core12basic_stringIcNS4_20StringStorageDefaultIcEEEE4PPtrI6ObjectENS2_4lessIS8_EE13stl_allocatorINS2_4pairIKS8_SB_EEL18MemLabelIdentifier52ELi16EEEEEEvRT_17TransferMetaFlags
W2d:_U3CGetEnumeratorU3Ec__Iterator0_Reset_m1192421843_gshared
jVd:_Double_IsNaN_m649024406
JZd:_Enum_ToObject_m1628250250
KEa:__ZN16GraphicsSettings8TransferI24GenerateTypeTreeTransferEEvRT_
S1b:__ZN18PhysxJobDispatcher10submitTaskERN5physx10PxBaseTaskE
vYc:_BigInteger_op_Implicit_m2547142909
Nef:__Z102RuntimeInvoker_RuntimeObject_RuntimeObject_Int32_t2950945753_RuntimeObject_RuntimeObject_RuntimeObjectPFvvEPK10MethodInfoPvPS4_
tQb:__Z24LightAttenuateNormalizedf
CDg:_GC_reclaim_generic
qid:_DictionaryEnumerator_MoveNext_m1462973125
k2e:_Uri__ctor_m3040793867
$ve:_UInt64_System_IConvertible_ToDouble_m602078108
KVb:__Z41Register_UnityEngine_Input_GetMouseButtonv
DUa:__ZN15SerializeTraitsI10BlendShapeE8TransferI14SafeBinaryReadEEvRS0_RT_
F8c:_SByte_Parse_m2899090751
Pb:_emscripten_glGetTexParameterfv
m$f:__ZN6il2cpp2vm5Class14FromSystemTypeEP20Il2CppReflectionType
JBd:_X509Chain_IsChainComplete_m1577524584
FAc:_ArrayListWrapper_Sort_m1587743350
EZb:__ZN9JSONWrite8TransferIdEEvRT_PKc17TransferMetaFlags
aea:__ZN7ApiGLES17CreateVertexArrayEv
xmb:__ZN16ScriptingManagerD0Ev
$gg:__ZN30dense_hashtable_const_iteratorINSt3__24pairIK10KeyWrapperIPK14Il2CppAssemblyEPK22Il2CppMonoAssemblyNameEES6_N6il2cpp5utils11PointerHashIS4_EEN14dense_hash_mapIS6_SA_SF_NS6_14EqualsComparerINS0_8equal_toIS5_EEEENS0_9allocatorISB_EEE9SelectKeyESK_SM_EppEv
zBb:__Z26SetupLightShaderPropertiesRK15SharedLightDatafR17ShaderPassContextRK10TextureRefS6_S6_
r1e:_Parser_IsIgnoreCase_m2210120858
z4b:__ZN11UnityEngine15PlatformWrapper21GetApplicationVersionEv
lrc:_SmallXmlParser_SkipWhitespaces_m4243606597
GGa:__ZN14RenderSettings16CheckConsistencyEv
w6c:_SslClientStream_Finalize_m1251363641
Jig:__ZN6il2cpp2vm10Reflection12HasAttributeEP9FieldInfoP11Il2CppClass
Joc:_Marshal_WriteByte_m951096718
Xo:__ZN14SafeBinaryRead8TransferIcEEvRT_PKc17TransferMetaFlags
Atg:__GLOBAL__sub_I_Socket_cpp
fTe:_Collection_1_SetItem_m1093999320_gshared
C$b:__ZL26Transfer_SimpleNativeClassI8JSONRead10RectOffsetLb0EEvRK29SerializationCommandArgumentsR31RuntimeSerializationCommandInfo
uRa:__ZN13dynamic_arrayI7SubMeshLj4EE18resize_initializedEj12ResizePolicy
Nw:__ZN5audio5mixer17AssignOutputGroupERKNS0_18AudioMixerConstantERKNS0_16AudioMixerMemoryEPN4FMOD12ChannelGroupE
Ijg:_il2cpp_field_has_attribute
qp:__ZN16MeshSkinningDataD2Ev
I5f:__ZN15dense_hashtableINSt3__24pairIK10KeyWrapperIPK19Il2CppGenericMethodEPK26Il2CppGenericMethodIndicesEES6_N6il2cpp8metadata23Il2CppGenericMethodHashEN14dense_hash_mapIS6_SA_SE_NS6_14EqualsComparerINSD_26Il2CppGenericMethodCompareEEENS0_9allocatorISB_EEE9SelectKeyESI_SK_E3endEv
Bic:_EventInfo_get_EventHandlerType_m420690865
Wee:_Enumerator_VerifyCurrent_m93918543_AdjustorThunk
ZVf:_AudioExtensionDefinition_GetExtensionType_m1450823952
jOa:__ZN9TextureOpI17SharedTextureDataE15ExtractMipLevelEPS0_S2_iibb
Byd:_ServicePointManager_get_CertificatePolicy_m475600998
Prc:_AttrListImpl_GetValue_m215192361
xWf:_AudioListener_ReadExtensionPropertyName_m3416271339
tUa:__ZN14SafeBinaryRead21TransferSTLStyleArrayI13dynamic_arrayI16BlendShapeVertexLj4EEEEvRT_17TransferMetaFlags
$Me:_Enumerator_MoveNext_m1131351993_AdjustorThunk
FXd:_DebuggerTypeProxyAttribute__ctor_m3663763196
$Rg:_glScissor__wrapper
D_:__ZL14CleanupShadowsPv
x6c:_SslStreamBase_Dispose_m3190415328
dge:_Transform_1_Invoke_m2986796014_gshared
dVg:_emscripten_glBlendColor__wrapper
Jxd:_IPAddress_ParseIPV6_m750830007
Mfa:__ZN12_GLOBAL__N_119AttachToFramebufferER7ApiGLESRK20GfxRenderTargetSetupP17RenderSurfaceGLESjP11GLESTexturejb
Q:Math_log
DHb:__Z39scripting_class_from_systemtypeinstance28ScriptingSystemTypeObjectPtr
Iff:__Z175RuntimeInvoker_Void_t1185182177_SByte_t1669577662_SByte_t1669577662_SByte_t1669577662_SByte_t1669577662_SByte_t1669577662_SByte_t1669577662_SByte_t1669577662_SByte_t1669577662PFvvEPK10MethodInfoPvPS4_
f9e:_RenderTexture__ctor_m3368882316
rCa:__ZN14AsyncOperation20SetCoroutineCallbackEPF15CallObjectStateP6ObjectPvES2_S3_PFS0_S3_E
Meg:__ZNK15dense_hashtableINSt3__24pairIK10KeyWrapperINS1_IPK11Il2CppImageP11Il2CppClassEEEjEES9_17ReflectionMapHashIS8_EN14dense_hash_mapIS9_jSD_NS9_14EqualsComparerINS0_8equal_toIS8_EEEENS0_9allocatorISB_EEE9SelectKeyESI_SK_E3endEv
J$b:__Z35Transfer_Blittable_FixedBufferFieldI8JSONReadjEvRK29SerializationCommandArgumentsR31RuntimeSerializationCommandInfo
hya:__ZNK12IFileAdapter8PositionERK13FileEntryData
YAg:__ZN6il2cpp6icalls8mscorlib6System10Reflection6Module16InternalGetTypesEP22Il2CppReflectionModule
bVg:_emscripten_glRotatef__wrapper
TUa:__ZN18StreamedBinaryReadILb0EE21TransferSTLStyleArrayI13dynamic_arrayI12BoneWeights4Lj16EEEEvRT_17TransferMetaFlags
Ubd:_RandomNumberGenerator_Create_m2019689173
LKd:_Hash__ctor_m2891763106
dLc:_NumberFormatter_AppendIntegerString_m2257376141
tm:FUNCTION_TABLE_viiifi
O_f:__ZN30dense_hashtable_const_iteratorINSt3__24pairIK10KeyWrapperIPK22Il2CppGenericParameterEP11Il2CppClassEES6_N6il2cpp5utils11PointerHashIS4_EEN14dense_hash_mapIS6_S9_SE_NS6_14EqualsComparerINS0_8equal_toIS5_EEEENS0_9allocatorISA_EEE9SelectKeyESJ_SL_EppEv
bFg:_GC_set_on_event
_Ub:__Z40Camera_CUSTOM_INTERNAL_CALL_RaycastTry2DP12Il2CppObjectRK3Rayfi
EQb:__Z18NotifyGOMovedSceneR10GameObject
ZPg:dynCall_ii
Uo:__Z14resize_trimmedINSt3__26vectorIN4core12basic_stringIcNS2_20StringStorageDefaultIcEEEENS0_9allocatorIS6_EEEEEvRT_j
Jnb:__ZL29CanTransferTypeAsNestedObject17ScriptingClassPtr
vSg:_emscripten_glGetShaderPrecisionFormat__wrapper
RRe:_Enumerator_get_Current_m2282646120_AdjustorThunk
fog:__ZN6il2cpp6icalls8mscorlib6System2IO6MonoIO10DeleteFileEP12Il2CppStringPi
D9b:__ZN13RuntimeStaticINSt3__26vectorIN5physx25PxVehicleWheelQueryResultENS0_9allocatorIS3_EEEELb0EE13StaticDestroyEPv
Joe:_UTF8Encoding_GetBytes_m1676006378
MQd:_DateTime__ctor_m2135476686
QVb:__ZNSt3__227__insertion_sort_incompleteIRNS_6__lessI11KeyframeTplIfES3_EEPS3_EEbT0_S7_T_
FKg:_fstat
gie:_Dictionary_2_Remove_m2269517757_gshared
QRb:__ZN13RenderManager12CleanupClassEv
dFg:__ZN6il2cpp6icalls8mscorlib6System2GC16SuppressFinalizeEP12Il2CppObject
gwg:__ZN6il2cpp6icalls8mscorlib6System6String13InternalSplitEP12Il2CppStringP11Il2CppArrayii
ywd:_NameObjectCollectionBase_BaseGetKey_m2677971642
aVa:__ZN10Matrix4x4f8TransferI19StreamedBinaryWriteILb0EEEEvRT_
tHc:_Convert_ToInt32_m825155517
CLa:__ZN19ShaderPropertySheet24SetTextureScaleAndOffsetERK23FastTexturePropertyName8Vector2fS3_
fLg:_write
bPb:__ZN14SpriteRenderer12CleanupClassEv
YZd:_Enum_CompareTo_m4158304618
sXe:_InvokableCall_1_Invoke_m4071643321_gshared
qzf:__ZL80Hashtable_t1853889766_CustomAttributesCacheGenerator_Hashtable__ctor_m3491720775P21CustomAttributesCache
ZRd:_DateTimeFormatInfo_get_FullDateTimePattern_m2611794812
tVd:_Decimal_System_IConvertible_ToByte_m1059182322_AdjustorThunk
v0f:__ZN6il2cpp2vm5Class10IsAbstractEPK11Il2CppClass
wy:__ZN10SampleClipC2E10MemLabelId18ObjectCreationMode
MF:__Z17DebugStringToFilePKciS0_i15LogMessageFlagsiiPFvRK11CppLogEntryE
d8c:_SByte_System_IConvertible_ToDouble_m2381680501
ceb:__Z19TransferField_ArrayI24GenerateTypeTreeTransfer27Converter_SimpleNativeClassI8GUIStyleEEvRK23StaticTransferFieldInfoR31RuntimeSerializationCommandInfoRT0_
fvd:_PKCS12_get_MaximumPasswordLength_m883183191
NQ:__Z12FormatStringPKcz
Aub:__ZN13RenderManager22RenderOffscreenCamerasEv
twg:__ZN6il2cpp2os6Thread2IdEv
Me:_glStencilOpSeparate
Ne:_JS_WebRequest_Abort
XWd:_Decimal_op_Implicit_m3696395396
B_f:__ZN15dense_hashtableINSt3__24pairIK10KeyWrapperIPK22Il2CppGenericParameterEP11Il2CppClassEES6_N6il2cpp5utils11PointerHashIS4_EEN14dense_hash_mapIS6_S9_SE_NS6_14EqualsComparerINS0_8equal_toIS5_EEEENS0_9allocatorISA_EEE9SelectKeyESJ_SL_E15set_deleted_keyERKSA_
q9:__ZN9GfxDevice28ScheduleGeometryJobsInternalEPFvP15GeometryJobDataEPK22GeometryJobInstructionj
RGb:__ZN9Transform11SetRotationERK11Quaternionf
g1a:__ZN10UnityScene24ExtractLevelGameManagersER18AwakeFromLoadQueue
Tde:_Enumerator_MoveNext_m481679286_gshared
JDe:_Array_InternalArray__Insert_TisKeyValuePair_2_t3842366416_m961898847_gshared
iAa:__ZN17RemapPPtrTransfer8TransferI13dynamic_arrayIN10GameObject13ComponentPairELj4EEEEvRT_PKc17TransferMetaFlags
DVa:__ZN10MeshFilter23VirtualRedirectTransferER24GenerateTypeTreeTransfer
yfd:_Context_AllocateNamedDataSlot_m103537862
uCe:_Array_InternalArray__ICollection_Add_TisResourceInfo_t2872965302_m4022968502_gshared
RE:__ZN11UnityEngine15CloudWebService16SessionContainer18GetIndexFromDataIdEy
Hle:_Encoding_set_DecoderFallback_m148532738
RXg:_emscripten_glIsEnabled__wrapper
MUe:_ReadOnlyCollection_1_System_Collections_IList_Insert_m2454144384_gshared
XAc:_ReadOnlyArrayListWrapper_set_Item_m1909157432
Se:_emscripten_glStencilMask
lIa:__ZNK13RenderTexture10GetVRUsageEv
cJg:__ZN6il2cpp2os5Event3SetEv
Y5c:_RSASslSignatureFormatter_SetKey_m979790541
fsg:__ZN15dense_hashtableINSt3__24pairIK10KeyWrapperINS1_IPKcS4_EEEiEES6_24NamespaceAndNamePairHashN14dense_hash_mapIS6_iS9_NS6_14EqualsComparerI26NamespaceAndNamePairEqualsEENS0_9allocatorIS8_EEE9SelectKeyESD_SF_E13set_empty_keyERKS8_
zBc:_SynchronizedArrayListWrapper_AddRange_m4141530892
Cfg:__ZN6il2cpp2gc19AppendOnlyGCHashMapINSt3__24pairIPK9EventInfoP11Il2CppClassEEP21Il2CppReflectionEvent17ReflectionMapHashIS9_ENS2_8equal_toIS9_EEE11TryGetValueERKS9_PSB_
ovd:_PKCS12_GetBytes_m3933153476
M9b:__ZL24StaticInitializeIUnityVRPv
qga:__ZN18AsyncUploadManager22WaitForActiveAsyncReadEv
yMb:__ZN6prcoreL11inner_clearILj1EEEvPhjjj
Mf:_JS_SystemInfo_HasWebGL
KUf:__ZL53g_UnityEngine_Assembly_CustomAttributesCacheGeneratorP21CustomAttributesCache
Fqd:_ModulusRing_BarrettReduction_m167376748
x8b:__ZNK12StatusHelper10IsCompleteEv
EAa:__Z9SetLocalS15TransformAccessRKN4math7_float3Ey
wab:__ZN15SerializeTraitsIN4math12int3_storageEE8TransferI14SafeBinaryReadEEvRS1_RT_
C4b:__ZN11UnityEngine15PlatformWrapper13IsDebugDeviceEv
Cjd:_SoapTypeAttribute_get_IsInteropXmlElement_m3413949955
yj:_glTexSubImage3D
R6f:__ZN6il2cpp2vm21ThreadPoolCompartment13QueueWorkItemEP17Il2CppAsyncResult
cTd:_DateTimeFormatInfo_GetAllRawDateTimePatterns_m4238261242
SZd:_Enum_ToObject_m3092348831
fWa:__ZN14SpriteRendererD0Ev
rw:__ZN4FMOD12ChannelGroup14getNumChannelsEPi
Yxc:_Byte_ToString_m3735479648_AdjustorThunk
hBd:_X509Chain_ProcessCertificateExtensions_m1468796745
YKa:__ZNSt3__26__sortIRPFbRKNS_4pairIN9ShaderLab16FastPropertyNameE10ColorRGBAfEES7_EPS5_EEvT0_SC_T_
ZPa:__ZN15QualitySettings14QualitySetting8TransferI18StreamedBinaryReadILb0EEEEvRT_
Beb:__Z29Transfer_Blittable_ArrayFieldI24GenerateTypeTreeTransfersEvRT_R9ArrayInfoRK23StaticTransferFieldInfo
Oka:__Z19GetColorBlockColorsPK11DXTColBlockP9Color8888
Vxc:_Byte_ToString_m721125428
RSd:_DateTime_CheckDateTimeKind_m456577410_AdjustorThunk
Gg:_glDeleteProgram
unc:_ResourceSet__ctor_m2006909906
Pg:_glCreateShader
Vz:__Z59Register_UnityEngine_AudioSource_ReadExtensionPropertyValuev
jY:__ZN13RuntimeStaticI17UniqueIDGeneratorLb1EE16StaticInitializeEPv
jqc:_X509Certificate__cctor_m198658613
UXc:_BigInteger__ctor_m2644482640
CWe:_Nullable_1_Equals_m4046255732_gshared
iDc:_Enumerator__ctor_m3921352641
MAg:__ZNK6il2cpp5utils13VmStringUtils23CaseInsensitiveComparerclERKNSt3__212basic_stringIcNS3_11char_traitsIcEENS3_9allocatorIcEEEEPKc
Q$b:__ZL17Transfer_GUIStyleI8JSONReadLb0EEvRK29SerializationCommandArgumentsR31RuntimeSerializationCommandInfo
SEe:_Array_InternalArray__set_Item_TisLabelFixup_t858502054_m1298473658_gshared
X6f:__ZN6il2cpp2vmL22WorkerThreadEntryPointEPv
SCe:_Array_InternalArray__ICollection_CopyTo_TisKeyValuePair_2_t2401056908_m4025041902_gshared
Iqb:__ZN19RuntimeSceneManager14LoadSceneAsyncERKN4core12basic_stringIcNS0_20StringStorageDefaultIcEEEES6_S6_RK9UnityGUIDiNS_11LoadingModeEbRP10UnityScene
v0c:_CipherSuite__cctor_m3668442490
ule:_EncoderReplacementFallback_Equals_m1070129250
sSc:_StreamAsyncResult_get_AsyncWaitHandle_m3390046559
_5e:_UnityEventBase_UnityEngine_ISerializationCallbackReceiver_OnAfterDeserialize_m3212312200
cIg:__ZN6il2cpp2vm14MetadataLoader16LoadMetadataFileEPKc
M7a:__Z18Transfer_BlittableI14SafeBinaryReadLb1E5RectTIiEEvRK29SerializationCommandArgumentsR31RuntimeSerializationCommandInfo
eEg:_GC_build_fl
b8:__ZN13GfxDeviceGLES19RenderTargetBarrierEv
Gh:_glGetString
V$a:__ZN16LightmapSettings13PostLoadSceneEiR18AwakeFromLoadQueueN19RuntimeSceneManager11LoadingModeE
xSc:_StreamReader__ctor_m2783219104
ZUa:__ZN17BlendShapeChannel8TransferI18StreamedBinaryReadILb0EEEEvRT_
Lh:emscriptenWebGLGetTexPixelData
pCd:_X509CertificateEnumerator_Reset_m4026698923
hqc:_Swapper_Invoke_m2596472750
kme:_UTF8Encoding__ctor_m1391509536
j1d:_RegionInfo__ctor_m1348635004
xxd:_ServicePointManager_FindServicePoint_m4119451290
jCe:_Array_InternalArray__ICollection_Add_TisIntPtr_t_m3989968738_gshared
eq:__ZN15SerializeTraitsI11KeyframeTplIfEE8TransferI14SafeBinaryReadEEvRS1_RT_
_cf:__Z51RuntimeInvoker_Boolean_t97287965_Single_t1397266774PFvvEPK10MethodInfoPvPS4_
Vyb:__ZN10RenderLoop12PrepareFrameEbb
kSb:__ZN13BuildSettingsC2E10MemLabelId18ObjectCreationMode
Iif:__Z123RuntimeInvoker_Void_t1185182177_Int64_t3736567304_RuntimeObject_RuntimeObject_Int64_t3736567304_RuntimeObject_RuntimeObjectPFvvEPK10MethodInfoPvPS4_
cdg:__ZN15dense_hashtableINSt3__24pairIK10KeyWrapperIPK10Il2CppTypeEjEES6_N6il2cpp8metadata14Il2CppTypeHashEN14dense_hash_mapIS6_jSB_NS6_14EqualsComparerINSA_26Il2CppTypeEqualityComparerEEENS0_9allocatorIS8_EEE9SelectKeyESF_SH_E4findERS7_
kcb:__Z26Transfer_UnityEngineObjectI17RemapPPtrTransferLb1EEvRK29SerializationCommandArgumentsR31RuntimeSerializationCommandInfo
Nca:__ZN13GfxDeviceGLES20SetShadersThreadableEPP10GpuProgramPPK20GpuProgramParametersPKPKh
MT:__ZN13RuntimeStaticI14CallbackArray1IbELb0EE16StaticInitializeEPv
$sa:__ZN22VertexDeclarationCacheD2Ev
FRd:_DateTimeUtils_GetStandardPattern_m813010822
gi:_getenv
msb:__Z19CreateGLESGfxDevice17GfxDeviceRenderer
cid:_DictionaryEnumerator__ctor_m713073424
JSe:_Collection_1_System_Collections_IList_IndexOf_m1327058868_gshared
E7b:__ZN22UnityAnalyticsSettingsC2Ev
rlb:__Z19TransferField_ArrayI18StreamedBinaryReadILb0EE27Converter_SimpleNativeClassI8GradientEEvRK23StaticTransferFieldInfoR31RuntimeSerializationCommandInfoRT0_
pGg:__ZN6il2cpp2vm14MetadataCallocEjj
Lxe:_WeakReference_Finalize_m2841826116
$ue:_UInt32_System_IConvertible_ToByte_m4072781199_AdjustorThunk
Qc:_emscripten_glStencilFuncSeparate
d9:__ZN13GfxDeviceGLES20UpdateConstantBufferE5CbKeyPKvj
Xgd:_ConstructionCall_get_ActivationType_m402163916
Pt:__ZN4FMOD3DSP12getNumInputsEPi
hqd:_BigInteger_GetBytes_m997192583
pzf:__ZL52Hashtable_t1853889766_CustomAttributesCacheGeneratorP21CustomAttributesCache
C_c:_MD4Managed_MD4Transform_m1101832482
Bqg:__ZN15dense_hashtableINSt3__24pairIK10KeyWrapperIP14Il2CppIUnknownEjEES5_N6il2cpp5utils11PointerHashIS3_EEN14dense_hash_mapIS5_jSB_NS5_14EqualsComparerINS0_8equal_toIS4_EEEENS0_9allocatorIS7_EEE9SelectKeyESG_SI_E9copy_fromERKSL_j
mde:_Enumerator_System_Collections_IDictionaryEnumerator_get_Entry_m2772123357_gshared
VYe:_Mark_get_Length_m2532192442_AdjustorThunk
qLd:_SecurityElement__cctor_m3326869319
Rmb:__ZN13MonoBehaviour23VirtualRedirectTransferER19StreamedBinaryWriteILb0EE
Knf:__Z67RuntimeInvoker_Byte_t1134296376_Int16_t2552820387_Int16_t2552820387PFvvEPK10MethodInfoPvPS4_
NEe:_Array_InternalArray__set_Item_TisIntPtr_t_m3746458435_gshared
v5f:__ZN6il2cpp2vm13MetadataCache26GetWindowsRuntimeClassNameEPK11Il2CppClass
_D:__ZN19CloudServiceHandler10InitializeERKN4core12basic_stringIcNS0_20StringStorageDefaultIcEEEENS_13InitModeFlagsE
WLb:__ZN10BootConfig4Data14InitFromStringEPPKcjS2_
h0b:__ZN13GUIStyleState8TransferI8JSONReadEEvRT_
_xc:_Byte_ToString_m2335342258_AdjustorThunk
yJd:_X509Certificate_GetIssuerName_m1601331538
Izc:_ArrayList_Add_m730026926
YP:__ZNSt3__26vectorIN20GpuProgramParameters14ConstantBufferENS_9allocatorIS2_EEE6assignIPS2_EENS_9enable_ifIXaasr21__is_forward_iteratorIT_EE5valuesr16is_constructibleIS2_NS_15iterator_traitsIS9_E9referenceEEE5valueEvE4typeES9_S9_
U_a:__ZN30RuntimeInitializeOnLoadManager23VirtualRedirectTransferER14SafeBinaryRead
NLd:_SecurityManager_Decode_m84973736
D4f:__ZNK15dense_hashtableI10KeyWrapperIPK19Il2CppGenericMethodES4_N6il2cpp8metadata23Il2CppGenericMethodHashEN14dense_hash_setIS4_S7_NS4_14EqualsComparerINS6_26Il2CppGenericMethodCompareEEENSt3__29allocatorIS4_EEE8IdentityESB_SE_E4findERKS4_
Iua:__ZN23PreloadManagerOperation11GetProgressEv
_ja:__ZN6prcoreL17RemapGenericFloatI14TexFormatRHalf15TexFormatRGHalfEEvPKNS_9InnerInfoE
rgg:__ZN6il2cpp2vmL16IsGenericCMethodEP12Il2CppObject
Rgg:__ZN15dense_hashtableINSt3__24pairIK10KeyWrapperIPK14Il2CppAssemblyEPK22Il2CppMonoAssemblyNameEES6_N6il2cpp5utils11PointerHashIS4_EEN14dense_hash_mapIS6_SA_SF_NS6_14EqualsComparerINS0_8equal_toIS5_EEEENS0_9allocatorISB_EEE9SelectKeyESK_SM_EC2ERKSP_j
OY:__ZNSt3__215__inplace_mergeIRN10vector_mapIijNS_4lessIiEENS_9allocatorINS_4pairIijEEEEE13value_compareENS_11__wrap_iterIPS6_EEEEvT0_SE_SE_T_NS_15iterator_traitsISE_E15difference_typeESI_PNSH_10value_typeEi
u5:__ZN6Shader20CreateFromParsedFormEv
FOa:__ZN16LightmapSettings23VirtualRedirectTransferER14SafeBinaryRead
maf:_UnitySynchronizationContext_InitializeSynchronizationContext_m3217591031
iFg:__ZN6il2cpp6icalls8mscorlib6System9Threading16NativeEventCalls19ResetEvent_internalEi
sSf:__ZL73ArgumentCache_t2187958399_CustomAttributesCacheGenerator_m_StringArgumentP21CustomAttributesCache
H3f:__ZNK15dense_hashtableINSt3__24pairIK10KeyWrapperIN6il2cpp5utils13dynamic_arrayIPK10Il2CppTypeLj4EEEEPFvvEEESA_NS3_8metadata19Il2CppSignatureHashEN14dense_hash_mapISA_SD_SG_NSA_14EqualsComparerINSF_22Il2CppSignatureCompareEEENS0_9allocatorISE_EEE9SelectKeyESK_SM_E13find_positionERSB_
VSg:_glVertexAttribIPointer__wrapper
Z6e:_Logger_IsLogTypeAllowed_m3527674834
jtd:_KeyPairPersistence__ProtectUser_m3263950383
Wj:_glDeleteVertexArrays
uXa:__ZN24ScriptableRenderPipeline18GetDefaultMaterialENS_22DefaultSRPMaterialTypeE
sVc:_MonoCustomAttrs_GetBasePropertyDefinition_m1562543378
D2e:_Uri_GetHashCode_m321999866
Upc:_X501_ToString_m4186311521
grb:__ZN9ShaderLab13InitShaderLabEv
U5b:__ZN11UnityEngine7Connect20BasePersistentValues18TransferBaseValuesI8JSONReadEEvRT_
E4f:__ZN14dense_hash_setI10KeyWrapperIPK19Il2CppGenericMethodEN6il2cpp8metadata23Il2CppGenericMethodHashENS4_14EqualsComparerINS6_26Il2CppGenericMethodCompareEEENSt3__29allocatorIS4_EEE6insertERKS4_
RRf:__ZL67AssemblyIsEditorAssembly_t3442416807_CustomAttributesCacheGeneratorP21CustomAttributesCache
xxa:__ZN15ArchiveReadFile4SeekEx10FileOrigin
Aif:__Z119RuntimeInvoker_RuntimeObject_Byte_t1134296376_RuntimeObject_SByte_t1669577662_RuntimeObject_RuntimeObject_RuntimeObjectPFvvEPK10MethodInfoPvPS4_
LJ:__Z64scripting_unity_engine_object_new_and_invoke_default_constructor17ScriptingClassPtrP6ObjectP21ScriptingExceptionPtr
s6f:__ZN6il2cpp5utils8CallOnceERNS0_8OnceFlagEPFvPvES3_
k6b:__ZNK20UnityConnectSettings22GetTypeVirtualInternalEv
bue:_UInt16_System_IConvertible_ToByte_m3185614807
b$b:__Z18Transfer_BlittableI8JSONReadLb0EsEvRK29SerializationCommandArgumentsR31RuntimeSerializationCommandInfo
z1b:__Z29Transfer_Blittable_ArrayFieldI8JSONReadN4math12int3_storageEEvRT_R9ArrayInfoRK23StaticTransferFieldInfo
OEe:_Array_InternalArray__set_Item_TisRuntimeObject_m2895257685_gshared
I1:__ZN9ShaderLab20SerializedSubProgram8TransferI14SafeBinaryReadEEvRT_
t2b:__ZN14PhysicsManager18GetIgnoreCollisionEPKN5physx12PxFilterDataES3_
RBc:_BitArray_GetEnumerator_m1964744199
hR:__ZN5Unity9Component8TransferI14SafeBinaryReadEEvRT_
hWb:__Z15CleanupGUIStylePv
Uaa:__ZN13GfxDeviceGLES22ReleaseThreadOwnershipEv
nlf:__Z174RuntimeInvoker_Boolean_t97287965_RuntimeObject_RuntimeObject_Int32_t2950945753_DateTimeU26_t882461807_DateTimeOffsetU26_t3960159525_SByte_t1669577662_ExceptionU26_t3600731591PFvvEPK10MethodInfoPvPS4_
_a:invoke_viifii
YVb:__Z45Register_UnityEngine_Transform_get_childCountv
apg:__ZN6il2cpp2vm9Exception25GetNullReferenceExceptionERKNS_5utils10StringViewIDsEE
Wfa:__ZN10DynamicVBO12ReleaseChunkER21DynamicVBOChunkHandlejj
_sa:__ZN11fixed_arrayI13dynamic_arrayIjLj4EELj6EED2Ev
eQd:_DecoderReplacementFallback_CreateFallbackBuffer_m2031816144
_m:FUNCTION_TABLE_viiiiiif
d0b:__Z19TransferField_ArrayI8JSONRead27Converter_SimpleNativeClassI8GUIStyleEEvRK23StaticTransferFieldInfoR31RuntimeSerializationCommandInfoRT0_
MQ:__Z11FormatBytesx
Ym:FUNCTION_TABLE_viiiiiii
El:_glCompressedTexSubImage3D
DVg:_glFlushMappedBufferRange__wrapper
_Te:_Collection_1_System_Collections_IList_Insert_m238083555_gshared
fBd:_X509Chain_WrapUp_m3160803936
$Ta:__ZN4Mesh23VirtualRedirectTransferER17RemapPPtrTransfer
CMa:__ZN12CubemapArray8TransferI18StreamedBinaryReadILb0EEEEvRT_
cUb:__ZL34GetComponentsImplementationRecurseILb0ELi0ELi0EEbR10GameObjectbRK17CompareParametersRK39GetComponentsImplementation_ReturnValue
sVb:__Z49Register_UnityEngine_DebugLogHandler_Internal_Logv
Ulf:__Z82RuntimeInvoker_RuntimeObject_SByte_t1669577662_SByte_t1669577662_SByte_t1669577662PFvvEPK10MethodInfoPvPS4_
ipd:_SimpleCollator_IsPrefix_m3581642267
fWd:_Decimal_Floor_m1786329488
Uy:__ZN13ProduceHelperI12AudioManagerLb0EE7ProduceE10MemLabelId18ObjectCreationMode
nWa:__ZN14SpriteRenderer23VirtualRedirectTransferER17RemapPPtrTransfer
uIb:__ZN12InputManager14ResetInputAxesEv
MBb:__ZN25ShadowMapJobHeaderScratchD2Ev
R0d:_GregorianCalendar_GetYear_m854131864
M3d:_ArrayReadOnlyList_1_IndexOf_m3750264679_gshared
Fuc:_Array_Sort_m870838517
BMd:_Single_System_IConvertible_ToUInt16_m1263555070_AdjustorThunk
Xoa:__ZN18GfxFramebufferGLES30SetBackBufferColorDepthSurfaceEP17RenderSurfaceBaseS1_
DB:__ZN11UnityEngine15CloudWebService17SessionEventQueue16ExtractEventDataEPKcyRN4core12basic_stringIcNS4_20StringStorageDefaultIcEEEE
y2:__ZNSt3__26vectorIN9ShaderLab20SerializedSubProgram13BufferBindingENS_9allocatorIS3_EEE6assignINS_11__wrap_iterIPS3_EEEENS_9enable_ifIXaasr21__is_forward_iteratorIT_EE5valuesr16is_constructibleIS3_NS_15iterator_traitsISC_E9referenceEEE5valueEvE4typeESC_SC_
WOb:__ZN13ProduceHelperI11TimeManagerLb0EE7ProduceE10MemLabelId18ObjectCreationMode
Z0:__Z14resize_trimmedINSt3__26vectorIN9ShaderLab26SerializedShaderDependencyENS0_9allocatorIS3_EEEEEvRT_j
ODa:__ZN14SafeBinaryRead21TransferSTLStyleArrayI13dynamic_arrayI21PlatformShaderDefinesLj4EEEEvRT_17TransferMetaFlags
Ame:_Encoding_GetBytes_m2313240322
KCb:__ZN19ShaderPropertySheet26SetTextureWithExplicitSizeERK23FastTexturePropertyName9TextureIDiiff
RZa:__ZN19StreamedBinaryWriteILb0EE8TransferI13dynamic_arrayI16SplashScreenLogoLj4EEEEvRT_PKc17TransferMetaFlags
Zye:_Array_InternalArray__ICollection_Remove_TisIntPtr_t_m3807208150_gshared
JCb:__Z31ResolveDepthIntoTextureIfNeededR9GfxDeviceR10RenderLoop17DepthBufferFormatRP13RenderTextureP9TextureIDPb
Weg:__ZN6il2cpp2gc19AppendOnlyGCHashMapINSt3__24pairIPK12PropertyInfoP11Il2CppClassEEP24Il2CppReflectionProperty17ReflectionMapHashIS9_ENS2_8equal_toIS9_EEE11TryGetValueERKS9_PSB_
cSe:_Queue_1_System_Collections_ICollection_CopyTo_m3452613063_gshared
cca:__ZN13GfxDeviceGLES28UpdateComputeConstantBuffersEjP12ObjectHandleI18ConstantBuffer_TagPvEjjPKhPKjS8_PKi
GOb:__ZN13ProduceHelperI15QualitySettingsLb0EE7ProduceE10MemLabelId18ObjectCreationMode
uOb:__ZN2UI13RectTransform15InitializeClassEv
zga:__ZN18AsyncUploadManager35ManageTextureUploadRingBufferMemoryEi
VXc:_BigInteger__ctor_m2601366464
Ave:_UInt32_CompareTo_m362578384_AdjustorThunk
TQ:__Z38CalculateLightProbeSamplingCoordinatesRK17LightProbeContextRK8Vector3fiR29LightProbeSamplingCoordinates
hxe:_ValueType_InternalGetHashCode_m58786863
Bzb:__ZN14qsort_internal13Partition3WayIP18RPDataMotionVectoriN22MotionVectorRenderLoop18RenderObjectSorterEEENSt3__24pairIT_S7_EES7_S7_T0_T1_
UKg:_newlocale
NWb:__ZN8JSONReadD2Ev
zng:__ZNSt3__26vectorIcNS_9allocatorIcEEE18__construct_at_endEj
hxg:__ZN6il2cpp2vm12AssemblyName20AssemblyNameToStringERK18Il2CppAssemblyName
TIb:__ZN18ScreenManagerWebGL21SetCursorInsideWindowEb
Obg:__ZN6il2cpp2gc19AppendOnlyGCHashMapINSt3__24pairIPK14Il2CppAssemblyP11Il2CppClassEEP24Il2CppReflectionAssembly17ReflectionMapHashIS9_ENS2_8equal_toIS9_EEE11TryGetValueERKS9_PSB_
ote:_Type_IsAssignableFrom_m3195021585
Pva:__Z14SkipPathPrefixPKcS0_jb
R4c:_HandshakeMessage_get_ContentType_m1693718190
Hzd:_X509EnhancedKeyUsageExtension_Decode_m3726500073
GK:__ZN16ScriptingManager19RegisterScriptCacheEP15MonoScriptCache
q$f:__ZN6il2cpp2vm5Class11SetupEventsEP11Il2CppClass
Kub:__ZN24MaterialDisplayListCache22InvalidateDisplayListsER18SharedMaterialData
rjc:_Missing__cctor_m1154503959
Fpf:__Z70RuntimeInvoker_Void_t1185182177_Guid_t_RuntimeObject_Int32_t2950945753PFvvEPK10MethodInfoPvPS4_
ewb:__ZNK25CameraStackRenderingState28GetSrcTextureForImageFiltersEv
wPd:_ASCIIEncoding_GetBytes_m2264249800
Xpa:__ZN31TransformFeedbackSkinPoseBufferD0Ev
Kse:_Type_get_HasElementType_m710151977
E$b:__Z18Transfer_BlittableI8JSONReadLb0EaEvRK29SerializationCommandArgumentsR31RuntimeSerializationCommandInfo
aGg:__ZN6il2cpp2vm6Atomic9IncrementEPVi
yqg:__ZN15dense_hashtableINSt3__24pairIK10KeyWrapperIP14Il2CppIUnknownEjEES5_N6il2cpp5utils11PointerHashIS3_EEN14dense_hash_mapIS5_jSB_NS5_14EqualsComparerINS0_8equal_toIS4_EEEENS0_9allocatorIS7_EEE9SelectKeyESG_SI_EC2ERKSL_j
fmf:__Z74RuntimeInvoker_RuntimeObject_RuntimeObject_Int64_t3736567304_RuntimeObjectPFvvEPK10MethodInfoPvPS4_
KWe:_Predicate_1_Invoke_m3369767990_gshared
W1c:_TlsClientKeyExchange__ctor_m31786095
i7a:__Z18Transfer_BlittableI14SafeBinaryReadLb0E8Vector3fEvRK29SerializationCommandArgumentsR31RuntimeSerializationCommandInfo
nX:__ZN21AssetReferenceStorageD2Ev
YTc:_TextWriter_Write_m2937140664
w9d:_InternalEnumerator_1_System_Collections_IEnumerator_get_Current_m4235876088_gshared
v0a:__Z21GetDelayedCallManagerv
uc:_pthread_cond_timedwait
Kie:_Dictionary_2_CopyToCheck_m305548979_gshared
mug:__ZN6il2cpp2gc16GarbageCollector29RegisterFinalizerForNewObjectEP12Il2CppObject
vpb:__Z20RegisterLogToConsolePFvRKN4core12basic_stringIcNS_20StringStorageDefaultIcEEEEiPKciiiiPFvRK11CppLogEntryEE
IQd:_CurrentSystemTimeZone_GetDaylightTimeFromData_m2196414210
S_e:_CharacterClass__ctor_m2417156412
Eyc:_Char_System_IConvertible_ToUInt16_m2449138174
P0e:_CharacterClass_GetWidth_m2503189403
wMe:_KeyValuePair_2_ToString_m2480962023_AdjustorThunk
OJd:_String_get_Chars_m2986988803
yP:__ZNK9ShaderLab7Program21GetMatchingSubProgramEPK6ShaderPKNS_4PassERK16ShaderKeywordSetjPS7_R19ShaderSnippetResult
Yl:FUNCTION_TABLE_viiiiiiiiiii
Nd:_glLinkProgram
Uba:__ZN13GfxDeviceGLES27SetRandomWriteTargetTextureEi9TextureID
aoa:__Z14RectfToRectIntRK5RectTIfE
P9b:__ZL22FindVRDeviceDefinitionRKN4core12basic_stringIcNS_20StringStorageDefaultIcEEEE
pLc:_Int16_ToString_m2072232391_AdjustorThunk
fdg:__ZN15dense_hashtableINSt3__24pairIK10KeyWrapperIPK10Il2CppTypeEjEES6_N6il2cpp8metadata14Il2CppTypeHashEN14dense_hash_mapIS6_jSB_NS6_14EqualsComparerINSA_26Il2CppTypeEqualityComparerEEENS0_9allocatorIS8_EEE9SelectKeyESF_SH_E6insertERKS8_
lnb:__ZN20BaseBehaviourManager12AddBehaviourER8ListNodeI9BehaviourEi
MUb:__Z60Register_UnityEngine_ScriptableObject_CreateInstanceFromTypev
$Bc:_CaseInsensitiveComparer_get_DefaultInvariant_m2155614047
M4:__ZN18StreamedBinaryReadILb0EE21TransferSTLStyleArrayINSt3__26vectorIN9ShaderLab20SerializedSubProgram16SamplerParameterENS2_9allocatorIS6_EEEEEEvRT_17TransferMetaFlags
v7c:_SslStreamBase_Read_m231548581
jE:__ZN11UnityEngine15CloudWebService19SessionEventManager27ProcessFlushEventsJobStaticEPv
Rpd:_BigInteger__ctor_m1426225719
BFe:_Array_Sort_TisRuntimeObject_TisRuntimeObject_m879120523_gshared
AWf:_AudioListener_INTERNAL_CALL_ClearExtensionProperties_m2036387607
Ktc:_Array_GetValue_m352525925
c7c:_SslStreamBase_get_CipherStrength_m449292740
Wi:_emscripten_glGenBuffers
Bbf:__Z50RuntimeInvoker_Boolean_t97287965_Int64_t3736567304PFvvEPK10MethodInfoPvPS4_
Ufa:__ZN17GenericDynamicVBOD0Ev
reb:__Z29Transfer_Blittable_ArrayFieldI24GenerateTypeTreeTransfer12PropertyNameEvRT_R9ArrayInfoRK23StaticTransferFieldInfo
rWg:b70
sMe:_KeyValuePair_2_get_Value_m1669764045_gshared
mLd:_SecurityContext_Capture_m1047743382
gAa:__ZN10GameObject8TransferI24GenerateTypeTreeTransferEEvRT_
pKe:_DeriveBytes__cctor_m3019062497
kcg:__ZNK15dense_hashtableINSt3__24pairIK10KeyWrapperINS1_IPK14Il2CppAssemblyP11Il2CppClassEEEjEES9_17ReflectionMapHashIS8_EN14dense_hash_mapIS9_jSD_NS9_14EqualsComparerINS0_8equal_toIS8_EEEENS0_9allocatorISB_EEE9SelectKeyESI_SK_E3endEv
jqa:__ZN10Matrix4x4f5ScaleERK8Vector3f
esd:_BlockProcessor_Core_m2138791525
v8b:__ZL38CleanupUnityWebRequestScriptingClassesv
iTg:_glBindTexture__wrapper
qye:_Array_InternalArray__ICollection_Contains_TisResourceInfo_t2872965302_m2530260012_gshared
ayf:__ZL42Exception_t_CustomAttributesCacheGeneratorP21CustomAttributesCache
l3a:__ZN2UI27ShouldUpdateTransformBeforeERK23TransformAccessReadOnlyS2_
Rja:__ZN6prcoreL17RemapGenericFloatI18TexFormatARGBFloat18TexFormatRGBAFloatEEvPKNS_9InnerInfoE
Rne:_UTF32Encoding_GetByteCount_m3787179419
s5b:__ZThn1044_N18UnityConnectClientD0Ev
oWb:__ZN8JSONReadC2EPKc24TransferInstructionFlags10MemLabelIdbPN4core12basic_stringIcNS4_20StringStorageDefaultIcEEEEi
DP:__Z35UnityShaderExtPluginKeywordsEnabledRK16ShaderKeywordSet
QEd:_IntStack_set_Count_m756607812_AdjustorThunk
Uob:__ZN20LocalFileSystemWebGL5CloseER13FileEntryData
yQb:__ZN26CustomRenderTextureManagerC2Ev
UVc:_SByteComparer_Compare_m3045065039
MDd:_FactoryCache_Cleanup_m308458843
Jyc:_Char_System_IConvertible_ToUInt32_m3901815580_AdjustorThunk
iga:__ZN10DynamicVBOD0Ev
sue:_UInt16_System_IConvertible_ToSByte_m2219828332_AdjustorThunk
wGa:__ZNK15ReflectionProbe10GetTextureEv
K0c:_CipherSuite_get_ExpandedKeyMaterialSize_m197590106
rma:__ZN18GlslGpuProgramGLES4BindEjRK20GpuProgramParametersj
cF:__Z31RegisterModule_CloudWebServicesv
eXg:_emscripten_glLoadMatrixf__wrapper
OCg:_GC_dump
bX:__ZN19EndOfFrameCallbacks8DequeAllEv
$o:__ZN19StreamedBinaryWriteILb0EE21TransferSTLStyleArrayIN4core12basic_stringIcNS2_20StringStorageDefaultIcEEEEEEvRT_17TransferMetaFlags
CHb:__Z20RequiredComponentsOf17ScriptingClassPtr
O$:__ZNSt3__218__stable_sort_moveIRNS_4lessIN4core12basic_stringIcNS2_20StringStorageDefaultIcEEEEEENS_11__wrap_iterIPS6_EEEEvT0_SC_T_NS_15iterator_traitsISC_E15difference_typeEPNSF_10value_typeE
ERd:_DateTimeFormatInfo_GetInstance_m684998497
fZb:__ZL17Transfer_GUIStyleI9JSONWriteLb1EEvRK29SerializationCommandArgumentsR31RuntimeSerializationCommandInfo
RVe:_ReadOnlyCollection_1_System_Collections_IList_set_Item_m4166186676_gshared
xdg:__ZNK15dense_hashtableINSt3__24pairIK10KeyWrapperIPK10Il2CppTypeEjEES6_N6il2cpp8metadata14Il2CppTypeHashEN14dense_hash_mapIS6_jSB_NS6_14EqualsComparerINSA_26Il2CppTypeEqualityComparerEEENS0_9allocatorIS8_EEE9SelectKeyESF_SH_E5beginEv
V9:__ZNK9GfxDevice28GetActiveRenderSurfaceHeightEv
I6f:__ZN6il2cpp6icalls6System6System3Net7Sockets6Socket4SendEiP11Il2CppArrayiiNS4_11SocketFlagsEPi
bVf:_SymmetricTransform_InternalTransformBlock_m1743612142
OSd:_DateTime_SpecifyKind_m3332658812
JAg:__ZNK6il2cpp5utils13VmStringUtils23CaseInsensitiveComparerclEPKcS4_
LXd:_StackFrame_GetSecureFileName_m1124504902
h4:__ZN24GenerateTypeTreeTransfer8TransferINSt3__26vectorIN9ShaderLab20SerializedSubProgram16TextureParameterENS1_9allocatorIS5_EEEEEEvRT_PKc17TransferMetaFlags
sqg:__ZN14dense_hash_mapI10KeyWrapperIP14Il2CppIUnknownEjN6il2cpp5utils11PointerHashIS1_EENS3_14EqualsComparerINSt3__28equal_toIS2_EEEENS9_9allocatorINS9_4pairIKS3_jEEEEEC2EjRKS7_RKSC_
UF:__ZN20DynamicHeapAllocatorI17LowLevelAllocatorEC2EjjbP15BucketAllocatorPKc
pxd:_HttpWebRequest__ctor_m1376613083
S1:__ZN14SafeBinaryRead21TransferSTLStyleArrayINSt3__26vectorIN9ShaderLab20SerializedSubProgram16SamplerParameterENS1_9allocatorIS5_EEEEEEvRT_17TransferMetaFlags
zYa:__ZNSt3__27__sort3IRNS_6__lessINS_4pairIPKN5Unity4TypeE7Hash128EES8_EEPS8_EEjT0_SC_SC_T_
i2b:__ZN19ControllerHitReport10onShapeHitERKN5physx20PxControllerShapeHitE
ay:__ZN11AudioModule14SetBypassOnDSPEPN4FMOD3DSPEb
GC:__ZN11UnityEngine15CloudWebService20WebRequestRestClient11PerformPostEv
OYb:__ZL26Transfer_SimpleNativeClassI9JSONWrite17AnimationCurveTplIfELb0EEvRK29SerializationCommandArgumentsR31RuntimeSerializationCommandInfo
kjb:__ZN18StreamedBinaryReadILb1EE21TransferSTLStyleArrayI13dynamic_arrayI9BoundsIntLj4EEEEvRT_17TransferMetaFlags
mg:_glUniform4iv
Dia:__ZN6prcoreL12RemapGenericI15TexFormatRGB56517TexFormatARGB8888EEvPKNS_9InnerInfoE
Rdf:__Z53RuntimeInvoker_Single_t1397266774_Decimal_t2948259380PFvvEPK10MethodInfoPvPS4_
qLg:___fflush_unlocked
cKa:__ZN14SafeBinaryRead21TransferSTLStyleArrayINSt3__26vectorIN4core12basic_stringIcNS3_20StringStorageDefaultIcEEEE13stl_allocatorIS7_L18MemLabelIdentifier1ELi16EEEEEEvRT_17TransferMetaFlags
Dq:__ZNSt3__26vectorIiNS_9allocatorIiEEE6insertENS_11__wrap_iterIPKiEERS5_
M8a:__ZN21LinearCollectionFieldC2ER17GeneralMonoObject17ScriptingFieldPtr
S4d:_InternalEnumerator_1_System_Collections_IEnumerator_get_Current_m1295084274_AdjustorThunk
uWf:_AudioListener_AddExtension_m994751216
gNb:__ZNK12FileAccessor4SizeEv
rob:__ZNK10MonoScript22GetTypeVirtualInternalEv
B9f:__ZN6il2cpp2vm7Runtime9ClassInitEP11Il2CppClass
Qyc:_Char_Equals_m1279957088_AdjustorThunk
OWb:__ZN8JSONRead18GetValueNodeForKeyEPKc
e3b:__ZN22BaseUnityConnectClient19OnEnterStateStartedEv
Xac:_Assembly_IsDefined_m1652198537
Mg:_emscripten_set_touchmove_callback
fzb:__ZNK6Camera30GetNonJitteredProjectionMatrixEv
vlf:__Z95RuntimeInvoker_DateTime_t3738529785_RuntimeObject_RuntimeObject_RuntimeObject_Int32_t2950945753PFvvEPK10MethodInfoPvPS4_
$Bb:__ZN20SphericalHarmonicsL2pLERKS_
uPg:dynCall_fiiii
wpd:_SimpleCollator_IndexOf_m2273655786
d2b:__ZN14CompletionTaskC2Ev
Iad:_HashAlgorithm_get_Hash_m482540885
OFa:__ZN18VertexChannelsInfoC2ERA8_K11ChannelInfo
wAa:__ZN10UnityScene14AddRootToSceneERS_R9Transform
UPe:_List_1_Remove_m2378727974_gshared
tWg:_emscripten_glClearDepthf__wrapper
DGa:__ZN14RenderSettingsD2Ev
JBc:_BitArray_get_Item_m2970562587
S4f:__ZN15dense_hashtableINSt3__24pairIK10KeyWrapperIPKcEP11Il2CppClassEES5_N6il2cpp5utils11StringUtils12StringHasherIS4_EEN14dense_hash_mapIS5_S8_SE_NS5_14EqualsComparerINSB_13VmStringUtils21CaseSensitiveComparerEEENS0_9allocatorIS9_EEE9SelectKeyESJ_SL_E6insertERKS9_
A7c:_SslStreamBase_get_CanRead_m2005873964
Eab:__ZN14SafeBinaryRead21TransferSTLStyleArrayI13dynamic_arrayIN4math12int2_storageELj4EEEEvRT_17TransferMetaFlags
jpb:__ZN10BootConfig4InitEPPKcj
tPd:_ASCIIEncoding_GetByteCount_m2129416242
IKd:_EvidenceEnumerator_Reset_m2337577119
NHb:__ZN9Texture2D10ReadPixelsEiiiiiiibb
QJe:_X509CertificateEnumerator_MoveNext_m1342258196
xeb:__Z29Transfer_Blittable_ArrayFieldI24GenerateTypeTreeTransfer5RectTIfEEvRT_R9ArrayInfoRK23StaticTransferFieldInfo
Hng:__ZN6il2cpp6icalls8mscorlib6System9Threading6Thread8ClrStateEP12Il2CppThreadNS_2vm11ThreadStateE
O3c:_TlsClientCertificate_get_ClientCertificate_m1637836254
MTa:__ZN12ImageFilters19GetBlitCopyMaterialENS_12BlitCopyModeE
en:FUNCTION_TABLE_viififi
V8:__ZN13GfxDeviceGLES11SetTexturesE10ShaderTypeiPK15GfxTextureParam
lxa:__ZN19dynamic_block_arrayI13FileEntryInfoLj32EE26emplace_back_uninitializedEv
l9:__ZN13GfxDeviceGLES12DeleteBufferEP9GfxBuffer
oic:_TypeBuilder_IsAssignableFrom_m3127348202
HZe:_PatternCompiler_EmitNotCategory_m2023580103
UYa:__ZNK22GenericPropertyBinding15GenerateBindingERKN4core12basic_stringIcNS0_20StringStorageDefaultIcEEEEbRN11UnityEngine9Animation14GenericBindingE
RZd:_Enum_ToObject_m1949662789
Rme:_StringBuilder__ctor_m2989139009
TDd:_Group__ctor_m2495427790
NOe:_List_1_System_Collections_IList_IndexOf_m581320577_gshared
oMb:__ZN12BaseRendererC2E12RendererType
rDe:_Array_InternalArray__ICollection_CopyTo_TisMark_t3471605523_m3650504988_gshared
_td:_RSAManaged_DecryptValue_m1864805746
p6d:_InternalEnumerator_1_get_Current_m3225386639_gshared
gpa:__ZN13ComputeShader21DispatchComputeShaderEjiii
xPd:_ASCIIEncoding_GetBytes_m4130454866
Evb:__ZN13RenderTexture12GenerateMipsEv
Xvd:_ListDictionary_CopyTo_m1633862866
vng:__ZNSt3__214__split_bufferIN6il2cpp2vm22EmbeddedResourceRecordERNS_9allocatorIS3_EEEC2EjjS6_
cke:_EqualityComparer_1__cctor_m439166487_gshared
rdc:_ConstructorBuilder_GetParametersInternal_m2039842762
cqc:_ArrayList__ctor_m4254721275
DSg:_emscripten_glDrawElements__wrapper
O6e:_Input__cctor_m325696046
XB:__ZN11UnityEngine15CloudWebService14DataErrorEvent12ToJsonStringER9JSONWrite
Acb:__Z22TransferField_NonArrayI17RemapPPtrTransfer27Converter_SimpleNativeClassI8GradientEEvRK23StaticTransferFieldInfoR31RuntimeSerializationCommandInfoRT0_
PSa:__ZN14Texture2DArray8TransferI24GenerateTypeTreeTransferEEvRT_
xv:__ZN29AudioEffectInternalDefinitionD2Ev
ENc:_IntPtr_ToInt64_m192765549
nig:__ZN15dense_hashtableINSt3__24pairIK10KeyWrapperINS1_IPK12PropertyInfoP11Il2CppClassEEEjEES9_17ReflectionMapHashIS8_EN14dense_hash_mapIS9_jSD_NS9_14EqualsComparerINS0_8equal_toIS8_EEEENS0_9allocatorISB_EEE9SelectKeyESI_SK_E15set_deleted_keyERKSB_
zu:__ZN4FMOD7Channel15set3DAttributesEPK11FMOD_VECTORS3_
n5f:__ZN6il2cpp2vm13MetadataCache14GetPointerTypeEP11Il2CppClass
kne:_StringBuilder_Append_m2383614642
Pxg:__ZN6il2cpp6icalls8mscorlib6System9ValueType19InternalGetHashCodeEP12Il2CppObjectPP11Il2CppArray
Kw:__ZN11AudioSource12ApplyFiltersEv
HPb:__ZN26CustomRenderTextureManager21GfxDeviceInitCallbackEv
yZe:_PatternCompiler_EmitFalse_m1347893438
hkb:__Z18Transfer_BlittableI18StreamedBinaryReadILb0EELb0E9BoundsIntEvRK29SerializationCommandArgumentsR31RuntimeSerializationCommandInfo
Xae:_InternalEnumerator_1_get_Current_m1897120917_gshared
vld:_FormatterConverter_ToString_m1584725205
Ja:invoke_viiiiii
ETd:_DateTime_ParseExact_m1132380469
pTb:__ZN10systeminfo18GetRuntimePlatformEv
Pgd:_SerializationInfo_GetEnumerator_m1082663843
$Nd:_String_CompareOrdinalUnchecked_m2277084468
Fa:invoke_viiiiif
URg:_glFramebufferRenderbuffer__wrapper
GOg:dynCall_fifi
F5a:__ZNK16MemoryFileSystem4SizeERK13FileEntryData
Nia:__ZN6prcoreL12RemapGenericI17TexFormatARGB444415TexFormatRGB888EEvPKNS_9InnerInfoE
rvb:__ZN8GUILayer14RenderGUILayerE5RectTIfEjR17ShaderPassContext
Si:_pthread_create
ZUd:_Decimal__ctor_m593929528_AdjustorThunk
XJg:___shlim
lGe:_Array_InternalArray__get_Item_TisDictionaryEntry_t3123975638_m479537688_gshared
GT:__ZN21SystemInfoStringCache13StaticDestroyEPv
iAb:__ZN23ForwardShaderRenderLoop17PrepareShadowMapsEPK11ActiveLightRK11CullResults
rZ:__ZZN15DirectorManager15InitializeClassEvEN50PreLateUpdateDirectorUpdateAnimationEndRegistrator7ForwardEv
uE:__ZN19CloudServiceHandler22ResetNetworkRetryIndexEv
lNd:_String_System_IConvertible_ToDecimal_m997069272
a0f:__ZN6il2cpp2vm5Class16SetupNestedTypesEP11Il2CppClass
IP:__ZNK9ShaderLab7Program40EnsureCompiledAndMarkUnsupportedIfFailedEPKNS_10SubProgramERK16ShaderKeywordSetPS4_R19ShaderSnippetResult
Nqf:__Z122RuntimeInvoker_Int32_t2950945753_RuntimeObject_CustomAttributeNamedArgument_t287865710_Int32_t2950945753_Int32_t2950945753PFvvEPK10MethodInfoPvPS4_
Gve:_UInt32_Parse_m197815874
vue:_UInt16_System_IConvertible_ToType_m1028622578
Mxb:__ZN13BatchRenderer11RenderBatchEPK17BatchInstanceDataj17ShaderChannelMask
Z:enlargeMemory
cBd:_X509ChainElement_UncompressFlags_m781553362
nOg:_memcpy
sj:___cxa_begin_catch
sQa:__ZN13ScreenManager14GetResolutionsER13dynamic_arrayI10ResolutionLj4EE
feb:__ZN13GUIStyleState8TransferI24GenerateTypeTreeTransferEEvRT_
M$a:__ZN18LoadSceneOperation19IntegrateMainThreadEv
qGf:__ZL93X509Certificate_t713131622_CustomAttributesCacheGenerator_X509Certificate_GetName_m1060481339P21CustomAttributesCache
kuc:_Array_Copy_m1988610914
B2a:__ZN18StreamedBinaryReadILb0EE19TransferSTLStyleMapINSt3__23mapI4PPtrI6ShaderEN4core12basic_stringIcNS7_20StringStorageDefaultIcEEEENS2_4lessIS6_EENS2_9allocatorINS2_4pairIKS6_SB_EEEEEEEEvRT_17TransferMetaFlags
KCd:_X509ChainElement_Count_m383583639
EZc:_ASN1_get_Item_m315148275
SUb:__Z31Camera_Get_Custom_PropEventMaskP12Il2CppObject
jfa:__ZN19ConstantBuffersGLES13SetCBConstantEiiPKvi
jK:__Z12OptionalTypePKcS0_S0_
IZb:__ZN9JSONWrite8TransferIaEEvRT_PKc17TransferMetaFlags
GKa:__ZNSt3__26vectorIN4core12basic_stringIcNS1_20StringStorageDefaultIcEEEE13stl_allocatorIS5_L18MemLabelIdentifier1ELi16EEEC2INS_11__wrap_iterIPS5_EEEET_SE_RKS8_PNS_9enable_ifIXaasr21__is_forward_iteratorISE_EE5valuesr16is_constructibleIS5_NS_15iterator_traitsISE_E9referenceEEE5valueEvE4typeE
I9e:_HitInfo_SendMessage_m1343099429_AdjustorThunk
Rig:_il2cpp_get_corlib
atb:__Z36GiveDebuggerChanceToAttachIfRequiredv
kCc:_CollectionBase_System_Collections_ICollection_get_SyncRoot_m1463722401
d1f:__ZN15dense_hashtableINSt3__24pairIK10KeyWrapperIPK11Il2CppClassEPKcEES6_N6il2cpp5utils11PointerHashIS3_EEN14dense_hash_mapIS6_S9_SE_NS6_14EqualsComparerINS0_8equal_toIS5_EEEENS0_9allocatorISA_EEE9SelectKeyESJ_SL_E9copy_fromERKSO_j
_Ag:__ZN6il2cpp2os8TimeZone15GetTimeZoneDataEiPxPNSt3__212basic_stringIcNS3_11char_traitsIcEENS3_9allocatorIcEEEE
Bid:_MonoMethodMessage_get_MethodSignature_m580784519
XWc:_MulticastDelegate_GetInvocationList_m4256593605
d4c:_TlsClientCertificateVerify_ProcessAsTls1_m1051495755
u3b:__ZN11UnityEngine7Connect15DeviceInfoEvent12ToJsonStringER9JSONWrite
qNd:_String_System_IConvertible_ToSByte_m945078350
o6f:__ZN6il2cpp2vm13MetadataCache25GetIndexForTypeDefinitionEPK11Il2CppClass
w8d:_InternalEnumerator_1_get_Current_m2680116177_AdjustorThunk
Mn:establishStackSpace
nvb:__ZN6Camera8DoRenderER11CullResultsRK19SharedRendererSceneNS_10RenderFlagEPNS_21PerformRenderFunctionE
jDf:__ZL70ReliabilityContractAttribute_t502331440_CustomAttributesCacheGeneratorP21CustomAttributesCache
Zwd:_ServicePointManager_get_ServerCertificateValidationCallback_m2067275303
gVg:_glBindAttribLocation__wrapper
Aug:__ZN15dense_hashtableINSt3__24pairIK10KeyWrapperIP12Il2CppObjectEN6il2cpp2gc9CachedCCWEEES5_NS7_5utils11PointerHashIS3_EEN14dense_hash_mapIS5_S9_SD_NS5_14EqualsComparerINS0_8equal_toIS4_EEEENS0_9allocatorISA_EEE9SelectKeyESI_SK_E12resize_deltaEjj
fAb:__ZN10Matrix4x4f16AdjustDepthRangeEff
tY:__ZN16LightmapSettings7RebuildEv
L1e:_Uri_ParseUri_m2150795567
u:tempInt
Fag:__ZN6il2cpp2vm14TypeNameParser25ConsumePropertyIdentifierEv
STg:_emscripten_glGenRenderbuffers__wrapper
xGe:_Array_InternalArray__get_Item_TisInt32_t2950945753_m714868479_gshared
M0d:_GregorianCalendar_set_CalendarType_m2253089143
jwc:_Boolean_System_IConvertible_ToDouble_m2859188631_AdjustorThunk
UQd:_DaylightTime_get_Delta_m2355462786
iYg:_emscripten_glSampleCoverage__wrapper
NI:__ZN18AwakeFromLoadQueue19DetermineQueueIndexEPKN5Unity4TypeER6Object
Bcc:_CustomAttributeData_GetCustomAttributes_m1863564558
Gec:_EnumBuilder_GetMethodImpl_m3968140917
lce:_InternalEnumerator_1_get_Current_m2297647799_gshared
$Vf:_AudioExtensionManager_AddSpatializerExtension_m820561940
qTa:__ZN9Texture3D8TransferI18StreamedBinaryReadILb0EEEEvRT_
D1d:_SortKey_Compare_m1705990888
I_:__ZN13RendererScene28SceneAfterCullingOutputReadyEPK9IndexListPK16RendererCullData
R:Math_ceil
hza:__ZL43ReadHeaderAndBlocksInfo_UnityWebAndUnityRawR12FileAccessorRN20ArchiveStorageHeader6HeaderERNS1_10BlocksInfoE
Ypb:__ZN12InputManager11SetKeyStateEib
V$b:__Z26Transfer_UnityEngineObjectI8JSONReadLb1EEvRK29SerializationCommandArgumentsR31RuntimeSerializationCommandInfo
Sac:_Assembly_get_fullname_m3421330653
Pkd:_SoapServices__cctor_m3121621510
txa:__ZN15ArchiveReadFile4ReadEyyPvPy
Gpc:_DeriveBytes_Derive_m408582823
CVd:_Decimal_System_IConvertible_ToInt16_m1574696763_AdjustorThunk
qbe:_InternalEnumerator_1_System_Collections_IEnumerator_get_Current_m2671801110_AdjustorThunk
QDc:_Enumerator_get_Value_m1047280424
vTc:_SynchronizedWriter__ctor_m495278869
F9:__ZN13GfxDeviceGLES9SkinOnGPUERK18VertexStreamSourceP9GfxBufferP17GPUSkinPoseBufferS4_ii17ShaderChannelMaskb
Cl:_glCopyTexImage2D
$cd:_CrossAppDomainChannel_RegisterCrossAppDomainChannel_m1413768602
j0f:__ZN6il2cpp2vm5Class11IsInterfaceEPK11Il2CppClass
JJe:_PKCS12_AddPrivateKey_m1877554254
H$c:_RSAManaged_ImportParameters_m1117427048
fkd:_ProxyAttribute_CreateInstance_m1531306115
ptb:__ZN23ManagedAttributeManager15InitializeClassEv
Flc:_MonoProperty_GetCustomAttributes_m2723308902
Jwg:__ZN6il2cpp2os26LibraryNamePrefixAndSuffixD2Ev
N8:__ZN13GfxDeviceGLES15SetBackfaceModeEb
Foe:_UTF8Encoding_GetByteCount_m4153686982
VJg:_strtoull
lbd:_HMACSHA256__ctor_m3379531528
Pdb:__Z35Transfer_Blittable_FixedBufferFieldI24GenerateTypeTreeTransferyEvRK29SerializationCommandArgumentsR31RuntimeSerializationCommandInfo
cyc:_Char_System_IConvertible_ToType_m4138905176
CWf:_AudioListener_INTERNAL_CALL_ReadExtensionName_m4145804327
ZHc:_Convert_ToSingle_m3635698920
zkb:__Z18Transfer_BlittableI18StreamedBinaryReadILb0EELb1E10Matrix4x4fEvRK29SerializationCommandArgumentsR31RuntimeSerializationCommandInfo
KHa:__ZN13RenderTexture14SetColorFormatE19RenderTextureFormat
qGb:__Z36CreateScriptingArrayFromUnityObjectsI13dynamic_arrayIP6CameraLj4EEE17ScriptingArrayPtrRKT_17ScriptingClassPtr
ic:_glGenSamplers
xkc:_MonoField_GetValueInternal_m532651562
lec:_TypeBuilder_not_supported_m1239084737
y7b:__ZN18UnityConnectClient13StaticDestroyEv
Lic:_FieldInfo_SetValue_m2460171138
BGe:_Array_InternalArray__get_Item_TisCustomAttributeNamedArgument_t287865710_m2282658220_gshared
OZa:__ZN12AspectRatios8TransferI19StreamedBinaryWriteILb0EEEEvRT_
Tee:_Enumerator_get_CurrentValue_m785745355_AdjustorThunk
aTd:_DateTime_ParseExact_m317338046
pLe:_X509Store_Load_m2048139132
cug:__ZN30dense_hashtable_const_iteratorINSt3__24pairIK10KeyWrapperIP12Il2CppObjectEN6il2cpp2gc9CachedCCWEEES5_NS7_5utils11PointerHashIS3_EEN14dense_hash_mapIS5_S9_SD_NS5_14EqualsComparerINS0_8equal_toIS4_EEEENS0_9allocatorISA_EEE9SelectKeyESI_SK_EppEv
t1f:__ZN14dense_hash_mapI10KeyWrapperIPKcEP11Il2CppClassN6il2cpp5utils11StringUtils12StringHasherIS2_EENS3_14EqualsComparerINS7_13VmStringUtils21CaseSensitiveComparerEEENSt3__29allocatorINSF_4pairIKS3_S5_EEEEEC2EjRKSA_RKSE_
Qhb:__ZL26Transfer_SimpleNativeClassI18StreamedBinaryReadILb1EE8GradientLb0EEvRK29SerializationCommandArgumentsR31RuntimeSerializationCommandInfo
KC:__ZN11UnityEngine15CloudWebService20WebRequestRestClient16SetRequestHeaderERKN4core12basic_stringIcNS2_20StringStorageDefaultIcEEEES8_
k1f:__ZN30dense_hashtable_const_iteratorINSt3__24pairIK10KeyWrapperIPK11Il2CppClassEPKcEES6_N6il2cpp5utils11PointerHashIS3_EEN14dense_hash_mapIS6_S9_SE_NS6_14EqualsComparerINS0_8equal_toIS5_EEEENS0_9allocatorISA_EEE9SelectKeyESJ_SL_EppEv
VZd:_Enum_ToObject_m122225012
Qvb:__ZN7Texture15FindTextureByIDE9TextureID
jB:__ZThn4_N11UnityEngine15CloudWebService14DataDispatcherD0Ev
jzd:_AsnEncodedData__ctor_m119764527
MPd:_Decoder_get_FallbackBuffer_m2656621242
TIf:__ZL55UTF8Encoding_t3956466879_CustomAttributesCacheGeneratorP21CustomAttributesCache
Hlc:_MonoProperty_CreateGetterDelegate_m2478402519
Hgc:_MethodBuilder_get_next_table_index_m2755473113
ylg:__ZN6il2cpp8metadata14SetupCastClassEP11Il2CppClass
GAd:_X509Certificate2_get_SubjectName_m2588317215
_oa:__ZN18GfxFramebufferGLES30ReadbackDepthIntoRenderTextureEP17RenderSurfaceGLES
Y4a:__ZNK20LocalFileSystemPosix12LastModifiedERK13FileEntryData
K8a:__ZNSt3__26vectorI8MonoPPtr13stl_allocatorIS1_L18MemLabelIdentifier1ELi16EEE6assignINS_11__wrap_iterIPS1_EEEENS_9enable_ifIXaasr21__is_forward_iteratorIT_EE5valuesr16is_constructibleIS1_NS_15iterator_traitsISB_E9referenceEEE5valueEvE4typeESB_SB_
bLb:__ZNK10BootConfig4Data8GetValueEPKcj
q_:__Z9GetIAudiov
mi:___cxa_pure_virtual
dxc:_Byte_System_IConvertible_ToDateTime_m3654084722
OQb:__ZNK32RendererMaterialAnimationBinding13SetFloatValueERKN11UnityEngine9Animation10BoundCurveEf
